
deriche_mini-baremetal:     file format elf64-littleriscv


Disassembly of section .text.init:

0000000080000000 <_start>:
    80000000:	4081                	li	ra,0
    80000002:	4101                	li	sp,0
    80000004:	4181                	li	gp,0
    80000006:	4201                	li	tp,0
    80000008:	4281                	li	t0,0
    8000000a:	4301                	li	t1,0
    8000000c:	4381                	li	t2,0
    8000000e:	4401                	li	s0,0
    80000010:	4481                	li	s1,0
    80000012:	4501                	li	a0,0
    80000014:	4581                	li	a1,0
    80000016:	4601                	li	a2,0
    80000018:	4681                	li	a3,0
    8000001a:	4701                	li	a4,0
    8000001c:	4781                	li	a5,0
    8000001e:	4801                	li	a6,0
    80000020:	4881                	li	a7,0
    80000022:	4901                	li	s2,0
    80000024:	4981                	li	s3,0
    80000026:	4a01                	li	s4,0
    80000028:	4a81                	li	s5,0
    8000002a:	4b01                	li	s6,0
    8000002c:	4b81                	li	s7,0
    8000002e:	4c01                	li	s8,0
    80000030:	4c81                	li	s9,0
    80000032:	4d01                	li	s10,0
    80000034:	4d81                	li	s11,0
    80000036:	4e01                	li	t3,0
    80000038:	4e81                	li	t4,0
    8000003a:	4f01                	li	t5,0
    8000003c:	4f81                	li	t6,0
    8000003e:	0001e2b7          	lui	t0,0x1e
    80000042:	0002e293          	ori	t0,t0,0
    80000046:	3002a073          	csrs	mstatus,t0
    8000004a:	4285                	li	t0,1
    8000004c:	02fe                	slli	t0,t0,0x1f
    8000004e:	0002da63          	bgez	t0,80000062 <_start+0x62>
    80000052:	0002c863          	bltz	t0,80000062 <_start+0x62>
    80000056:	4505                	li	a0,1
    80000058:	00002297          	auipc	t0,0x2
    8000005c:	faa2a423          	sw	a0,-88(t0) # 80002000 <tohost>
    80000060:	bfdd                	j	80000056 <_start+0x56>
    80000062:	00000297          	auipc	t0,0x0
    80000066:	09028293          	addi	t0,t0,144 # 800000f2 <_start+0xf2>
    8000006a:	30529073          	csrw	mtvec,t0
    8000006e:	00301073          	fscsr	zero
    80000072:	f0000053          	fmv.w.x	ft0,zero
    80000076:	f00000d3          	fmv.w.x	ft1,zero
    8000007a:	f0000153          	fmv.w.x	ft2,zero
    8000007e:	f00001d3          	fmv.w.x	ft3,zero
    80000082:	f0000253          	fmv.w.x	ft4,zero
    80000086:	f00002d3          	fmv.w.x	ft5,zero
    8000008a:	f0000353          	fmv.w.x	ft6,zero
    8000008e:	f00003d3          	fmv.w.x	ft7,zero
    80000092:	f0000453          	fmv.w.x	fs0,zero
    80000096:	f00004d3          	fmv.w.x	fs1,zero
    8000009a:	f0000553          	fmv.w.x	fa0,zero
    8000009e:	f00005d3          	fmv.w.x	fa1,zero
    800000a2:	f0000653          	fmv.w.x	fa2,zero
    800000a6:	f00006d3          	fmv.w.x	fa3,zero
    800000aa:	f0000753          	fmv.w.x	fa4,zero
    800000ae:	f00007d3          	fmv.w.x	fa5,zero
    800000b2:	f0000853          	fmv.w.x	fa6,zero
    800000b6:	f00008d3          	fmv.w.x	fa7,zero
    800000ba:	f0000953          	fmv.w.x	fs2,zero
    800000be:	f00009d3          	fmv.w.x	fs3,zero
    800000c2:	f0000a53          	fmv.w.x	fs4,zero
    800000c6:	f0000ad3          	fmv.w.x	fs5,zero
    800000ca:	f0000b53          	fmv.w.x	fs6,zero
    800000ce:	f0000bd3          	fmv.w.x	fs7,zero
    800000d2:	f0000c53          	fmv.w.x	fs8,zero
    800000d6:	f0000cd3          	fmv.w.x	fs9,zero
    800000da:	f0000d53          	fmv.w.x	fs10,zero
    800000de:	f0000dd3          	fmv.w.x	fs11,zero
    800000e2:	f0000e53          	fmv.w.x	ft8,zero
    800000e6:	f0000ed3          	fmv.w.x	ft9,zero
    800000ea:	f0000f53          	fmv.w.x	ft10,zero
    800000ee:	f0000fd3          	fmv.w.x	ft11,zero
    800000f2:	00000297          	auipc	t0,0x0
    800000f6:	03e28293          	addi	t0,t0,62 # 80000130 <trap_entry>
    800000fa:	30529073          	csrw	mtvec,t0
    800000fe:	00010197          	auipc	gp,0x10
    80000102:	7e218193          	addi	gp,gp,2018 # 800108e0 <__global_pointer$>
    80000106:	03011217          	auipc	tp,0x3011
    8000010a:	17920213          	addi	tp,tp,377 # 8301127f <_end+0x3f>
    8000010e:	fc027213          	andi	tp,tp,-64
    80000112:	f1402573          	csrr	a0,mhartid
    80000116:	4585                	li	a1,1
    80000118:	00b57063          	bgeu	a0,a1,80000118 <_start+0x118>
    8000011c:	01151613          	slli	a2,a0,0x11
    80000120:	9232                	add	tp,tp,a2
    80000122:	00150113          	addi	sp,a0,1
    80000126:	0146                	slli	sp,sp,0x11
    80000128:	9112                	add	sp,sp,tp
    8000012a:	0370206f          	j	80002960 <_init>
    8000012e:	0001                	nop

0000000080000130 <trap_entry>:
    80000130:	716d                	addi	sp,sp,-272
    80000132:	e406                	sd	ra,8(sp)
    80000134:	e80a                	sd	sp,16(sp)
    80000136:	ec0e                	sd	gp,24(sp)
    80000138:	f012                	sd	tp,32(sp)
    8000013a:	f416                	sd	t0,40(sp)
    8000013c:	f81a                	sd	t1,48(sp)
    8000013e:	fc1e                	sd	t2,56(sp)
    80000140:	e0a2                	sd	s0,64(sp)
    80000142:	e4a6                	sd	s1,72(sp)
    80000144:	e8aa                	sd	a0,80(sp)
    80000146:	ecae                	sd	a1,88(sp)
    80000148:	f0b2                	sd	a2,96(sp)
    8000014a:	f4b6                	sd	a3,104(sp)
    8000014c:	f8ba                	sd	a4,112(sp)
    8000014e:	fcbe                	sd	a5,120(sp)
    80000150:	e142                	sd	a6,128(sp)
    80000152:	e546                	sd	a7,136(sp)
    80000154:	e94a                	sd	s2,144(sp)
    80000156:	ed4e                	sd	s3,152(sp)
    80000158:	f152                	sd	s4,160(sp)
    8000015a:	f556                	sd	s5,168(sp)
    8000015c:	f95a                	sd	s6,176(sp)
    8000015e:	fd5e                	sd	s7,184(sp)
    80000160:	e1e2                	sd	s8,192(sp)
    80000162:	e5e6                	sd	s9,200(sp)
    80000164:	e9ea                	sd	s10,208(sp)
    80000166:	edee                	sd	s11,216(sp)
    80000168:	f1f2                	sd	t3,224(sp)
    8000016a:	f5f6                	sd	t4,232(sp)
    8000016c:	f9fa                	sd	t5,240(sp)
    8000016e:	fdfe                	sd	t6,248(sp)
    80000170:	34202573          	csrr	a0,mcause
    80000174:	341025f3          	csrr	a1,mepc
    80000178:	860a                	mv	a2,sp
    8000017a:	62e020ef          	jal	ra,800027a8 <handle_trap>
    8000017e:	34151073          	csrw	mepc,a0
    80000182:	6289                	lui	t0,0x2
    80000184:	8002829b          	addiw	t0,t0,-2048 # 1800 <_tbss_end+0x17bc>
    80000188:	3002a073          	csrs	mstatus,t0
    8000018c:	60a2                	ld	ra,8(sp)
    8000018e:	6142                	ld	sp,16(sp)
    80000190:	61e2                	ld	gp,24(sp)
    80000192:	7202                	ld	tp,32(sp)
    80000194:	72a2                	ld	t0,40(sp)
    80000196:	7342                	ld	t1,48(sp)
    80000198:	73e2                	ld	t2,56(sp)
    8000019a:	6406                	ld	s0,64(sp)
    8000019c:	64a6                	ld	s1,72(sp)
    8000019e:	6546                	ld	a0,80(sp)
    800001a0:	65e6                	ld	a1,88(sp)
    800001a2:	7606                	ld	a2,96(sp)
    800001a4:	76a6                	ld	a3,104(sp)
    800001a6:	7746                	ld	a4,112(sp)
    800001a8:	77e6                	ld	a5,120(sp)
    800001aa:	680a                	ld	a6,128(sp)
    800001ac:	68aa                	ld	a7,136(sp)
    800001ae:	694a                	ld	s2,144(sp)
    800001b0:	69ea                	ld	s3,152(sp)
    800001b2:	7a0a                	ld	s4,160(sp)
    800001b4:	7aaa                	ld	s5,168(sp)
    800001b6:	7b4a                	ld	s6,176(sp)
    800001b8:	7bea                	ld	s7,184(sp)
    800001ba:	6c0e                	ld	s8,192(sp)
    800001bc:	6cae                	ld	s9,200(sp)
    800001be:	6d4e                	ld	s10,208(sp)
    800001c0:	6dee                	ld	s11,216(sp)
    800001c2:	7e0e                	ld	t3,224(sp)
    800001c4:	7eae                	ld	t4,232(sp)
    800001c6:	7f4e                	ld	t5,240(sp)
    800001c8:	7fee                	ld	t6,248(sp)
    800001ca:	6151                	addi	sp,sp,272
    800001cc:	30200073          	mret

Disassembly of section .text:

0000000080002048 <init_array>:
    80002048:	1141                	addi	sp,sp,-16
    8000204a:	e022                	sd	s0,0(sp)
    8000204c:	8532                	mv	a0,a2
    8000204e:	8432                	mv	s0,a2
    80002050:	78c5                	lui	a7,0xffff1
    80002052:	663d                	lui	a2,0xf
    80002054:	65c1                	lui	a1,0x10
    80002056:	6851                	lui	a6,0x14
    80002058:	e406                	sd	ra,8(sp)
    8000205a:	7c060613          	addi	a2,a2,1984 # f7c0 <_tbss_end+0xf77c>
    8000205e:	0000e797          	auipc	a5,0xe
    80002062:	0f27a707          	flw	fa4,242(a5) # 80010150 <__global_locale+0x218>
    80002066:	8408889b          	addiw	a7,a7,-1984 # ffffffffffff0840 <_end+0xffffffff7cfdf600>
    8000206a:	15fd                	addi	a1,a1,-1 # ffff <_tbss_end+0xffbb>
    8000206c:	60080813          	addi	a6,a6,1536 # 14600 <_tbss_end+0x145bc>
    80002070:	00c887bb          	addw	a5,a7,a2
    80002074:	872a                	mv	a4,a0
    80002076:	00b7f6b3          	and	a3,a5,a1
    8000207a:	d006f7d3          	fcvt.s.w	fa5,a3
    8000207e:	0711                	addi	a4,a4,4
    80002080:	3df7879b          	addiw	a5,a5,991
    80002084:	10e7f7d3          	fmul.s	fa5,fa5,fa4
    80002088:	fef72e27          	fsw	fa5,-4(a4)
    8000208c:	fec795e3          	bne	a5,a2,80002076 <init_array+0x2e>
    80002090:	1397861b          	addiw	a2,a5,313
    80002094:	10050513          	addi	a0,a0,256
    80002098:	fd061ce3          	bne	a2,a6,80002070 <init_array+0x28>
    8000209c:	400c                	lw	a1,0(s0)
    8000209e:	0000b517          	auipc	a0,0xb
    800020a2:	61250513          	addi	a0,a0,1554 # 8000d6b0 <_conv_stat+0x52>
    800020a6:	7c6000ef          	jal	ra,8000286c <printf>
    800020aa:	404c                	lw	a1,4(s0)
    800020ac:	0000b517          	auipc	a0,0xb
    800020b0:	60450513          	addi	a0,a0,1540 # 8000d6b0 <_conv_stat+0x52>
    800020b4:	7b8000ef          	jal	ra,8000286c <printf>
    800020b8:	440c                	lw	a1,8(s0)
    800020ba:	0000b517          	auipc	a0,0xb
    800020be:	5f650513          	addi	a0,a0,1526 # 8000d6b0 <_conv_stat+0x52>
    800020c2:	7aa000ef          	jal	ra,8000286c <printf>
    800020c6:	6402                	ld	s0,0(sp)
    800020c8:	60a2                	ld	ra,8(sp)
    800020ca:	0000b517          	auipc	a0,0xb
    800020ce:	60650513          	addi	a0,a0,1542 # 8000d6d0 <_conv_stat+0x72>
    800020d2:	0141                	addi	sp,sp,16
    800020d4:	af61                	j	8000286c <printf>

00000000800020d6 <cpu_kernel_deriche>:
    800020d6:	6811                	lui	a6,0x4
    800020d8:	85aa                	mv	a1,a0
    800020da:	10080813          	addi	a6,a6,256 # 4100 <_tbss_end+0x40bc>
    800020de:	8536                	mv	a0,a3
    800020e0:	982e                	add	a6,a6,a1
    800020e2:	10058693          	addi	a3,a1,256
    800020e6:	0000e797          	auipc	a5,0xe
    800020ea:	0727a507          	flw	fa0,114(a5) # 80010158 <__global_locale+0x220>
    800020ee:	0000e797          	auipc	a5,0xe
    800020f2:	06e7a107          	flw	ft2,110(a5) # 8001015c <__global_locale+0x224>
    800020f6:	0000e797          	auipc	a5,0xe
    800020fa:	06a7a087          	flw	ft1,106(a5) # 80010160 <__global_locale+0x228>
    800020fe:	0000e797          	auipc	a5,0xe
    80002102:	0667a007          	flw	ft0,102(a5) # 80010164 <__global_locale+0x22c>
    80002106:	f0000653          	fmv.w.x	fa2,zero
    8000210a:	f0068793          	addi	a5,a3,-256
    8000210e:	8732                	mv	a4,a2
    80002110:	20c606d3          	fmv.s	fa3,fa2
    80002114:	20c607d3          	fmv.s	fa5,fa2
    80002118:	10a6f5d3          	fmul.s	fa1,fa3,fa0
    8000211c:	0007a707          	flw	fa4,0(a5)
    80002120:	0711                	addi	a4,a4,4
    80002122:	0791                	addi	a5,a5,4
    80002124:	58277743          	fmadd.s	fa4,fa4,ft2,fa1
    80002128:	7017f7c3          	fmadd.s	fa5,fa5,ft1,fa4
    8000212c:	780677c3          	fmadd.s	fa5,fa2,ft0,fa5
    80002130:	20d68653          	fmv.s	fa2,fa3
    80002134:	fef72e27          	fsw	fa5,-4(a4)
    80002138:	20f786d3          	fmv.s	fa3,fa5
    8000213c:	ffc7a787          	flw	fa5,-4(a5)
    80002140:	fcd79ce3          	bne	a5,a3,80002118 <cpu_kernel_deriche+0x42>
    80002144:	10078693          	addi	a3,a5,256
    80002148:	10060613          	addi	a2,a2,256
    8000214c:	fb069de3          	bne	a3,a6,80002106 <cpu_kernel_deriche+0x30>
    80002150:	6791                	lui	a5,0x4
    80002152:	17f1                	addi	a5,a5,-4 # 3ffc <_tbss_end+0x3fb8>
    80002154:	ffc50613          	addi	a2,a0,-4
    80002158:	0fc58593          	addi	a1,a1,252
    8000215c:	953e                	add	a0,a0,a5
    8000215e:	0000e797          	auipc	a5,0xe
    80002162:	00a7a107          	flw	ft2,10(a5) # 80010168 <__global_locale+0x230>
    80002166:	0000e797          	auipc	a5,0xe
    8000216a:	0067a087          	flw	ft1,6(a5) # 8001016c <__global_locale+0x234>
    8000216e:	f00005d3          	fmv.w.x	fa1,zero
    80002172:	86b2                	mv	a3,a2
    80002174:	10060613          	addi	a2,a2,256
    80002178:	20b586d3          	fmv.s	fa3,fa1
    8000217c:	20b58653          	fmv.s	fa2,fa1
    80002180:	20b58753          	fmv.s	fa4,fa1
    80002184:	872e                	mv	a4,a1
    80002186:	87b2                	mv	a5,a2
    80002188:	10a6f7d3          	fmul.s	fa5,fa3,fa0
    8000218c:	17f1                	addi	a5,a5,-4
    8000218e:	1771                	addi	a4,a4,-4
    80002190:	782777c3          	fmadd.s	fa5,fa4,ft2,fa5
    80002194:	781677c3          	fmadd.s	fa5,fa2,ft1,fa5
    80002198:	20e70653          	fmv.s	fa2,fa4
    8000219c:	7805f7c3          	fmadd.s	fa5,fa1,ft0,fa5
    800021a0:	20d685d3          	fmv.s	fa1,fa3
    800021a4:	00f7a227          	fsw	fa5,4(a5)
    800021a8:	20f786d3          	fmv.s	fa3,fa5
    800021ac:	00472707          	flw	fa4,4(a4)
    800021b0:	fcd79ce3          	bne	a5,a3,80002188 <cpu_kernel_deriche+0xb2>
    800021b4:	10058593          	addi	a1,a1,256
    800021b8:	fac51be3          	bne	a0,a2,8000216e <cpu_kernel_deriche+0x98>
    800021bc:	8082                	ret

00000000800021be <kernel_deriche>:
    800021be:	c3010113          	addi	sp,sp,-976
    800021c2:	3c813423          	sd	s0,968(sp)
    800021c6:	3c913023          	sd	s1,960(sp)
    800021ca:	3b213c23          	sd	s2,952(sp)
    800021ce:	3b313823          	sd	s3,944(sp)
    800021d2:	3b413423          	sd	s4,936(sp)
    800021d6:	3b513023          	sd	s5,928(sp)
    800021da:	39613c23          	sd	s6,920(sp)
    800021de:	39713823          	sd	s7,912(sp)
    800021e2:	39813423          	sd	s8,904(sp)
    800021e6:	8b818413          	addi	s0,gp,-1864 # 80010198 <_task_id>
    800021ea:	00044883          	lbu	a7,0(s0)
    800021ee:	00400fb7          	lui	t6,0x400
    800021f2:	00200f37          	lui	t5,0x200
    800021f6:	00100eb7          	lui	t4,0x100
    800021fa:	4285                	li	t0,1
    800021fc:	64bd                	lui	s1,0xf
    800021fe:	0fb5                	addi	t6,t6,13 # 40000d <_tbss_end+0x3fffc9>
    80002200:	0f1d                	addi	t5,t5,7 # 200007 <_tbss_end+0x1fffc3>
    80002202:	0e85                	addi	t4,t4,1 # 100001 <_tbss_end+0xfffbd>
    80002204:	02629a93          	slli	s5,t0,0x26
    80002208:	8932                	mv	s2,a2
    8000220a:	8346                	mv	t1,a7
    8000220c:	4e01                	li	t3,0
    8000220e:	0000ec17          	auipc	s8,0xe
    80002212:	ed2c3c03          	ld	s8,-302(s8) # 800100e0 <__global_locale+0x1a8>
    80002216:	0000c997          	auipc	s3,0xc
    8000221a:	9c298993          	addi	s3,s3,-1598 # 8000dbd8 <_conv_stat+0x57a>
    8000221e:	0000eb97          	auipc	s7,0xe
    80002222:	ecabbb83          	ld	s7,-310(s7) # 800100e8 <__global_locale+0x1b0>
    80002226:	0000eb17          	auipc	s6,0xe
    8000222a:	ecab3b03          	ld	s6,-310(s6) # 800100f0 <__global_locale+0x1b8>
    8000222e:	12f6                	slli	t0,t0,0x3d
    80002230:	04048493          	addi	s1,s1,64 # f040 <_tbss_end+0xeffc>
    80002234:	0fb6                	slli	t6,t6,0xd
    80002236:	0f3a                	slli	t5,t5,0xe
    80002238:	0ebe                	slli	t4,t4,0xf
    8000223a:	6a09                	lui	s4,0x2
    8000223c:	03831813          	slli	a6,t1,0x38
    80002240:	01c505b3          	add	a1,a0,t3
    80002244:	01886633          	or	a2,a6,s8
    80002248:	02c5b00b          	.word	0x02c5b00b
    8000224c:	0000c797          	auipc	a5,0xc
    80002250:	80c78793          	addi	a5,a5,-2036 # 8000da58 <_conv_stat+0x3fa>
    80002254:	1038                	addi	a4,sp,40
    80002256:	0007b383          	ld	t2,0(a5)
    8000225a:	6790                	ld	a2,8(a5)
    8000225c:	02078793          	addi	a5,a5,32
    80002260:	00773023          	sd	t2,0(a4)
    80002264:	e710                	sd	a2,8(a4)
    80002266:	ff07b603          	ld	a2,-16(a5)
    8000226a:	ff87b383          	ld	t2,-8(a5)
    8000226e:	02070713          	addi	a4,a4,32
    80002272:	fec73823          	sd	a2,-16(a4)
    80002276:	fe773c23          	sd	t2,-8(a4)
    8000227a:	fd379ee3          	bne	a5,s3,80002256 <kernel_deriche+0x98>
    8000227e:	102c                	addi	a1,sp,40
    80002280:	01786633          	or	a2,a6,s7
    80002284:	02c5b00b          	.word	0x02c5b00b
    80002288:	4581                	li	a1,0
    8000228a:	01586633          	or	a2,a6,s5
    8000228e:	06c5b00b          	.word	0x06c5b00b
    80002292:	85a6                	mv	a1,s1
    80002294:	00586633          	or	a2,a6,t0
    80002298:	08c5b00b          	.word	0x08c5b00b
    8000229c:	100c                	addi	a1,sp,32
    8000229e:	01f86633          	or	a2,a6,t6
    800022a2:	04c5b00b          	.word	0x04c5b00b
    800022a6:	086c                	addi	a1,sp,28
    800022a8:	01e86633          	or	a2,a6,t5
    800022ac:	04c5b00b          	.word	0x04c5b00b
    800022b0:	104c                	addi	a1,sp,36
    800022b2:	01d86633          	or	a2,a6,t4
    800022b6:	04c5b00b          	.word	0x04c5b00b
    800022ba:	01c905b3          	add	a1,s2,t3
    800022be:	01686633          	or	a2,a6,s6
    800022c2:	04c5b00b          	.word	0x04c5b00b
    800022c6:	2305                	addiw	t1,t1,1
    800022c8:	0ff37313          	zext.b	t1,t1
    800022cc:	014e0463          	beq	t3,s4,800022d4 <kernel_deriche+0x116>
    800022d0:	6e09                	lui	t3,0x2
    800022d2:	b7ad                	j	8000223c <kernel_deriche+0x7e>
    800022d4:	004003b7          	lui	t2,0x400
    800022d8:	002002b7          	lui	t0,0x200
    800022dc:	00100fb7          	lui	t6,0x100
    800022e0:	00080f37          	lui	t5,0x80
    800022e4:	2889                	addiw	a7,a7,2
    800022e6:	200019b7          	lui	s3,0x20001
    800022ea:	02700913          	li	s2,39
    800022ee:	4485                	li	s1,1
    800022f0:	0385                	addi	t2,t2,1 # 400001 <_tbss_end+0x3fffbd>
    800022f2:	0285                	addi	t0,t0,1 # 200001 <_tbss_end+0x1fffbd>
    800022f4:	0f85                	addi	t6,t6,1 # 100001 <_tbss_end+0xfffbd>
    800022f6:	0f05                	addi	t5,t5,1 # 80001 <_tbss_end+0x7ffbd>
    800022f8:	0ff8f893          	zext.b	a7,a7
    800022fc:	4e81                	li	t4,0
    800022fe:	0000ca17          	auipc	s4,0xc
    80002302:	a9aa0a13          	addi	s4,s4,-1382 # 8000dd98 <_conv_stat+0x73a>
    80002306:	0000eb97          	auipc	s7,0xe
    8000230a:	df2bbb83          	ld	s7,-526(s7) # 800100f8 <__global_locale+0x1c0>
    8000230e:	0000eb17          	auipc	s6,0xe
    80002312:	df2b3b03          	ld	s6,-526(s6) # 80010100 <__global_locale+0x1c8>
    80002316:	1986                	slli	s3,s3,0x21
    80002318:	1906                	slli	s2,s2,0x21
    8000231a:	14f6                	slli	s1,s1,0x3d
    8000231c:	03b6                	slli	t2,t2,0xd
    8000231e:	02ba                	slli	t0,t0,0xe
    80002320:	0fbe                	slli	t6,t6,0xf
    80002322:	0f42                	slli	t5,t5,0x10
    80002324:	6a89                	lui	s5,0x2
    80002326:	03889813          	slli	a6,a7,0x38
    8000232a:	01d505b3          	add	a1,a0,t4
    8000232e:	01386633          	or	a2,a6,s3
    80002332:	02c5b00b          	.word	0x02c5b00b
    80002336:	0000c797          	auipc	a5,0xc
    8000233a:	8a278793          	addi	a5,a5,-1886 # 8000dbd8 <_conv_stat+0x57a>
    8000233e:	1338                	addi	a4,sp,424
    80002340:	6390                	ld	a2,0(a5)
    80002342:	0087b303          	ld	t1,8(a5)
    80002346:	6b8c                	ld	a1,16(a5)
    80002348:	e310                	sd	a2,0(a4)
    8000234a:	6f90                	ld	a2,24(a5)
    8000234c:	00673423          	sd	t1,8(a4)
    80002350:	eb0c                	sd	a1,16(a4)
    80002352:	ef10                	sd	a2,24(a4)
    80002354:	02078793          	addi	a5,a5,32
    80002358:	02070713          	addi	a4,a4,32
    8000235c:	ff4792e3          	bne	a5,s4,80002340 <kernel_deriche+0x182>
    80002360:	638c                	ld	a1,0(a5)
    80002362:	6790                	ld	a2,8(a5)
    80002364:	4b9c                	lw	a5,16(a5)
    80002366:	e30c                	sd	a1,0(a4)
    80002368:	e710                	sd	a2,8(a4)
    8000236a:	cb1c                	sw	a5,16(a4)
    8000236c:	132c                	addi	a1,sp,424
    8000236e:	01786633          	or	a2,a6,s7
    80002372:	02c5b00b          	.word	0x02c5b00b
    80002376:	4581                	li	a1,0
    80002378:	01286633          	or	a2,a6,s2
    8000237c:	06c5b00b          	.word	0x06c5b00b
    80002380:	21f00593          	li	a1,543
    80002384:	00986633          	or	a2,a6,s1
    80002388:	08c5b00b          	.word	0x08c5b00b
    8000238c:	080c                	addi	a1,sp,16
    8000238e:	00786633          	or	a2,a6,t2
    80002392:	04c5b00b          	.word	0x04c5b00b
    80002396:	006c                	addi	a1,sp,12
    80002398:	00586633          	or	a2,a6,t0
    8000239c:	04c5b00b          	.word	0x04c5b00b
    800023a0:	084c                	addi	a1,sp,20
    800023a2:	01f86633          	or	a2,a6,t6
    800023a6:	04c5b00b          	.word	0x04c5b00b
    800023aa:	01d685b3          	add	a1,a3,t4
    800023ae:	01686633          	or	a2,a6,s6
    800023b2:	04c5b00b          	.word	0x04c5b00b
    800023b6:	082c                	addi	a1,sp,24
    800023b8:	01e86633          	or	a2,a6,t5
    800023bc:	04c5b00b          	.word	0x04c5b00b
    800023c0:	2885                	addiw	a7,a7,1
    800023c2:	0ff8f893          	zext.b	a7,a7
    800023c6:	01140023          	sb	a7,0(s0)
    800023ca:	015e8463          	beq	t4,s5,800023d2 <kernel_deriche+0x214>
    800023ce:	8ef2                	mv	t4,t3
    800023d0:	bf99                	j	80002326 <kernel_deriche+0x168>
    800023d2:	3c813403          	ld	s0,968(sp)
    800023d6:	3c013483          	ld	s1,960(sp)
    800023da:	3b813903          	ld	s2,952(sp)
    800023de:	3b013983          	ld	s3,944(sp)
    800023e2:	3a813a03          	ld	s4,936(sp)
    800023e6:	3a013a83          	ld	s5,928(sp)
    800023ea:	39813b03          	ld	s6,920(sp)
    800023ee:	39013b83          	ld	s7,912(sp)
    800023f2:	38813c03          	ld	s8,904(sp)
    800023f6:	3d010113          	addi	sp,sp,976
    800023fa:	8082                	ret

00000000800023fc <vprintfmt>:
    800023fc:	7149                	addi	sp,sp,-368
    800023fe:	f2a2                	sd	s0,352(sp)
    80002400:	eea6                	sd	s1,344(sp)
    80002402:	eaca                	sd	s2,336(sp)
    80002404:	e2d2                	sd	s4,320(sp)
    80002406:	fe56                	sd	s5,312(sp)
    80002408:	fa5a                	sd	s6,304(sp)
    8000240a:	f65e                	sd	s7,296(sp)
    8000240c:	f686                	sd	ra,360(sp)
    8000240e:	e6ce                	sd	s3,328(sp)
    80002410:	f262                	sd	s8,288(sp)
    80002412:	ee66                	sd	s9,280(sp)
    80002414:	ea6a                	sd	s10,272(sp)
    80002416:	e66e                	sd	s11,264(sp)
    80002418:	892a                	mv	s2,a0
    8000241a:	84ae                	mv	s1,a1
    8000241c:	8432                	mv	s0,a2
    8000241e:	8ab6                	mv	s5,a3
    80002420:	02500a13          	li	s4,37
    80002424:	05500b93          	li	s7,85
    80002428:	0000cb17          	auipc	s6,0xc
    8000242c:	984b0b13          	addi	s6,s6,-1660 # 8000ddac <_conv_stat+0x74e>
    80002430:	a029                	j	8000243a <vprintfmt+0x3e>
    80002432:	cd1d                	beqz	a0,80002470 <vprintfmt+0x74>
    80002434:	85a6                	mv	a1,s1
    80002436:	0405                	addi	s0,s0,1
    80002438:	9902                	jalr	s2
    8000243a:	00044503          	lbu	a0,0(s0)
    8000243e:	ff451ae3          	bne	a0,s4,80002432 <vprintfmt+0x36>
    80002442:	00144683          	lbu	a3,1(s0)
    80002446:	00140993          	addi	s3,s0,1
    8000244a:	874e                	mv	a4,s3
    8000244c:	02000c93          	li	s9,32
    80002450:	5c7d                	li	s8,-1
    80002452:	5dfd                	li	s11,-1
    80002454:	4601                	li	a2,0
    80002456:	fdd6879b          	addiw	a5,a3,-35
    8000245a:	0ff7f793          	zext.b	a5,a5
    8000245e:	00170413          	addi	s0,a4,1
    80002462:	04fbe263          	bltu	s7,a5,800024a6 <vprintfmt+0xaa>
    80002466:	078a                	slli	a5,a5,0x2
    80002468:	97da                	add	a5,a5,s6
    8000246a:	439c                	lw	a5,0(a5)
    8000246c:	97da                	add	a5,a5,s6
    8000246e:	8782                	jr	a5
    80002470:	70b6                	ld	ra,360(sp)
    80002472:	7416                	ld	s0,352(sp)
    80002474:	64f6                	ld	s1,344(sp)
    80002476:	6956                	ld	s2,336(sp)
    80002478:	69b6                	ld	s3,328(sp)
    8000247a:	6a16                	ld	s4,320(sp)
    8000247c:	7af2                	ld	s5,312(sp)
    8000247e:	7b52                	ld	s6,304(sp)
    80002480:	7bb2                	ld	s7,296(sp)
    80002482:	7c12                	ld	s8,288(sp)
    80002484:	6cf2                	ld	s9,280(sp)
    80002486:	6d52                	ld	s10,272(sp)
    80002488:	6db2                	ld	s11,264(sp)
    8000248a:	6175                	addi	sp,sp,368
    8000248c:	8082                	ret
    8000248e:	8cb6                	mv	s9,a3
    80002490:	00174683          	lbu	a3,1(a4)
    80002494:	8722                	mv	a4,s0
    80002496:	00170413          	addi	s0,a4,1
    8000249a:	fdd6879b          	addiw	a5,a3,-35
    8000249e:	0ff7f793          	zext.b	a5,a5
    800024a2:	fcfbf2e3          	bgeu	s7,a5,80002466 <vprintfmt+0x6a>
    800024a6:	85a6                	mv	a1,s1
    800024a8:	02500513          	li	a0,37
    800024ac:	9902                	jalr	s2
    800024ae:	844e                	mv	s0,s3
    800024b0:	b769                	j	8000243a <vprintfmt+0x3e>
    800024b2:	fd068c1b          	addiw	s8,a3,-48
    800024b6:	00174683          	lbu	a3,1(a4)
    800024ba:	47a5                	li	a5,9
    800024bc:	fd06871b          	addiw	a4,a3,-48
    800024c0:	0006859b          	sext.w	a1,a3
    800024c4:	20e7e863          	bltu	a5,a4,800026d4 <vprintfmt+0x2d8>
    800024c8:	8722                	mv	a4,s0
    800024ca:	4825                	li	a6,9
    800024cc:	00174683          	lbu	a3,1(a4)
    800024d0:	002c179b          	slliw	a5,s8,0x2
    800024d4:	018787bb          	addw	a5,a5,s8
    800024d8:	0017979b          	slliw	a5,a5,0x1
    800024dc:	9fad                	addw	a5,a5,a1
    800024de:	fd06851b          	addiw	a0,a3,-48
    800024e2:	0705                	addi	a4,a4,1
    800024e4:	fd078c1b          	addiw	s8,a5,-48
    800024e8:	0006859b          	sext.w	a1,a3
    800024ec:	fea870e3          	bgeu	a6,a0,800024cc <vprintfmt+0xd0>
    800024f0:	f60dd3e3          	bgez	s11,80002456 <vprintfmt+0x5a>
    800024f4:	8de2                	mv	s11,s8
    800024f6:	5c7d                	li	s8,-1
    800024f8:	bfb9                	j	80002456 <vprintfmt+0x5a>
    800024fa:	00174683          	lbu	a3,1(a4)
    800024fe:	8722                	mv	a4,s0
    80002500:	bf99                	j	80002456 <vprintfmt+0x5a>
    80002502:	85a6                	mv	a1,s1
    80002504:	02500513          	li	a0,37
    80002508:	9902                	jalr	s2
    8000250a:	bf05                	j	8000243a <vprintfmt+0x3e>
    8000250c:	000aac03          	lw	s8,0(s5) # 2000 <_tbss_end+0x1fbc>
    80002510:	00174683          	lbu	a3,1(a4)
    80002514:	0aa1                	addi	s5,s5,8
    80002516:	8722                	mv	a4,s0
    80002518:	bfe1                	j	800024f0 <vprintfmt+0xf4>
    8000251a:	03000513          	li	a0,48
    8000251e:	85a6                	mv	a1,s1
    80002520:	9902                	jalr	s2
    80002522:	85a6                	mv	a1,s1
    80002524:	07800513          	li	a0,120
    80002528:	9902                	jalr	s2
    8000252a:	46c1                	li	a3,16
    8000252c:	008a8713          	addi	a4,s5,8
    80002530:	000ab783          	ld	a5,0(s5)
    80002534:	8aba                	mv	s5,a4
    80002536:	02d7f5b3          	remu	a1,a5,a3
    8000253a:	000c899b          	sext.w	s3,s9
    8000253e:	0050                	addi	a2,sp,4
    80002540:	4705                	li	a4,1
    80002542:	c02e                	sw	a1,0(sp)
    80002544:	16d7e663          	bltu	a5,a3,800026b0 <vprintfmt+0x2b4>
    80002548:	02d7d7b3          	divu	a5,a5,a3
    8000254c:	0611                	addi	a2,a2,4
    8000254e:	8c3a                	mv	s8,a4
    80002550:	2705                	addiw	a4,a4,1
    80002552:	02d7f5b3          	remu	a1,a5,a3
    80002556:	feb62e23          	sw	a1,-4(a2)
    8000255a:	fed7f7e3          	bgeu	a5,a3,80002548 <vprintfmt+0x14c>
    8000255e:	fffd8c9b          	addiw	s9,s11,-1
    80002562:	fff70d1b          	addiw	s10,a4,-1
    80002566:	01b75863          	bge	a4,s11,80002576 <vprintfmt+0x17a>
    8000256a:	3cfd                	addiw	s9,s9,-1
    8000256c:	85a6                	mv	a1,s1
    8000256e:	854e                	mv	a0,s3
    80002570:	9902                	jalr	s2
    80002572:	ffac9ce3          	bne	s9,s10,8000256a <vprintfmt+0x16e>
    80002576:	0c0a                	slli	s8,s8,0x2
    80002578:	018109b3          	add	s3,sp,s8
    8000257c:	ffc10c93          	addi	s9,sp,-4
    80002580:	4c25                	li	s8,9
    80002582:	0009a783          	lw	a5,0(s3) # 20001000 <__malloc_len+0x1d001000>
    80002586:	05700513          	li	a0,87
    8000258a:	00fc6463          	bltu	s8,a5,80002592 <vprintfmt+0x196>
    8000258e:	03000513          	li	a0,48
    80002592:	19f1                	addi	s3,s3,-4
    80002594:	85a6                	mv	a1,s1
    80002596:	9d3d                	addw	a0,a0,a5
    80002598:	9902                	jalr	s2
    8000259a:	ff3c94e3          	bne	s9,s3,80002582 <vprintfmt+0x186>
    8000259e:	bd71                	j	8000243a <vprintfmt+0x3e>
    800025a0:	4785                	li	a5,1
    800025a2:	008a8c13          	addi	s8,s5,8
    800025a6:	00c7c463          	blt	a5,a2,800025ae <vprintfmt+0x1b2>
    800025aa:	10060563          	beqz	a2,800026b4 <vprintfmt+0x2b8>
    800025ae:	000ab983          	ld	s3,0(s5)
    800025b2:	1009c863          	bltz	s3,800026c2 <vprintfmt+0x2c6>
    800025b6:	87ce                	mv	a5,s3
    800025b8:	8ae2                	mv	s5,s8
    800025ba:	46a9                	li	a3,10
    800025bc:	bfad                	j	80002536 <vprintfmt+0x13a>
    800025be:	00174683          	lbu	a3,1(a4)
    800025c2:	2605                	addiw	a2,a2,1
    800025c4:	8722                	mv	a4,s0
    800025c6:	bd41                	j	80002456 <vprintfmt+0x5a>
    800025c8:	46c1                	li	a3,16
    800025ca:	4785                	li	a5,1
    800025cc:	008a8713          	addi	a4,s5,8
    800025d0:	f6c7c0e3          	blt	a5,a2,80002530 <vprintfmt+0x134>
    800025d4:	fe31                	bnez	a2,80002530 <vprintfmt+0x134>
    800025d6:	000ae783          	lwu	a5,0(s5)
    800025da:	8aba                	mv	s5,a4
    800025dc:	bfa9                	j	80002536 <vprintfmt+0x13a>
    800025de:	000abd03          	ld	s10,0(s5)
    800025e2:	0aa1                	addi	s5,s5,8
    800025e4:	040d0263          	beqz	s10,80002628 <vprintfmt+0x22c>
    800025e8:	09b05d63          	blez	s11,80002682 <vprintfmt+0x286>
    800025ec:	02d00793          	li	a5,45
    800025f0:	04fc9e63          	bne	s9,a5,8000264c <vprintfmt+0x250>
    800025f4:	000d4503          	lbu	a0,0(s10)
    800025f8:	c105                	beqz	a0,80002618 <vprintfmt+0x21c>
    800025fa:	59fd                	li	s3,-1
    800025fc:	000c4563          	bltz	s8,80002606 <vprintfmt+0x20a>
    80002600:	3c7d                	addiw	s8,s8,-1
    80002602:	013c0963          	beq	s8,s3,80002614 <vprintfmt+0x218>
    80002606:	85a6                	mv	a1,s1
    80002608:	0d05                	addi	s10,s10,1
    8000260a:	9902                	jalr	s2
    8000260c:	000d4503          	lbu	a0,0(s10)
    80002610:	3dfd                	addiw	s11,s11,-1
    80002612:	f56d                	bnez	a0,800025fc <vprintfmt+0x200>
    80002614:	e3b053e3          	blez	s11,8000243a <vprintfmt+0x3e>
    80002618:	3dfd                	addiw	s11,s11,-1
    8000261a:	85a6                	mv	a1,s1
    8000261c:	02000513          	li	a0,32
    80002620:	9902                	jalr	s2
    80002622:	fe0d9be3          	bnez	s11,80002618 <vprintfmt+0x21c>
    80002626:	bd11                	j	8000243a <vprintfmt+0x3e>
    80002628:	0000bd17          	auipc	s10,0xb
    8000262c:	220d0d13          	addi	s10,s10,544 # 8000d848 <_conv_stat+0x1ea>
    80002630:	02800513          	li	a0,40
    80002634:	fdb053e3          	blez	s11,800025fa <vprintfmt+0x1fe>
    80002638:	02d00793          	li	a5,45
    8000263c:	0000bd17          	auipc	s10,0xb
    80002640:	20cd0d13          	addi	s10,s10,524 # 8000d848 <_conv_stat+0x1ea>
    80002644:	02800513          	li	a0,40
    80002648:	fafc89e3          	beq	s9,a5,800025fa <vprintfmt+0x1fe>
    8000264c:	000d861b          	sext.w	a2,s11
    80002650:	87ea                	mv	a5,s10
    80002652:	018d06b3          	add	a3,s10,s8
    80002656:	000c1663          	bnez	s8,80002662 <vprintfmt+0x266>
    8000265a:	a829                	j	80002674 <vprintfmt+0x278>
    8000265c:	0785                	addi	a5,a5,1
    8000265e:	00d78563          	beq	a5,a3,80002668 <vprintfmt+0x26c>
    80002662:	0007c703          	lbu	a4,0(a5)
    80002666:	fb7d                	bnez	a4,8000265c <vprintfmt+0x260>
    80002668:	41a787b3          	sub	a5,a5,s10
    8000266c:	40f60dbb          	subw	s11,a2,a5
    80002670:	01b05963          	blez	s11,80002682 <vprintfmt+0x286>
    80002674:	2c81                	sext.w	s9,s9
    80002676:	3dfd                	addiw	s11,s11,-1
    80002678:	85a6                	mv	a1,s1
    8000267a:	8566                	mv	a0,s9
    8000267c:	9902                	jalr	s2
    8000267e:	fe0d9ce3          	bnez	s11,80002676 <vprintfmt+0x27a>
    80002682:	000d4503          	lbu	a0,0(s10)
    80002686:	da050ae3          	beqz	a0,8000243a <vprintfmt+0x3e>
    8000268a:	59fd                	li	s3,-1
    8000268c:	bf85                	j	800025fc <vprintfmt+0x200>
    8000268e:	fffdc793          	not	a5,s11
    80002692:	97fd                	srai	a5,a5,0x3f
    80002694:	00fdf7b3          	and	a5,s11,a5
    80002698:	00174683          	lbu	a3,1(a4)
    8000269c:	00078d9b          	sext.w	s11,a5
    800026a0:	8722                	mv	a4,s0
    800026a2:	bb55                	j	80002456 <vprintfmt+0x5a>
    800026a4:	000aa503          	lw	a0,0(s5)
    800026a8:	85a6                	mv	a1,s1
    800026aa:	0aa1                	addi	s5,s5,8
    800026ac:	9902                	jalr	s2
    800026ae:	b371                	j	8000243a <vprintfmt+0x3e>
    800026b0:	4c01                	li	s8,0
    800026b2:	b575                	j	8000255e <vprintfmt+0x162>
    800026b4:	000aa983          	lw	s3,0(s5)
    800026b8:	bded                	j	800025b2 <vprintfmt+0x1b6>
    800026ba:	46a9                	li	a3,10
    800026bc:	b739                	j	800025ca <vprintfmt+0x1ce>
    800026be:	46a1                	li	a3,8
    800026c0:	b729                	j	800025ca <vprintfmt+0x1ce>
    800026c2:	85a6                	mv	a1,s1
    800026c4:	02d00513          	li	a0,45
    800026c8:	9902                	jalr	s2
    800026ca:	8ae2                	mv	s5,s8
    800026cc:	413007b3          	neg	a5,s3
    800026d0:	46a9                	li	a3,10
    800026d2:	b595                	j	80002536 <vprintfmt+0x13a>
    800026d4:	8722                	mv	a4,s0
    800026d6:	bd29                	j	800024f0 <vprintfmt+0xf4>

00000000800026d8 <sprintf_putch.0>:
    800026d8:	619c                	ld	a5,0(a1)
    800026da:	00a78023          	sb	a0,0(a5)
    800026de:	619c                	ld	a5,0(a1)
    800026e0:	0785                	addi	a5,a5,1
    800026e2:	e19c                	sd	a5,0(a1)
    800026e4:	8082                	ret

00000000800026e6 <putchar>:
    800026e6:	04022803          	lw	a6,64(tp) # 40 <buflen.1>
    800026ea:	00020793          	mv	a5,tp
    800026ee:	97c2                	add	a5,a5,a6
    800026f0:	7159                	addi	sp,sp,-112
    800026f2:	0018069b          	addiw	a3,a6,1
    800026f6:	04d22023          	sw	a3,64(tp) # 40 <buflen.1>
    800026fa:	00a78023          	sb	a0,0(a5)
    800026fe:	03f10713          	addi	a4,sp,63
    80002702:	47a9                	li	a5,10
    80002704:	fc077713          	andi	a4,a4,-64
    80002708:	00f50963          	beq	a0,a5,8000271a <putchar+0x34>
    8000270c:	04000793          	li	a5,64
    80002710:	00f68563          	beq	a3,a5,8000271a <putchar+0x34>
    80002714:	4501                	li	a0,0
    80002716:	6165                	addi	sp,sp,112
    80002718:	8082                	ret
    8000271a:	04000793          	li	a5,64
    8000271e:	e31c                	sd	a5,0(a4)
    80002720:	4785                	li	a5,1
    80002722:	e71c                	sd	a5,8(a4)
    80002724:	00020613          	mv	a2,tp
    80002728:	eb10                	sd	a2,16(a4)
    8000272a:	ef14                	sd	a3,24(a4)
    8000272c:	0ff0000f          	fence
    80002730:	00000697          	auipc	a3,0x0
    80002734:	91068693          	addi	a3,a3,-1776 # 80002040 <fromhost>
    80002738:	00000797          	auipc	a5,0x0
    8000273c:	8ce7b423          	sd	a4,-1848(a5) # 80002000 <tohost>
    80002740:	629c                	ld	a5,0(a3)
    80002742:	dffd                	beqz	a5,80002740 <putchar+0x5a>
    80002744:	00000797          	auipc	a5,0x0
    80002748:	8e07be23          	sd	zero,-1796(a5) # 80002040 <fromhost>
    8000274c:	0ff0000f          	fence
    80002750:	04022023          	sw	zero,64(tp) # 40 <buflen.1>
    80002754:	631c                	ld	a5,0(a4)
    80002756:	4501                	li	a0,0
    80002758:	6165                	addi	sp,sp,112
    8000275a:	8082                	ret

000000008000275c <setStats>:
    8000275c:	b0002773          	csrr	a4,mcycle
    80002760:	8f818793          	addi	a5,gp,-1800 # 800101d8 <counters>
    80002764:	c511                	beqz	a0,80002770 <setStats+0x14>
    80002766:	e398                	sd	a4,0(a5)
    80002768:	b0202773          	csrr	a4,minstret
    8000276c:	e798                	sd	a4,8(a5)
    8000276e:	8082                	ret
    80002770:	6394                	ld	a3,0(a5)
    80002772:	0000b617          	auipc	a2,0xb
    80002776:	0de60613          	addi	a2,a2,222 # 8000d850 <_conv_stat+0x1f2>
    8000277a:	eb90                	sd	a2,16(a5)
    8000277c:	8f15                	sub	a4,a4,a3
    8000277e:	e398                	sd	a4,0(a5)
    80002780:	b0202773          	csrr	a4,minstret
    80002784:	6794                	ld	a3,8(a5)
    80002786:	0000b617          	auipc	a2,0xb
    8000278a:	0d260613          	addi	a2,a2,210 # 8000d858 <_conv_stat+0x1fa>
    8000278e:	ef90                	sd	a2,24(a5)
    80002790:	8f15                	sub	a4,a4,a3
    80002792:	e798                	sd	a4,8(a5)
    80002794:	8082                	ret

0000000080002796 <tohost_exit>:
    80002796:	00151793          	slli	a5,a0,0x1
    8000279a:	0017e793          	ori	a5,a5,1
    8000279e:	00000717          	auipc	a4,0x0
    800027a2:	86f73123          	sd	a5,-1950(a4) # 80002000 <tohost>
    800027a6:	a001                	j	800027a6 <tohost_exit+0x10>

00000000800027a8 <handle_trap>:
    800027a8:	6785                	lui	a5,0x1
    800027aa:	a7378793          	addi	a5,a5,-1421 # a73 <_tbss_end+0xa2f>
    800027ae:	00000717          	auipc	a4,0x0
    800027b2:	84f73923          	sd	a5,-1966(a4) # 80002000 <tohost>
    800027b6:	a001                	j	800027b6 <handle_trap+0xe>

00000000800027b8 <exit>:
    800027b8:	1141                	addi	sp,sp,-16
    800027ba:	e406                	sd	ra,8(sp)
    800027bc:	fdbff0ef          	jal	ra,80002796 <tohost_exit>

00000000800027c0 <abort>:
    800027c0:	10d00793          	li	a5,269
    800027c4:	00000717          	auipc	a4,0x0
    800027c8:	82f73e23          	sd	a5,-1988(a4) # 80002000 <tohost>
    800027cc:	a001                	j	800027cc <abort+0xc>

00000000800027ce <printstr>:
    800027ce:	00054783          	lbu	a5,0(a0)
    800027d2:	7159                	addi	sp,sp,-112
    800027d4:	03f10693          	addi	a3,sp,63
    800027d8:	fc06f693          	andi	a3,a3,-64
    800027dc:	c3b9                	beqz	a5,80002822 <printstr+0x54>
    800027de:	87aa                	mv	a5,a0
    800027e0:	0017c703          	lbu	a4,1(a5)
    800027e4:	0785                	addi	a5,a5,1
    800027e6:	ff6d                	bnez	a4,800027e0 <printstr+0x12>
    800027e8:	8f89                	sub	a5,a5,a0
    800027ea:	04000713          	li	a4,64
    800027ee:	e298                	sd	a4,0(a3)
    800027f0:	4705                	li	a4,1
    800027f2:	e698                	sd	a4,8(a3)
    800027f4:	ea88                	sd	a0,16(a3)
    800027f6:	ee9c                	sd	a5,24(a3)
    800027f8:	0ff0000f          	fence
    800027fc:	00000717          	auipc	a4,0x0
    80002800:	84470713          	addi	a4,a4,-1980 # 80002040 <fromhost>
    80002804:	fffff797          	auipc	a5,0xfffff
    80002808:	7ed7be23          	sd	a3,2044(a5) # 80002000 <tohost>
    8000280c:	631c                	ld	a5,0(a4)
    8000280e:	dffd                	beqz	a5,8000280c <printstr+0x3e>
    80002810:	00000797          	auipc	a5,0x0
    80002814:	8207b823          	sd	zero,-2000(a5) # 80002040 <fromhost>
    80002818:	0ff0000f          	fence
    8000281c:	629c                	ld	a5,0(a3)
    8000281e:	6165                	addi	sp,sp,112
    80002820:	8082                	ret
    80002822:	4781                	li	a5,0
    80002824:	b7d9                	j	800027ea <printstr+0x1c>

0000000080002826 <thread_entry>:
    80002826:	e101                	bnez	a0,80002826 <thread_entry>
    80002828:	8082                	ret

000000008000282a <printhex>:
    8000282a:	7179                	addi	sp,sp,-48
    8000282c:	87aa                	mv	a5,a0
    8000282e:	f406                	sd	ra,40(sp)
    80002830:	0028                	addi	a0,sp,8
    80002832:	01710713          	addi	a4,sp,23
    80002836:	4825                	li	a6,9
    80002838:	a011                	j	8000283c <printhex+0x12>
    8000283a:	8736                	mv	a4,a3
    8000283c:	00f7f613          	andi	a2,a5,15
    80002840:	86b2                	mv	a3,a2
    80002842:	05700593          	li	a1,87
    80002846:	00c86463          	bltu	a6,a2,8000284e <printhex+0x24>
    8000284a:	03000593          	li	a1,48
    8000284e:	9ead                	addw	a3,a3,a1
    80002850:	00d70023          	sb	a3,0(a4)
    80002854:	8391                	srli	a5,a5,0x4
    80002856:	fff70693          	addi	a3,a4,-1
    8000285a:	fee510e3          	bne	a0,a4,8000283a <printhex+0x10>
    8000285e:	00010c23          	sb	zero,24(sp)
    80002862:	f6dff0ef          	jal	ra,800027ce <printstr>
    80002866:	70a2                	ld	ra,40(sp)
    80002868:	6145                	addi	sp,sp,48
    8000286a:	8082                	ret

000000008000286c <printf>:
    8000286c:	711d                	addi	sp,sp,-96
    8000286e:	02810313          	addi	t1,sp,40
    80002872:	8e2a                	mv	t3,a0
    80002874:	f42e                	sd	a1,40(sp)
    80002876:	f832                	sd	a2,48(sp)
    80002878:	fc36                	sd	a3,56(sp)
    8000287a:	00000517          	auipc	a0,0x0
    8000287e:	e6c50513          	addi	a0,a0,-404 # 800026e6 <putchar>
    80002882:	869a                	mv	a3,t1
    80002884:	8672                	mv	a2,t3
    80002886:	4581                	li	a1,0
    80002888:	ec06                	sd	ra,24(sp)
    8000288a:	e0ba                	sd	a4,64(sp)
    8000288c:	e4be                	sd	a5,72(sp)
    8000288e:	e8c2                	sd	a6,80(sp)
    80002890:	ecc6                	sd	a7,88(sp)
    80002892:	e41a                	sd	t1,8(sp)
    80002894:	b69ff0ef          	jal	ra,800023fc <vprintfmt>
    80002898:	60e2                	ld	ra,24(sp)
    8000289a:	4501                	li	a0,0
    8000289c:	6125                	addi	sp,sp,96
    8000289e:	8082                	ret

00000000800028a0 <sprintf>:
    800028a0:	711d                	addi	sp,sp,-96
    800028a2:	03010313          	addi	t1,sp,48
    800028a6:	f022                	sd	s0,32(sp)
    800028a8:	e42a                	sd	a0,8(sp)
    800028aa:	f832                	sd	a2,48(sp)
    800028ac:	fc36                	sd	a3,56(sp)
    800028ae:	842a                	mv	s0,a0
    800028b0:	862e                	mv	a2,a1
    800028b2:	00000517          	auipc	a0,0x0
    800028b6:	e2650513          	addi	a0,a0,-474 # 800026d8 <sprintf_putch.0>
    800028ba:	002c                	addi	a1,sp,8
    800028bc:	869a                	mv	a3,t1
    800028be:	f406                	sd	ra,40(sp)
    800028c0:	e4be                	sd	a5,72(sp)
    800028c2:	e0ba                	sd	a4,64(sp)
    800028c4:	e8c2                	sd	a6,80(sp)
    800028c6:	ecc6                	sd	a7,88(sp)
    800028c8:	ec1a                	sd	t1,24(sp)
    800028ca:	b33ff0ef          	jal	ra,800023fc <vprintfmt>
    800028ce:	67a2                	ld	a5,8(sp)
    800028d0:	00078023          	sb	zero,0(a5)
    800028d4:	6522                	ld	a0,8(sp)
    800028d6:	70a2                	ld	ra,40(sp)
    800028d8:	9d01                	subw	a0,a0,s0
    800028da:	7402                	ld	s0,32(sp)
    800028dc:	6125                	addi	sp,sp,96
    800028de:	8082                	ret

00000000800028e0 <memcpy>:
    800028e0:	00b567b3          	or	a5,a0,a1
    800028e4:	8fd1                	or	a5,a5,a2
    800028e6:	8b9d                	andi	a5,a5,7
    800028e8:	00c506b3          	add	a3,a0,a2
    800028ec:	cf91                	beqz	a5,80002908 <memcpy+0x28>
    800028ee:	962e                	add	a2,a2,a1
    800028f0:	87aa                	mv	a5,a0
    800028f2:	02d57663          	bgeu	a0,a3,8000291e <memcpy+0x3e>
    800028f6:	0005c703          	lbu	a4,0(a1)
    800028fa:	0585                	addi	a1,a1,1
    800028fc:	0785                	addi	a5,a5,1
    800028fe:	fee78fa3          	sb	a4,-1(a5)
    80002902:	feb61ae3          	bne	a2,a1,800028f6 <memcpy+0x16>
    80002906:	8082                	ret
    80002908:	fed57fe3          	bgeu	a0,a3,80002906 <memcpy+0x26>
    8000290c:	87aa                	mv	a5,a0
    8000290e:	6198                	ld	a4,0(a1)
    80002910:	07a1                	addi	a5,a5,8
    80002912:	05a1                	addi	a1,a1,8
    80002914:	fee7bc23          	sd	a4,-8(a5)
    80002918:	fed7ebe3          	bltu	a5,a3,8000290e <memcpy+0x2e>
    8000291c:	8082                	ret
    8000291e:	8082                	ret

0000000080002920 <memset>:
    80002920:	00c567b3          	or	a5,a0,a2
    80002924:	8b9d                	andi	a5,a5,7
    80002926:	962a                	add	a2,a2,a0
    80002928:	0ff5f713          	zext.b	a4,a1
    8000292c:	cb91                	beqz	a5,80002940 <memset+0x20>
    8000292e:	87aa                	mv	a5,a0
    80002930:	02c57763          	bgeu	a0,a2,8000295e <memset+0x3e>
    80002934:	0785                	addi	a5,a5,1
    80002936:	fee78fa3          	sb	a4,-1(a5)
    8000293a:	fec79de3          	bne	a5,a2,80002934 <memset+0x14>
    8000293e:	8082                	ret
    80002940:	0000d797          	auipc	a5,0xd
    80002944:	7c87b783          	ld	a5,1992(a5) # 80010108 <__global_locale+0x1d0>
    80002948:	02f70733          	mul	a4,a4,a5
    8000294c:	fec579e3          	bgeu	a0,a2,8000293e <memset+0x1e>
    80002950:	87aa                	mv	a5,a0
    80002952:	07a1                	addi	a5,a5,8
    80002954:	fee7bc23          	sd	a4,-8(a5)
    80002958:	fec7ede3          	bltu	a5,a2,80002952 <memset+0x32>
    8000295c:	8082                	ret
    8000295e:	8082                	ret

0000000080002960 <_init>:
    80002960:	7171                	addi	sp,sp,-176
    80002962:	f122                	sd	s0,160(sp)
    80002964:	ed26                	sd	s1,152(sp)
    80002966:	0000c417          	auipc	s0,0xc
    8000296a:	65243403          	ld	s0,1618(s0) # 8000efb8 <_GLOBAL_OFFSET_TABLE_+0x8>
    8000296e:	0000c497          	auipc	s1,0xc
    80002972:	6524b483          	ld	s1,1618(s1) # 8000efc0 <_GLOBAL_OFFSET_TABLE_+0x10>
    80002976:	e54e                	sd	s3,136(sp)
    80002978:	e152                	sd	s4,128(sp)
    8000297a:	409404b3          	sub	s1,s0,s1
    8000297e:	8626                	mv	a2,s1
    80002980:	89aa                	mv	s3,a0
    80002982:	8a2e                	mv	s4,a1
    80002984:	8512                	mv	a0,tp
    80002986:	96018593          	addi	a1,gp,-1696 # 80010240 <__malloc_start>
    8000298a:	f506                	sd	ra,168(sp)
    8000298c:	e94a                	sd	s2,144(sp)
    8000298e:	fcd6                	sd	s5,120(sp)
    80002990:	8a92                	mv	s5,tp
    80002992:	f4fff0ef          	jal	ra,800028e0 <memcpy>
    80002996:	0000c617          	auipc	a2,0xc
    8000299a:	63263603          	ld	a2,1586(a2) # 8000efc8 <_GLOBAL_OFFSET_TABLE_+0x18>
    8000299e:	4581                	li	a1,0
    800029a0:	009a8533          	add	a0,s5,s1
    800029a4:	8e01                	sub	a2,a2,s0
    800029a6:	f7bff0ef          	jal	ra,80002920 <memset>
    800029aa:	85d2                	mv	a1,s4
    800029ac:	854e                	mv	a0,s3
    800029ae:	e79ff0ef          	jal	ra,80002826 <thread_entry>
    800029b2:	4581                	li	a1,0
    800029b4:	4501                	li	a0,0
    800029b6:	5ce020ef          	jal	ra,80004f84 <main>
    800029ba:	8f818493          	addi	s1,gp,-1800 # 800101d8 <counters>
    800029be:	6094                	ld	a3,0(s1)
    800029c0:	03f10913          	addi	s2,sp,63
    800029c4:	fc097913          	andi	s2,s2,-64
    800029c8:	842a                	mv	s0,a0
    800029ca:	e695                	bnez	a3,800029f6 <_init+0x96>
    800029cc:	6494                	ld	a3,8(s1)
    800029ce:	e681                	bnez	a3,800029d6 <_init+0x76>
    800029d0:	8522                	mv	a0,s0
    800029d2:	dc5ff0ef          	jal	ra,80002796 <tohost_exit>
    800029d6:	89ca                	mv	s3,s2
    800029d8:	6c90                	ld	a2,24(s1)
    800029da:	854e                	mv	a0,s3
    800029dc:	0000b597          	auipc	a1,0xb
    800029e0:	ea458593          	addi	a1,a1,-348 # 8000d880 <_conv_stat+0x222>
    800029e4:	ebdff0ef          	jal	ra,800028a0 <sprintf>
    800029e8:	99aa                	add	s3,s3,a0
    800029ea:	ff3903e3          	beq	s2,s3,800029d0 <_init+0x70>
    800029ee:	854a                	mv	a0,s2
    800029f0:	ddfff0ef          	jal	ra,800027ce <printstr>
    800029f4:	bff1                	j	800029d0 <_init+0x70>
    800029f6:	6890                	ld	a2,16(s1)
    800029f8:	0000b597          	auipc	a1,0xb
    800029fc:	e8858593          	addi	a1,a1,-376 # 8000d880 <_conv_stat+0x222>
    80002a00:	854a                	mv	a0,s2
    80002a02:	e9fff0ef          	jal	ra,800028a0 <sprintf>
    80002a06:	6494                	ld	a3,8(s1)
    80002a08:	00a909b3          	add	s3,s2,a0
    80002a0c:	def9                	beqz	a3,800029ea <_init+0x8a>
    80002a0e:	b7e9                	j	800029d8 <_init+0x78>

0000000080002a10 <strlen>:
    80002a10:	00054783          	lbu	a5,0(a0)
    80002a14:	cb89                	beqz	a5,80002a26 <strlen+0x16>
    80002a16:	87aa                	mv	a5,a0
    80002a18:	0017c703          	lbu	a4,1(a5)
    80002a1c:	0785                	addi	a5,a5,1
    80002a1e:	ff6d                	bnez	a4,80002a18 <strlen+0x8>
    80002a20:	40a78533          	sub	a0,a5,a0
    80002a24:	8082                	ret
    80002a26:	4501                	li	a0,0
    80002a28:	8082                	ret

0000000080002a2a <strnlen>:
    80002a2a:	00b506b3          	add	a3,a0,a1
    80002a2e:	87aa                	mv	a5,a0
    80002a30:	e589                	bnez	a1,80002a3a <strnlen+0x10>
    80002a32:	a829                	j	80002a4c <strnlen+0x22>
    80002a34:	0785                	addi	a5,a5,1
    80002a36:	00f68863          	beq	a3,a5,80002a46 <strnlen+0x1c>
    80002a3a:	0007c703          	lbu	a4,0(a5)
    80002a3e:	fb7d                	bnez	a4,80002a34 <strnlen+0xa>
    80002a40:	40a78533          	sub	a0,a5,a0
    80002a44:	8082                	ret
    80002a46:	40a68533          	sub	a0,a3,a0
    80002a4a:	8082                	ret
    80002a4c:	4501                	li	a0,0
    80002a4e:	8082                	ret

0000000080002a50 <strcmp>:
    80002a50:	00054783          	lbu	a5,0(a0)
    80002a54:	0585                	addi	a1,a1,1
    80002a56:	0505                	addi	a0,a0,1
    80002a58:	fff5c703          	lbu	a4,-1(a1)
    80002a5c:	c799                	beqz	a5,80002a6a <strcmp+0x1a>
    80002a5e:	fee789e3          	beq	a5,a4,80002a50 <strcmp>
    80002a62:	0007851b          	sext.w	a0,a5
    80002a66:	9d19                	subw	a0,a0,a4
    80002a68:	8082                	ret
    80002a6a:	4501                	li	a0,0
    80002a6c:	bfed                	j	80002a66 <strcmp+0x16>

0000000080002a6e <strcpy>:
    80002a6e:	87aa                	mv	a5,a0
    80002a70:	0005c703          	lbu	a4,0(a1)
    80002a74:	0785                	addi	a5,a5,1
    80002a76:	0585                	addi	a1,a1,1
    80002a78:	fee78fa3          	sb	a4,-1(a5)
    80002a7c:	fb75                	bnez	a4,80002a70 <strcpy+0x2>
    80002a7e:	8082                	ret

0000000080002a80 <atol>:
    80002a80:	00054703          	lbu	a4,0(a0)
    80002a84:	02000693          	li	a3,32
    80002a88:	87aa                	mv	a5,a0
    80002a8a:	00d71763          	bne	a4,a3,80002a98 <atol+0x18>
    80002a8e:	0017c703          	lbu	a4,1(a5)
    80002a92:	0785                	addi	a5,a5,1
    80002a94:	fed70de3          	beq	a4,a3,80002a8e <atol+0xe>
    80002a98:	02d00693          	li	a3,45
    80002a9c:	04d70263          	beq	a4,a3,80002ae0 <atol+0x60>
    80002aa0:	02b00693          	li	a3,43
    80002aa4:	02d70763          	beq	a4,a3,80002ad2 <atol+0x52>
    80002aa8:	0007c683          	lbu	a3,0(a5)
    80002aac:	4581                	li	a1,0
    80002aae:	c69d                	beqz	a3,80002adc <atol+0x5c>
    80002ab0:	4501                	li	a0,0
    80002ab2:	0785                	addi	a5,a5,1
    80002ab4:	00251713          	slli	a4,a0,0x2
    80002ab8:	fd06861b          	addiw	a2,a3,-48
    80002abc:	0007c683          	lbu	a3,0(a5)
    80002ac0:	972a                	add	a4,a4,a0
    80002ac2:	0706                	slli	a4,a4,0x1
    80002ac4:	00e60533          	add	a0,a2,a4
    80002ac8:	f6ed                	bnez	a3,80002ab2 <atol+0x32>
    80002aca:	c991                	beqz	a1,80002ade <atol+0x5e>
    80002acc:	40a00533          	neg	a0,a0
    80002ad0:	8082                	ret
    80002ad2:	0017c683          	lbu	a3,1(a5)
    80002ad6:	4581                	li	a1,0
    80002ad8:	0785                	addi	a5,a5,1
    80002ada:	faf9                	bnez	a3,80002ab0 <atol+0x30>
    80002adc:	4501                	li	a0,0
    80002ade:	8082                	ret
    80002ae0:	0017c683          	lbu	a3,1(a5)
    80002ae4:	4585                	li	a1,1
    80002ae6:	0785                	addi	a5,a5,1
    80002ae8:	f6e1                	bnez	a3,80002ab0 <atol+0x30>
    80002aea:	4501                	li	a0,0
    80002aec:	bfcd                	j	80002ade <atol+0x5e>

0000000080002aee <_ZSt13__adjust_heapIPflfN9__gnu_cxx5__ops15_Iter_less_iterEEvT_T0_S5_T1_T2_.isra.0>:
    80002aee:	fff60793          	addi	a5,a2,-1
    80002af2:	03f7d893          	srli	a7,a5,0x3f
    80002af6:	98be                	add	a7,a7,a5
    80002af8:	4018d893          	srai	a7,a7,0x1
    80002afc:	00167313          	andi	t1,a2,1
    80002b00:	0915d563          	bge	a1,a7,80002b8a <_ZSt13__adjust_heapIPflfN9__gnu_cxx5__ops15_Iter_less_iterEEvT_T0_S5_T1_T2_.isra.0+0x9c>
    80002b04:	86ae                	mv	a3,a1
    80002b06:	00168793          	addi	a5,a3,1
    80002b0a:	00379713          	slli	a4,a5,0x3
    80002b0e:	972a                	add	a4,a4,a0
    80002b10:	00072787          	flw	fa5,0(a4)
    80002b14:	ffc72707          	flw	fa4,-4(a4)
    80002b18:	068a                	slli	a3,a3,0x2
    80002b1a:	00d50833          	add	a6,a0,a3
    80002b1e:	a0e796d3          	flt.s	a3,fa5,fa4
    80002b22:	0786                	slli	a5,a5,0x1
    80002b24:	c699                	beqz	a3,80002b32 <_ZSt13__adjust_heapIPflfN9__gnu_cxx5__ops15_Iter_less_iterEEvT_T0_S5_T1_T2_.isra.0+0x44>
    80002b26:	17fd                	addi	a5,a5,-1
    80002b28:	00279713          	slli	a4,a5,0x2
    80002b2c:	972a                	add	a4,a4,a0
    80002b2e:	00072787          	flw	fa5,0(a4)
    80002b32:	00f82027          	fsw	fa5,0(a6)
    80002b36:	86be                	mv	a3,a5
    80002b38:	fd17c7e3          	blt	a5,a7,80002b06 <_ZSt13__adjust_heapIPflfN9__gnu_cxx5__ops15_Iter_less_iterEEvT_T0_S5_T1_T2_.isra.0+0x18>
    80002b3c:	04030d63          	beqz	t1,80002b96 <_ZSt13__adjust_heapIPflfN9__gnu_cxx5__ops15_Iter_less_iterEEvT_T0_S5_T1_T2_.isra.0+0xa8>
    80002b40:	fff78693          	addi	a3,a5,-1
    80002b44:	03f6d613          	srli	a2,a3,0x3f
    80002b48:	9636                	add	a2,a2,a3
    80002b4a:	8605                	srai	a2,a2,0x1
    80002b4c:	00f5cb63          	blt	a1,a5,80002b62 <_ZSt13__adjust_heapIPflfN9__gnu_cxx5__ops15_Iter_less_iterEEvT_T0_S5_T1_T2_.isra.0+0x74>
    80002b50:	a815                	j	80002b84 <_ZSt13__adjust_heapIPflfN9__gnu_cxx5__ops15_Iter_less_iterEEvT_T0_S5_T1_T2_.isra.0+0x96>
    80002b52:	00f72027          	fsw	fa5,0(a4)
    80002b56:	87b2                	mv	a5,a2
    80002b58:	4016d713          	srai	a4,a3,0x1
    80002b5c:	06c5d363          	bge	a1,a2,80002bc2 <_ZSt13__adjust_heapIPflfN9__gnu_cxx5__ops15_Iter_less_iterEEvT_T0_S5_T1_T2_.isra.0+0xd4>
    80002b60:	863a                	mv	a2,a4
    80002b62:	00261813          	slli	a6,a2,0x2
    80002b66:	982a                	add	a6,a6,a0
    80002b68:	00082787          	flw	fa5,0(a6)
    80002b6c:	fff60693          	addi	a3,a2,-1
    80002b70:	03f6d713          	srli	a4,a3,0x3f
    80002b74:	a0a798d3          	flt.s	a7,fa5,fa0
    80002b78:	078a                	slli	a5,a5,0x2
    80002b7a:	96ba                	add	a3,a3,a4
    80002b7c:	00f50733          	add	a4,a0,a5
    80002b80:	fc0899e3          	bnez	a7,80002b52 <_ZSt13__adjust_heapIPflfN9__gnu_cxx5__ops15_Iter_less_iterEEvT_T0_S5_T1_T2_.isra.0+0x64>
    80002b84:	00a72027          	fsw	fa0,0(a4)
    80002b88:	8082                	ret
    80002b8a:	00259713          	slli	a4,a1,0x2
    80002b8e:	972a                	add	a4,a4,a0
    80002b90:	fe031ae3          	bnez	t1,80002b84 <_ZSt13__adjust_heapIPflfN9__gnu_cxx5__ops15_Iter_less_iterEEvT_T0_S5_T1_T2_.isra.0+0x96>
    80002b94:	87ae                	mv	a5,a1
    80002b96:	1679                	addi	a2,a2,-2
    80002b98:	03f65693          	srli	a3,a2,0x3f
    80002b9c:	96b2                	add	a3,a3,a2
    80002b9e:	8685                	srai	a3,a3,0x1
    80002ba0:	fad790e3          	bne	a5,a3,80002b40 <_ZSt13__adjust_heapIPflfN9__gnu_cxx5__ops15_Iter_less_iterEEvT_T0_S5_T1_T2_.isra.0+0x52>
    80002ba4:	0785                	addi	a5,a5,1
    80002ba6:	00379693          	slli	a3,a5,0x3
    80002baa:	96aa                	add	a3,a3,a0
    80002bac:	ffc6a787          	flw	fa5,-4(a3)
    80002bb0:	0786                	slli	a5,a5,0x1
    80002bb2:	17fd                	addi	a5,a5,-1
    80002bb4:	00279693          	slli	a3,a5,0x2
    80002bb8:	00f72027          	fsw	fa5,0(a4)
    80002bbc:	00d50733          	add	a4,a0,a3
    80002bc0:	b741                	j	80002b40 <_ZSt13__adjust_heapIPflfN9__gnu_cxx5__ops15_Iter_less_iterEEvT_T0_S5_T1_T2_.isra.0+0x52>
    80002bc2:	8742                	mv	a4,a6
    80002bc4:	00a72027          	fsw	fa0,0(a4)
    80002bc8:	8082                	ret

0000000080002bca <_ZSt13__adjust_heapIPdldN9__gnu_cxx5__ops15_Iter_less_iterEEvT_T0_S5_T1_T2_.isra.0>:
    80002bca:	fff60793          	addi	a5,a2,-1
    80002bce:	03f7d893          	srli	a7,a5,0x3f
    80002bd2:	98be                	add	a7,a7,a5
    80002bd4:	4018d893          	srai	a7,a7,0x1
    80002bd8:	00167313          	andi	t1,a2,1
    80002bdc:	0915d163          	bge	a1,a7,80002c5e <_ZSt13__adjust_heapIPdldN9__gnu_cxx5__ops15_Iter_less_iterEEvT_T0_S5_T1_T2_.isra.0+0x94>
    80002be0:	86ae                	mv	a3,a1
    80002be2:	00168793          	addi	a5,a3,1
    80002be6:	00479713          	slli	a4,a5,0x4
    80002bea:	972a                	add	a4,a4,a0
    80002bec:	231c                	fld	fa5,0(a4)
    80002bee:	ff873707          	fld	fa4,-8(a4)
    80002bf2:	068e                	slli	a3,a3,0x3
    80002bf4:	00d50833          	add	a6,a0,a3
    80002bf8:	a2e796d3          	flt.d	a3,fa5,fa4
    80002bfc:	0786                	slli	a5,a5,0x1
    80002bfe:	c691                	beqz	a3,80002c0a <_ZSt13__adjust_heapIPdldN9__gnu_cxx5__ops15_Iter_less_iterEEvT_T0_S5_T1_T2_.isra.0+0x40>
    80002c00:	17fd                	addi	a5,a5,-1
    80002c02:	00379713          	slli	a4,a5,0x3
    80002c06:	972a                	add	a4,a4,a0
    80002c08:	231c                	fld	fa5,0(a4)
    80002c0a:	00f83027          	fsd	fa5,0(a6)
    80002c0e:	86be                	mv	a3,a5
    80002c10:	fd17c9e3          	blt	a5,a7,80002be2 <_ZSt13__adjust_heapIPdldN9__gnu_cxx5__ops15_Iter_less_iterEEvT_T0_S5_T1_T2_.isra.0+0x18>
    80002c14:	04030b63          	beqz	t1,80002c6a <_ZSt13__adjust_heapIPdldN9__gnu_cxx5__ops15_Iter_less_iterEEvT_T0_S5_T1_T2_.isra.0+0xa0>
    80002c18:	fff78693          	addi	a3,a5,-1
    80002c1c:	03f6d613          	srli	a2,a3,0x3f
    80002c20:	9636                	add	a2,a2,a3
    80002c22:	8605                	srai	a2,a2,0x1
    80002c24:	00f5ca63          	blt	a1,a5,80002c38 <_ZSt13__adjust_heapIPdldN9__gnu_cxx5__ops15_Iter_less_iterEEvT_T0_S5_T1_T2_.isra.0+0x6e>
    80002c28:	a80d                	j	80002c5a <_ZSt13__adjust_heapIPdldN9__gnu_cxx5__ops15_Iter_less_iterEEvT_T0_S5_T1_T2_.isra.0+0x90>
    80002c2a:	a31c                	fsd	fa5,0(a4)
    80002c2c:	87b2                	mv	a5,a2
    80002c2e:	4016d713          	srai	a4,a3,0x1
    80002c32:	06c5d163          	bge	a1,a2,80002c94 <_ZSt13__adjust_heapIPdldN9__gnu_cxx5__ops15_Iter_less_iterEEvT_T0_S5_T1_T2_.isra.0+0xca>
    80002c36:	863a                	mv	a2,a4
    80002c38:	00361813          	slli	a6,a2,0x3
    80002c3c:	982a                	add	a6,a6,a0
    80002c3e:	00083787          	fld	fa5,0(a6)
    80002c42:	fff60693          	addi	a3,a2,-1
    80002c46:	03f6d713          	srli	a4,a3,0x3f
    80002c4a:	a2a798d3          	flt.d	a7,fa5,fa0
    80002c4e:	078e                	slli	a5,a5,0x3
    80002c50:	96ba                	add	a3,a3,a4
    80002c52:	00f50733          	add	a4,a0,a5
    80002c56:	fc089ae3          	bnez	a7,80002c2a <_ZSt13__adjust_heapIPdldN9__gnu_cxx5__ops15_Iter_less_iterEEvT_T0_S5_T1_T2_.isra.0+0x60>
    80002c5a:	a308                	fsd	fa0,0(a4)
    80002c5c:	8082                	ret
    80002c5e:	00359713          	slli	a4,a1,0x3
    80002c62:	972a                	add	a4,a4,a0
    80002c64:	fe031be3          	bnez	t1,80002c5a <_ZSt13__adjust_heapIPdldN9__gnu_cxx5__ops15_Iter_less_iterEEvT_T0_S5_T1_T2_.isra.0+0x90>
    80002c68:	87ae                	mv	a5,a1
    80002c6a:	1679                	addi	a2,a2,-2
    80002c6c:	03f65693          	srli	a3,a2,0x3f
    80002c70:	96b2                	add	a3,a3,a2
    80002c72:	8685                	srai	a3,a3,0x1
    80002c74:	fad792e3          	bne	a5,a3,80002c18 <_ZSt13__adjust_heapIPdldN9__gnu_cxx5__ops15_Iter_less_iterEEvT_T0_S5_T1_T2_.isra.0+0x4e>
    80002c78:	0785                	addi	a5,a5,1
    80002c7a:	00479693          	slli	a3,a5,0x4
    80002c7e:	96aa                	add	a3,a3,a0
    80002c80:	ff86b787          	fld	fa5,-8(a3)
    80002c84:	0786                	slli	a5,a5,0x1
    80002c86:	17fd                	addi	a5,a5,-1
    80002c88:	00379693          	slli	a3,a5,0x3
    80002c8c:	a31c                	fsd	fa5,0(a4)
    80002c8e:	00d50733          	add	a4,a0,a3
    80002c92:	b759                	j	80002c18 <_ZSt13__adjust_heapIPdldN9__gnu_cxx5__ops15_Iter_less_iterEEvT_T0_S5_T1_T2_.isra.0+0x4e>
    80002c94:	8742                	mv	a4,a6
    80002c96:	a308                	fsd	fa0,0(a4)
    80002c98:	8082                	ret

0000000080002c9a <_ZSt13__adjust_heapIPlllN9__gnu_cxx5__ops15_Iter_less_iterEEvT_T0_S5_T1_T2_.isra.0>:
    80002c9a:	fff60793          	addi	a5,a2,-1
    80002c9e:	03f7de13          	srli	t3,a5,0x3f
    80002ca2:	9e3e                	add	t3,t3,a5
    80002ca4:	401e5e13          	srai	t3,t3,0x1
    80002ca8:	00167e93          	andi	t4,a2,1
    80002cac:	09c5d363          	bge	a1,t3,80002d32 <_ZSt13__adjust_heapIPlllN9__gnu_cxx5__ops15_Iter_less_iterEEvT_T0_S5_T1_T2_.isra.0+0x98>
    80002cb0:	872e                	mv	a4,a1
    80002cb2:	00170793          	addi	a5,a4,1
    80002cb6:	00479813          	slli	a6,a5,0x4
    80002cba:	01050f33          	add	t5,a0,a6
    80002cbe:	000f3803          	ld	a6,0(t5)
    80002cc2:	ff8f3303          	ld	t1,-8(t5)
    80002cc6:	070e                	slli	a4,a4,0x3
    80002cc8:	00e508b3          	add	a7,a0,a4
    80002ccc:	0786                	slli	a5,a5,0x1
    80002cce:	00685963          	bge	a6,t1,80002ce0 <_ZSt13__adjust_heapIPlllN9__gnu_cxx5__ops15_Iter_less_iterEEvT_T0_S5_T1_T2_.isra.0+0x46>
    80002cd2:	17fd                	addi	a5,a5,-1
    80002cd4:	00379813          	slli	a6,a5,0x3
    80002cd8:	01050f33          	add	t5,a0,a6
    80002cdc:	000f3803          	ld	a6,0(t5)
    80002ce0:	0108b023          	sd	a6,0(a7)
    80002ce4:	873e                	mv	a4,a5
    80002ce6:	fdc7c6e3          	blt	a5,t3,80002cb2 <_ZSt13__adjust_heapIPlllN9__gnu_cxx5__ops15_Iter_less_iterEEvT_T0_S5_T1_T2_.isra.0+0x18>
    80002cea:	040e8b63          	beqz	t4,80002d40 <_ZSt13__adjust_heapIPlllN9__gnu_cxx5__ops15_Iter_less_iterEEvT_T0_S5_T1_T2_.isra.0+0xa6>
    80002cee:	fff78713          	addi	a4,a5,-1
    80002cf2:	03f75613          	srli	a2,a4,0x3f
    80002cf6:	963a                	add	a2,a2,a4
    80002cf8:	8605                	srai	a2,a2,0x1
    80002cfa:	00f5ca63          	blt	a1,a5,80002d0e <_ZSt13__adjust_heapIPlllN9__gnu_cxx5__ops15_Iter_less_iterEEvT_T0_S5_T1_T2_.isra.0+0x74>
    80002cfe:	a03d                	j	80002d2c <_ZSt13__adjust_heapIPlllN9__gnu_cxx5__ops15_Iter_less_iterEEvT_T0_S5_T1_T2_.isra.0+0x92>
    80002d00:	006f3023          	sd	t1,0(t5)
    80002d04:	8705                	srai	a4,a4,0x1
    80002d06:	87b2                	mv	a5,a2
    80002d08:	06c5d263          	bge	a1,a2,80002d6c <_ZSt13__adjust_heapIPlllN9__gnu_cxx5__ops15_Iter_less_iterEEvT_T0_S5_T1_T2_.isra.0+0xd2>
    80002d0c:	863a                	mv	a2,a4
    80002d0e:	00361813          	slli	a6,a2,0x3
    80002d12:	982a                	add	a6,a6,a0
    80002d14:	00083303          	ld	t1,0(a6)
    80002d18:	fff60893          	addi	a7,a2,-1
    80002d1c:	03f8d713          	srli	a4,a7,0x3f
    80002d20:	078e                	slli	a5,a5,0x3
    80002d22:	9746                	add	a4,a4,a7
    80002d24:	00f50f33          	add	t5,a0,a5
    80002d28:	fcd34ce3          	blt	t1,a3,80002d00 <_ZSt13__adjust_heapIPlllN9__gnu_cxx5__ops15_Iter_less_iterEEvT_T0_S5_T1_T2_.isra.0+0x66>
    80002d2c:	00df3023          	sd	a3,0(t5)
    80002d30:	8082                	ret
    80002d32:	00359813          	slli	a6,a1,0x3
    80002d36:	01050f33          	add	t5,a0,a6
    80002d3a:	fe0e99e3          	bnez	t4,80002d2c <_ZSt13__adjust_heapIPlllN9__gnu_cxx5__ops15_Iter_less_iterEEvT_T0_S5_T1_T2_.isra.0+0x92>
    80002d3e:	87ae                	mv	a5,a1
    80002d40:	1679                	addi	a2,a2,-2
    80002d42:	03f65713          	srli	a4,a2,0x3f
    80002d46:	9732                	add	a4,a4,a2
    80002d48:	8705                	srai	a4,a4,0x1
    80002d4a:	faf712e3          	bne	a4,a5,80002cee <_ZSt13__adjust_heapIPlllN9__gnu_cxx5__ops15_Iter_less_iterEEvT_T0_S5_T1_T2_.isra.0+0x54>
    80002d4e:	0785                	addi	a5,a5,1
    80002d50:	00479713          	slli	a4,a5,0x4
    80002d54:	972a                	add	a4,a4,a0
    80002d56:	ff873603          	ld	a2,-8(a4)
    80002d5a:	0786                	slli	a5,a5,0x1
    80002d5c:	17fd                	addi	a5,a5,-1
    80002d5e:	00379713          	slli	a4,a5,0x3
    80002d62:	00cf3023          	sd	a2,0(t5)
    80002d66:	00e50f33          	add	t5,a0,a4
    80002d6a:	b751                	j	80002cee <_ZSt13__adjust_heapIPlllN9__gnu_cxx5__ops15_Iter_less_iterEEvT_T0_S5_T1_T2_.isra.0+0x54>
    80002d6c:	8f42                	mv	t5,a6
    80002d6e:	00df3023          	sd	a3,0(t5)
    80002d72:	8082                	ret

0000000080002d74 <_ZSt16__insertion_sortIPfN9__gnu_cxx5__ops15_Iter_less_iterEEvT_S4_T0_.isra.0>:
    80002d74:	08b50163          	beq	a0,a1,80002df6 <_ZSt16__insertion_sortIPfN9__gnu_cxx5__ops15_Iter_less_iterEEvT_S4_T0_.isra.0+0x82>
    80002d78:	7139                	addi	sp,sp,-64
    80002d7a:	f822                	sd	s0,48(sp)
    80002d7c:	f426                	sd	s1,40(sp)
    80002d7e:	f04a                	sd	s2,32(sp)
    80002d80:	fc06                	sd	ra,56(sp)
    80002d82:	ec4e                	sd	s3,24(sp)
    80002d84:	a422                	fsd	fs0,8(sp)
    80002d86:	00450413          	addi	s0,a0,4
    80002d8a:	84aa                	mv	s1,a0
    80002d8c:	892e                	mv	s2,a1
    80002d8e:	02858963          	beq	a1,s0,80002dc0 <_ZSt16__insertion_sortIPfN9__gnu_cxx5__ops15_Iter_less_iterEEvT_S4_T0_.isra.0+0x4c>
    80002d92:	4991                	li	s3,4
    80002d94:	00042407          	flw	fs0,0(s0)
    80002d98:	0004a787          	flw	fa5,0(s1)
    80002d9c:	86a2                	mv	a3,s0
    80002d9e:	a0f417d3          	flt.s	a5,fs0,fa5
    80002da2:	c79d                	beqz	a5,80002dd0 <_ZSt16__insertion_sortIPfN9__gnu_cxx5__ops15_Iter_less_iterEEvT_S4_T0_.isra.0+0x5c>
    80002da4:	00848963          	beq	s1,s0,80002db6 <_ZSt16__insertion_sortIPfN9__gnu_cxx5__ops15_Iter_less_iterEEvT_S4_T0_.isra.0+0x42>
    80002da8:	40940633          	sub	a2,s0,s1
    80002dac:	85a6                	mv	a1,s1
    80002dae:	01348533          	add	a0,s1,s3
    80002db2:	72f020ef          	jal	ra,80005ce0 <memmove>
    80002db6:	0084a027          	fsw	fs0,0(s1)
    80002dba:	0411                	addi	s0,s0,4
    80002dbc:	fc891ce3          	bne	s2,s0,80002d94 <_ZSt16__insertion_sortIPfN9__gnu_cxx5__ops15_Iter_less_iterEEvT_S4_T0_.isra.0+0x20>
    80002dc0:	70e2                	ld	ra,56(sp)
    80002dc2:	7442                	ld	s0,48(sp)
    80002dc4:	74a2                	ld	s1,40(sp)
    80002dc6:	7902                	ld	s2,32(sp)
    80002dc8:	69e2                	ld	s3,24(sp)
    80002dca:	2422                	fld	fs0,8(sp)
    80002dcc:	6121                	addi	sp,sp,64
    80002dce:	8082                	ret
    80002dd0:	ffc42787          	flw	fa5,-4(s0)
    80002dd4:	ffc40793          	addi	a5,s0,-4
    80002dd8:	a0f41753          	flt.s	a4,fs0,fa5
    80002ddc:	cb11                	beqz	a4,80002df0 <_ZSt16__insertion_sortIPfN9__gnu_cxx5__ops15_Iter_less_iterEEvT_S4_T0_.isra.0+0x7c>
    80002dde:	00f7a227          	fsw	fa5,4(a5)
    80002de2:	ffc7a787          	flw	fa5,-4(a5)
    80002de6:	86be                	mv	a3,a5
    80002de8:	17f1                	addi	a5,a5,-4
    80002dea:	a0f41753          	flt.s	a4,fs0,fa5
    80002dee:	fb65                	bnez	a4,80002dde <_ZSt16__insertion_sortIPfN9__gnu_cxx5__ops15_Iter_less_iterEEvT_S4_T0_.isra.0+0x6a>
    80002df0:	0086a027          	fsw	fs0,0(a3)
    80002df4:	b7d9                	j	80002dba <_ZSt16__insertion_sortIPfN9__gnu_cxx5__ops15_Iter_less_iterEEvT_S4_T0_.isra.0+0x46>
    80002df6:	8082                	ret

0000000080002df8 <_ZSt16__insertion_sortIPdN9__gnu_cxx5__ops15_Iter_less_iterEEvT_S4_T0_.isra.0>:
    80002df8:	06b50c63          	beq	a0,a1,80002e70 <_ZSt16__insertion_sortIPdN9__gnu_cxx5__ops15_Iter_less_iterEEvT_S4_T0_.isra.0+0x78>
    80002dfc:	7139                	addi	sp,sp,-64
    80002dfe:	f822                	sd	s0,48(sp)
    80002e00:	f426                	sd	s1,40(sp)
    80002e02:	f04a                	sd	s2,32(sp)
    80002e04:	fc06                	sd	ra,56(sp)
    80002e06:	ec4e                	sd	s3,24(sp)
    80002e08:	a422                	fsd	fs0,8(sp)
    80002e0a:	00850413          	addi	s0,a0,8
    80002e0e:	84aa                	mv	s1,a0
    80002e10:	892e                	mv	s2,a1
    80002e12:	02858663          	beq	a1,s0,80002e3e <_ZSt16__insertion_sortIPdN9__gnu_cxx5__ops15_Iter_less_iterEEvT_S4_T0_.isra.0+0x46>
    80002e16:	49a1                	li	s3,8
    80002e18:	2000                	fld	fs0,0(s0)
    80002e1a:	209c                	fld	fa5,0(s1)
    80002e1c:	86a2                	mv	a3,s0
    80002e1e:	a2f417d3          	flt.d	a5,fs0,fa5
    80002e22:	c795                	beqz	a5,80002e4e <_ZSt16__insertion_sortIPdN9__gnu_cxx5__ops15_Iter_less_iterEEvT_S4_T0_.isra.0+0x56>
    80002e24:	00848963          	beq	s1,s0,80002e36 <_ZSt16__insertion_sortIPdN9__gnu_cxx5__ops15_Iter_less_iterEEvT_S4_T0_.isra.0+0x3e>
    80002e28:	40940633          	sub	a2,s0,s1
    80002e2c:	85a6                	mv	a1,s1
    80002e2e:	01348533          	add	a0,s1,s3
    80002e32:	6af020ef          	jal	ra,80005ce0 <memmove>
    80002e36:	a080                	fsd	fs0,0(s1)
    80002e38:	0421                	addi	s0,s0,8
    80002e3a:	fc891fe3          	bne	s2,s0,80002e18 <_ZSt16__insertion_sortIPdN9__gnu_cxx5__ops15_Iter_less_iterEEvT_S4_T0_.isra.0+0x20>
    80002e3e:	70e2                	ld	ra,56(sp)
    80002e40:	7442                	ld	s0,48(sp)
    80002e42:	74a2                	ld	s1,40(sp)
    80002e44:	7902                	ld	s2,32(sp)
    80002e46:	69e2                	ld	s3,24(sp)
    80002e48:	2422                	fld	fs0,8(sp)
    80002e4a:	6121                	addi	sp,sp,64
    80002e4c:	8082                	ret
    80002e4e:	ff843787          	fld	fa5,-8(s0)
    80002e52:	ff840793          	addi	a5,s0,-8
    80002e56:	a2f41753          	flt.d	a4,fs0,fa5
    80002e5a:	cb09                	beqz	a4,80002e6c <_ZSt16__insertion_sortIPdN9__gnu_cxx5__ops15_Iter_less_iterEEvT_S4_T0_.isra.0+0x74>
    80002e5c:	a79c                	fsd	fa5,8(a5)
    80002e5e:	ff87b787          	fld	fa5,-8(a5)
    80002e62:	86be                	mv	a3,a5
    80002e64:	17e1                	addi	a5,a5,-8
    80002e66:	a2f41753          	flt.d	a4,fs0,fa5
    80002e6a:	fb6d                	bnez	a4,80002e5c <_ZSt16__insertion_sortIPdN9__gnu_cxx5__ops15_Iter_less_iterEEvT_S4_T0_.isra.0+0x64>
    80002e6c:	a280                	fsd	fs0,0(a3)
    80002e6e:	b7e9                	j	80002e38 <_ZSt16__insertion_sortIPdN9__gnu_cxx5__ops15_Iter_less_iterEEvT_S4_T0_.isra.0+0x40>
    80002e70:	8082                	ret

0000000080002e72 <_ZSt16__insertion_sortIPlN9__gnu_cxx5__ops15_Iter_less_iterEEvT_S4_T0_.isra.0>:
    80002e72:	06b50b63          	beq	a0,a1,80002ee8 <_ZSt16__insertion_sortIPlN9__gnu_cxx5__ops15_Iter_less_iterEEvT_S4_T0_.isra.0+0x76>
    80002e76:	7179                	addi	sp,sp,-48
    80002e78:	f022                	sd	s0,32(sp)
    80002e7a:	e84a                	sd	s2,16(sp)
    80002e7c:	e44e                	sd	s3,8(sp)
    80002e7e:	f406                	sd	ra,40(sp)
    80002e80:	ec26                	sd	s1,24(sp)
    80002e82:	e052                	sd	s4,0(sp)
    80002e84:	00850413          	addi	s0,a0,8
    80002e88:	892a                	mv	s2,a0
    80002e8a:	89ae                	mv	s3,a1
    80002e8c:	02858763          	beq	a1,s0,80002eba <_ZSt16__insertion_sortIPlN9__gnu_cxx5__ops15_Iter_less_iterEEvT_S4_T0_.isra.0+0x48>
    80002e90:	4a21                	li	s4,8
    80002e92:	6004                	ld	s1,0(s0)
    80002e94:	00093783          	ld	a5,0(s2)
    80002e98:	86a2                	mv	a3,s0
    80002e9a:	02f4d863          	bge	s1,a5,80002eca <_ZSt16__insertion_sortIPlN9__gnu_cxx5__ops15_Iter_less_iterEEvT_S4_T0_.isra.0+0x58>
    80002e9e:	00890963          	beq	s2,s0,80002eb0 <_ZSt16__insertion_sortIPlN9__gnu_cxx5__ops15_Iter_less_iterEEvT_S4_T0_.isra.0+0x3e>
    80002ea2:	41240633          	sub	a2,s0,s2
    80002ea6:	85ca                	mv	a1,s2
    80002ea8:	01490533          	add	a0,s2,s4
    80002eac:	635020ef          	jal	ra,80005ce0 <memmove>
    80002eb0:	00993023          	sd	s1,0(s2)
    80002eb4:	0421                	addi	s0,s0,8
    80002eb6:	fc899ee3          	bne	s3,s0,80002e92 <_ZSt16__insertion_sortIPlN9__gnu_cxx5__ops15_Iter_less_iterEEvT_S4_T0_.isra.0+0x20>
    80002eba:	70a2                	ld	ra,40(sp)
    80002ebc:	7402                	ld	s0,32(sp)
    80002ebe:	64e2                	ld	s1,24(sp)
    80002ec0:	6942                	ld	s2,16(sp)
    80002ec2:	69a2                	ld	s3,8(sp)
    80002ec4:	6a02                	ld	s4,0(sp)
    80002ec6:	6145                	addi	sp,sp,48
    80002ec8:	8082                	ret
    80002eca:	ff843703          	ld	a4,-8(s0)
    80002ece:	ff840793          	addi	a5,s0,-8
    80002ed2:	00e4d963          	bge	s1,a4,80002ee4 <_ZSt16__insertion_sortIPlN9__gnu_cxx5__ops15_Iter_less_iterEEvT_S4_T0_.isra.0+0x72>
    80002ed6:	e798                	sd	a4,8(a5)
    80002ed8:	ff87b703          	ld	a4,-8(a5)
    80002edc:	86be                	mv	a3,a5
    80002ede:	17e1                	addi	a5,a5,-8
    80002ee0:	fee4cbe3          	blt	s1,a4,80002ed6 <_ZSt16__insertion_sortIPlN9__gnu_cxx5__ops15_Iter_less_iterEEvT_S4_T0_.isra.0+0x64>
    80002ee4:	e284                	sd	s1,0(a3)
    80002ee6:	b7f9                	j	80002eb4 <_ZSt16__insertion_sortIPlN9__gnu_cxx5__ops15_Iter_less_iterEEvT_S4_T0_.isra.0+0x42>
    80002ee8:	8082                	ret

0000000080002eea <_ZSt16__introsort_loopIPflN9__gnu_cxx5__ops15_Iter_less_iterEEvT_S4_T0_T1_.isra.0>:
    80002eea:	40a587b3          	sub	a5,a1,a0
    80002eee:	04000713          	li	a4,64
    80002ef2:	14f75663          	bge	a4,a5,8000303e <_ZSt16__introsort_loopIPflN9__gnu_cxx5__ops15_Iter_less_iterEEvT_S4_T0_T1_.isra.0+0x154>
    80002ef6:	7179                	addi	sp,sp,-48
    80002ef8:	ec26                	sd	s1,24(sp)
    80002efa:	e84a                	sd	s2,16(sp)
    80002efc:	e44e                	sd	s3,8(sp)
    80002efe:	e052                	sd	s4,0(sp)
    80002f00:	f406                	sd	ra,40(sp)
    80002f02:	f022                	sd	s0,32(sp)
    80002f04:	84aa                	mv	s1,a0
    80002f06:	8a32                	mv	s4,a2
    80002f08:	00450993          	addi	s3,a0,4
    80002f0c:	04000913          	li	s2,64
    80002f10:	c679                	beqz	a2,80002fde <_ZSt16__introsort_loopIPflN9__gnu_cxx5__ops15_Iter_less_iterEEvT_S4_T0_T1_.isra.0+0xf4>
    80002f12:	878d                	srai	a5,a5,0x3
    80002f14:	078a                	slli	a5,a5,0x2
    80002f16:	97a6                	add	a5,a5,s1
    80002f18:	0044a787          	flw	fa5,4(s1)
    80002f1c:	0007a687          	flw	fa3,0(a5)
    80002f20:	ffc5a607          	flw	fa2,-4(a1)
    80002f24:	0004a707          	flw	fa4,0(s1)
    80002f28:	a0d79753          	flt.s	a4,fa5,fa3
    80002f2c:	1a7d                	addi	s4,s4,-1
    80002f2e:	c325                	beqz	a4,80002f8e <_ZSt16__introsort_loopIPflN9__gnu_cxx5__ops15_Iter_less_iterEEvT_S4_T0_T1_.isra.0+0xa4>
    80002f30:	a0c69753          	flt.s	a4,fa3,fa2
    80002f34:	eb51                	bnez	a4,80002fc8 <_ZSt16__introsort_loopIPflN9__gnu_cxx5__ops15_Iter_less_iterEEvT_S4_T0_T1_.isra.0+0xde>
    80002f36:	a0c797d3          	flt.s	a5,fa5,fa2
    80002f3a:	e3a5                	bnez	a5,80002f9a <_ZSt16__introsort_loopIPflN9__gnu_cxx5__ops15_Iter_less_iterEEvT_S4_T0_T1_.isra.0+0xb0>
    80002f3c:	00f4a027          	fsw	fa5,0(s1)
    80002f40:	00e4a227          	fsw	fa4,4(s1)
    80002f44:	ffc5a687          	flw	fa3,-4(a1)
    80002f48:	87ae                	mv	a5,a1
    80002f4a:	844e                	mv	s0,s3
    80002f4c:	a0f71753          	flt.s	a4,fa4,fa5
    80002f50:	c719                	beqz	a4,80002f5e <_ZSt16__introsort_loopIPflN9__gnu_cxx5__ops15_Iter_less_iterEEvT_S4_T0_T1_.isra.0+0x74>
    80002f52:	00442707          	flw	fa4,4(s0)
    80002f56:	0411                	addi	s0,s0,4
    80002f58:	a0f71753          	flt.s	a4,fa4,fa5
    80002f5c:	fb7d                	bnez	a4,80002f52 <_ZSt16__introsort_loopIPflN9__gnu_cxx5__ops15_Iter_less_iterEEvT_S4_T0_T1_.isra.0+0x68>
    80002f5e:	a0d79753          	flt.s	a4,fa5,fa3
    80002f62:	17f1                	addi	a5,a5,-4
    80002f64:	c719                	beqz	a4,80002f72 <_ZSt16__introsort_loopIPflN9__gnu_cxx5__ops15_Iter_less_iterEEvT_S4_T0_T1_.isra.0+0x88>
    80002f66:	ffc7a687          	flw	fa3,-4(a5)
    80002f6a:	17f1                	addi	a5,a5,-4
    80002f6c:	a0d79753          	flt.s	a4,fa5,fa3
    80002f70:	fb7d                	bnez	a4,80002f66 <_ZSt16__introsort_loopIPflN9__gnu_cxx5__ops15_Iter_less_iterEEvT_S4_T0_T1_.isra.0+0x7c>
    80002f72:	02f47f63          	bgeu	s0,a5,80002fb0 <_ZSt16__introsort_loopIPflN9__gnu_cxx5__ops15_Iter_less_iterEEvT_S4_T0_T1_.isra.0+0xc6>
    80002f76:	00d42027          	fsw	fa3,0(s0)
    80002f7a:	00e7a027          	fsw	fa4,0(a5)
    80002f7e:	00442707          	flw	fa4,4(s0)
    80002f82:	0004a787          	flw	fa5,0(s1)
    80002f86:	ffc7a687          	flw	fa3,-4(a5)
    80002f8a:	0411                	addi	s0,s0,4
    80002f8c:	b7c1                	j	80002f4c <_ZSt16__introsort_loopIPflN9__gnu_cxx5__ops15_Iter_less_iterEEvT_S4_T0_T1_.isra.0+0x62>
    80002f8e:	a0c79753          	flt.s	a4,fa5,fa2
    80002f92:	f74d                	bnez	a4,80002f3c <_ZSt16__introsort_loopIPflN9__gnu_cxx5__ops15_Iter_less_iterEEvT_S4_T0_T1_.isra.0+0x52>
    80002f94:	a0c69753          	flt.s	a4,fa3,fa2
    80002f98:	cb05                	beqz	a4,80002fc8 <_ZSt16__introsort_loopIPflN9__gnu_cxx5__ops15_Iter_less_iterEEvT_S4_T0_T1_.isra.0+0xde>
    80002f9a:	00c4a027          	fsw	fa2,0(s1)
    80002f9e:	fee5ae27          	fsw	fa4,-4(a1)
    80002fa2:	20e706d3          	fmv.s	fa3,fa4
    80002fa6:	0004a787          	flw	fa5,0(s1)
    80002faa:	0044a707          	flw	fa4,4(s1)
    80002fae:	bf69                	j	80002f48 <_ZSt16__introsort_loopIPflN9__gnu_cxx5__ops15_Iter_less_iterEEvT_S4_T0_T1_.isra.0+0x5e>
    80002fb0:	8652                	mv	a2,s4
    80002fb2:	8522                	mv	a0,s0
    80002fb4:	f37ff0ef          	jal	ra,80002eea <_ZSt16__introsort_loopIPflN9__gnu_cxx5__ops15_Iter_less_iterEEvT_S4_T0_T1_.isra.0>
    80002fb8:	409407b3          	sub	a5,s0,s1
    80002fbc:	06f95963          	bge	s2,a5,8000302e <_ZSt16__introsort_loopIPflN9__gnu_cxx5__ops15_Iter_less_iterEEvT_S4_T0_T1_.isra.0+0x144>
    80002fc0:	020a0063          	beqz	s4,80002fe0 <_ZSt16__introsort_loopIPflN9__gnu_cxx5__ops15_Iter_less_iterEEvT_S4_T0_T1_.isra.0+0xf6>
    80002fc4:	85a2                	mv	a1,s0
    80002fc6:	b7b1                	j	80002f12 <_ZSt16__introsort_loopIPflN9__gnu_cxx5__ops15_Iter_less_iterEEvT_S4_T0_T1_.isra.0+0x28>
    80002fc8:	00d4a027          	fsw	fa3,0(s1)
    80002fcc:	00e7a027          	fsw	fa4,0(a5)
    80002fd0:	0044a707          	flw	fa4,4(s1)
    80002fd4:	0004a787          	flw	fa5,0(s1)
    80002fd8:	ffc5a687          	flw	fa3,-4(a1)
    80002fdc:	b7b5                	j	80002f48 <_ZSt16__introsort_loopIPflN9__gnu_cxx5__ops15_Iter_less_iterEEvT_S4_T0_T1_.isra.0+0x5e>
    80002fde:	842e                	mv	s0,a1
    80002fe0:	4027d913          	srai	s2,a5,0x2
    80002fe4:	ffe90993          	addi	s3,s2,-2
    80002fe8:	4019d993          	srai	s3,s3,0x1
    80002fec:	00299a13          	slli	s4,s3,0x2
    80002ff0:	9a26                	add	s4,s4,s1
    80002ff2:	a011                	j	80002ff6 <_ZSt16__introsort_loopIPflN9__gnu_cxx5__ops15_Iter_less_iterEEvT_S4_T0_T1_.isra.0+0x10c>
    80002ff4:	19fd                	addi	s3,s3,-1
    80002ff6:	000a2507          	flw	fa0,0(s4)
    80002ffa:	85ce                	mv	a1,s3
    80002ffc:	864a                	mv	a2,s2
    80002ffe:	8526                	mv	a0,s1
    80003000:	aefff0ef          	jal	ra,80002aee <_ZSt13__adjust_heapIPflfN9__gnu_cxx5__ops15_Iter_less_iterEEvT_T0_S5_T1_T2_.isra.0>
    80003004:	1a71                	addi	s4,s4,-4
    80003006:	fe0997e3          	bnez	s3,80002ff4 <_ZSt16__introsort_loopIPflN9__gnu_cxx5__ops15_Iter_less_iterEEvT_S4_T0_T1_.isra.0+0x10a>
    8000300a:	4991                	li	s3,4
    8000300c:	0004a787          	flw	fa5,0(s1)
    80003010:	ffc42507          	flw	fa0,-4(s0)
    80003014:	1471                	addi	s0,s0,-4
    80003016:	40940933          	sub	s2,s0,s1
    8000301a:	40295613          	srai	a2,s2,0x2
    8000301e:	4581                	li	a1,0
    80003020:	8526                	mv	a0,s1
    80003022:	00f42027          	fsw	fa5,0(s0)
    80003026:	ac9ff0ef          	jal	ra,80002aee <_ZSt13__adjust_heapIPflfN9__gnu_cxx5__ops15_Iter_less_iterEEvT_T0_S5_T1_T2_.isra.0>
    8000302a:	ff29c1e3          	blt	s3,s2,8000300c <_ZSt16__introsort_loopIPflN9__gnu_cxx5__ops15_Iter_less_iterEEvT_S4_T0_T1_.isra.0+0x122>
    8000302e:	70a2                	ld	ra,40(sp)
    80003030:	7402                	ld	s0,32(sp)
    80003032:	64e2                	ld	s1,24(sp)
    80003034:	6942                	ld	s2,16(sp)
    80003036:	69a2                	ld	s3,8(sp)
    80003038:	6a02                	ld	s4,0(sp)
    8000303a:	6145                	addi	sp,sp,48
    8000303c:	8082                	ret
    8000303e:	8082                	ret

0000000080003040 <_ZSt16__introsort_loopIPdlN9__gnu_cxx5__ops15_Iter_less_iterEEvT_S4_T0_T1_.isra.0>:
    80003040:	40a587b3          	sub	a5,a1,a0
    80003044:	08000713          	li	a4,128
    80003048:	12f75363          	bge	a4,a5,8000316e <_ZSt16__introsort_loopIPdlN9__gnu_cxx5__ops15_Iter_less_iterEEvT_S4_T0_T1_.isra.0+0x12e>
    8000304c:	7179                	addi	sp,sp,-48
    8000304e:	ec26                	sd	s1,24(sp)
    80003050:	e84a                	sd	s2,16(sp)
    80003052:	e44e                	sd	s3,8(sp)
    80003054:	e052                	sd	s4,0(sp)
    80003056:	f406                	sd	ra,40(sp)
    80003058:	f022                	sd	s0,32(sp)
    8000305a:	84aa                	mv	s1,a0
    8000305c:	8a32                	mv	s4,a2
    8000305e:	00850993          	addi	s3,a0,8
    80003062:	08000913          	li	s2,128
    80003066:	c655                	beqz	a2,80003112 <_ZSt16__introsort_loopIPdlN9__gnu_cxx5__ops15_Iter_less_iterEEvT_S4_T0_T1_.isra.0+0xd2>
    80003068:	8791                	srai	a5,a5,0x4
    8000306a:	078e                	slli	a5,a5,0x3
    8000306c:	97a6                	add	a5,a5,s1
    8000306e:	249c                	fld	fa5,8(s1)
    80003070:	2394                	fld	fa3,0(a5)
    80003072:	ff85b607          	fld	fa2,-8(a1)
    80003076:	2098                	fld	fa4,0(s1)
    80003078:	a2d79753          	flt.d	a4,fa5,fa3
    8000307c:	1a7d                	addi	s4,s4,-1
    8000307e:	cb29                	beqz	a4,800030d0 <_ZSt16__introsort_loopIPdlN9__gnu_cxx5__ops15_Iter_less_iterEEvT_S4_T0_T1_.isra.0+0x90>
    80003080:	a2c69753          	flt.d	a4,fa3,fa2
    80003084:	e341                	bnez	a4,80003104 <_ZSt16__introsort_loopIPdlN9__gnu_cxx5__ops15_Iter_less_iterEEvT_S4_T0_T1_.isra.0+0xc4>
    80003086:	a2c797d3          	flt.d	a5,fa5,fa2
    8000308a:	eba9                	bnez	a5,800030dc <_ZSt16__introsort_loopIPdlN9__gnu_cxx5__ops15_Iter_less_iterEEvT_S4_T0_T1_.isra.0+0x9c>
    8000308c:	a09c                	fsd	fa5,0(s1)
    8000308e:	a498                	fsd	fa4,8(s1)
    80003090:	ff85b687          	fld	fa3,-8(a1)
    80003094:	87ae                	mv	a5,a1
    80003096:	844e                	mv	s0,s3
    80003098:	a2f71753          	flt.d	a4,fa4,fa5
    8000309c:	c711                	beqz	a4,800030a8 <_ZSt16__introsort_loopIPdlN9__gnu_cxx5__ops15_Iter_less_iterEEvT_S4_T0_T1_.isra.0+0x68>
    8000309e:	2418                	fld	fa4,8(s0)
    800030a0:	0421                	addi	s0,s0,8
    800030a2:	a2f71753          	flt.d	a4,fa4,fa5
    800030a6:	ff65                	bnez	a4,8000309e <_ZSt16__introsort_loopIPdlN9__gnu_cxx5__ops15_Iter_less_iterEEvT_S4_T0_T1_.isra.0+0x5e>
    800030a8:	a2d79753          	flt.d	a4,fa5,fa3
    800030ac:	17e1                	addi	a5,a5,-8
    800030ae:	c719                	beqz	a4,800030bc <_ZSt16__introsort_loopIPdlN9__gnu_cxx5__ops15_Iter_less_iterEEvT_S4_T0_T1_.isra.0+0x7c>
    800030b0:	ff87b687          	fld	fa3,-8(a5)
    800030b4:	17e1                	addi	a5,a5,-8
    800030b6:	a2d79753          	flt.d	a4,fa5,fa3
    800030ba:	fb7d                	bnez	a4,800030b0 <_ZSt16__introsort_loopIPdlN9__gnu_cxx5__ops15_Iter_less_iterEEvT_S4_T0_T1_.isra.0+0x70>
    800030bc:	02f47863          	bgeu	s0,a5,800030ec <_ZSt16__introsort_loopIPdlN9__gnu_cxx5__ops15_Iter_less_iterEEvT_S4_T0_T1_.isra.0+0xac>
    800030c0:	a014                	fsd	fa3,0(s0)
    800030c2:	a398                	fsd	fa4,0(a5)
    800030c4:	2418                	fld	fa4,8(s0)
    800030c6:	209c                	fld	fa5,0(s1)
    800030c8:	ff87b687          	fld	fa3,-8(a5)
    800030cc:	0421                	addi	s0,s0,8
    800030ce:	b7e9                	j	80003098 <_ZSt16__introsort_loopIPdlN9__gnu_cxx5__ops15_Iter_less_iterEEvT_S4_T0_T1_.isra.0+0x58>
    800030d0:	a2c79753          	flt.d	a4,fa5,fa2
    800030d4:	ff45                	bnez	a4,8000308c <_ZSt16__introsort_loopIPdlN9__gnu_cxx5__ops15_Iter_less_iterEEvT_S4_T0_T1_.isra.0+0x4c>
    800030d6:	a2c69753          	flt.d	a4,fa3,fa2
    800030da:	c70d                	beqz	a4,80003104 <_ZSt16__introsort_loopIPdlN9__gnu_cxx5__ops15_Iter_less_iterEEvT_S4_T0_T1_.isra.0+0xc4>
    800030dc:	a090                	fsd	fa2,0(s1)
    800030de:	fee5bc27          	fsd	fa4,-8(a1)
    800030e2:	22e706d3          	fmv.d	fa3,fa4
    800030e6:	209c                	fld	fa5,0(s1)
    800030e8:	2498                	fld	fa4,8(s1)
    800030ea:	b76d                	j	80003094 <_ZSt16__introsort_loopIPdlN9__gnu_cxx5__ops15_Iter_less_iterEEvT_S4_T0_T1_.isra.0+0x54>
    800030ec:	8652                	mv	a2,s4
    800030ee:	8522                	mv	a0,s0
    800030f0:	f51ff0ef          	jal	ra,80003040 <_ZSt16__introsort_loopIPdlN9__gnu_cxx5__ops15_Iter_less_iterEEvT_S4_T0_T1_.isra.0>
    800030f4:	409407b3          	sub	a5,s0,s1
    800030f8:	06f95363          	bge	s2,a5,8000315e <_ZSt16__introsort_loopIPdlN9__gnu_cxx5__ops15_Iter_less_iterEEvT_S4_T0_T1_.isra.0+0x11e>
    800030fc:	000a0c63          	beqz	s4,80003114 <_ZSt16__introsort_loopIPdlN9__gnu_cxx5__ops15_Iter_less_iterEEvT_S4_T0_T1_.isra.0+0xd4>
    80003100:	85a2                	mv	a1,s0
    80003102:	b79d                	j	80003068 <_ZSt16__introsort_loopIPdlN9__gnu_cxx5__ops15_Iter_less_iterEEvT_S4_T0_T1_.isra.0+0x28>
    80003104:	a094                	fsd	fa3,0(s1)
    80003106:	a398                	fsd	fa4,0(a5)
    80003108:	2498                	fld	fa4,8(s1)
    8000310a:	209c                	fld	fa5,0(s1)
    8000310c:	ff85b687          	fld	fa3,-8(a1)
    80003110:	b751                	j	80003094 <_ZSt16__introsort_loopIPdlN9__gnu_cxx5__ops15_Iter_less_iterEEvT_S4_T0_T1_.isra.0+0x54>
    80003112:	842e                	mv	s0,a1
    80003114:	4037d913          	srai	s2,a5,0x3
    80003118:	ffe90993          	addi	s3,s2,-2
    8000311c:	4019d993          	srai	s3,s3,0x1
    80003120:	00399a13          	slli	s4,s3,0x3
    80003124:	9a26                	add	s4,s4,s1
    80003126:	a011                	j	8000312a <_ZSt16__introsort_loopIPdlN9__gnu_cxx5__ops15_Iter_less_iterEEvT_S4_T0_T1_.isra.0+0xea>
    80003128:	19fd                	addi	s3,s3,-1
    8000312a:	000a3507          	fld	fa0,0(s4)
    8000312e:	85ce                	mv	a1,s3
    80003130:	864a                	mv	a2,s2
    80003132:	8526                	mv	a0,s1
    80003134:	a97ff0ef          	jal	ra,80002bca <_ZSt13__adjust_heapIPdldN9__gnu_cxx5__ops15_Iter_less_iterEEvT_T0_S5_T1_T2_.isra.0>
    80003138:	1a61                	addi	s4,s4,-8
    8000313a:	fe0997e3          	bnez	s3,80003128 <_ZSt16__introsort_loopIPdlN9__gnu_cxx5__ops15_Iter_less_iterEEvT_S4_T0_T1_.isra.0+0xe8>
    8000313e:	49a1                	li	s3,8
    80003140:	209c                	fld	fa5,0(s1)
    80003142:	ff843507          	fld	fa0,-8(s0)
    80003146:	1461                	addi	s0,s0,-8
    80003148:	40940933          	sub	s2,s0,s1
    8000314c:	40395613          	srai	a2,s2,0x3
    80003150:	4581                	li	a1,0
    80003152:	8526                	mv	a0,s1
    80003154:	a01c                	fsd	fa5,0(s0)
    80003156:	a75ff0ef          	jal	ra,80002bca <_ZSt13__adjust_heapIPdldN9__gnu_cxx5__ops15_Iter_less_iterEEvT_T0_S5_T1_T2_.isra.0>
    8000315a:	ff29c3e3          	blt	s3,s2,80003140 <_ZSt16__introsort_loopIPdlN9__gnu_cxx5__ops15_Iter_less_iterEEvT_S4_T0_T1_.isra.0+0x100>
    8000315e:	70a2                	ld	ra,40(sp)
    80003160:	7402                	ld	s0,32(sp)
    80003162:	64e2                	ld	s1,24(sp)
    80003164:	6942                	ld	s2,16(sp)
    80003166:	69a2                	ld	s3,8(sp)
    80003168:	6a02                	ld	s4,0(sp)
    8000316a:	6145                	addi	sp,sp,48
    8000316c:	8082                	ret
    8000316e:	8082                	ret

0000000080003170 <_ZSt16__introsort_loopIPllN9__gnu_cxx5__ops15_Iter_less_iterEEvT_S4_T0_T1_.isra.0>:
    80003170:	40a587b3          	sub	a5,a1,a0
    80003174:	08000713          	li	a4,128
    80003178:	10f75663          	bge	a4,a5,80003284 <_ZSt16__introsort_loopIPllN9__gnu_cxx5__ops15_Iter_less_iterEEvT_S4_T0_T1_.isra.0+0x114>
    8000317c:	7179                	addi	sp,sp,-48
    8000317e:	ec26                	sd	s1,24(sp)
    80003180:	e84a                	sd	s2,16(sp)
    80003182:	e44e                	sd	s3,8(sp)
    80003184:	e052                	sd	s4,0(sp)
    80003186:	f406                	sd	ra,40(sp)
    80003188:	f022                	sd	s0,32(sp)
    8000318a:	84aa                	mv	s1,a0
    8000318c:	8a32                	mv	s4,a2
    8000318e:	00850993          	addi	s3,a0,8
    80003192:	08000913          	li	s2,128
    80003196:	ca49                	beqz	a2,80003228 <_ZSt16__introsort_loopIPllN9__gnu_cxx5__ops15_Iter_less_iterEEvT_S4_T0_T1_.isra.0+0xb8>
    80003198:	8791                	srai	a5,a5,0x4
    8000319a:	078e                	slli	a5,a5,0x3
    8000319c:	97a6                	add	a5,a5,s1
    8000319e:	6498                	ld	a4,8(s1)
    800031a0:	6390                	ld	a2,0(a5)
    800031a2:	ff85b503          	ld	a0,-8(a1)
    800031a6:	6094                	ld	a3,0(s1)
    800031a8:	1a7d                	addi	s4,s4,-1
    800031aa:	04c75163          	bge	a4,a2,800031ec <_ZSt16__introsort_loopIPllN9__gnu_cxx5__ops15_Iter_less_iterEEvT_S4_T0_T1_.isra.0+0x7c>
    800031ae:	06a64663          	blt	a2,a0,8000321a <_ZSt16__introsort_loopIPllN9__gnu_cxx5__ops15_Iter_less_iterEEvT_S4_T0_T1_.isra.0+0xaa>
    800031b2:	04a74163          	blt	a4,a0,800031f4 <_ZSt16__introsort_loopIPllN9__gnu_cxx5__ops15_Iter_less_iterEEvT_S4_T0_T1_.isra.0+0x84>
    800031b6:	e098                	sd	a4,0(s1)
    800031b8:	e494                	sd	a3,8(s1)
    800031ba:	ff85b803          	ld	a6,-8(a1)
    800031be:	87ae                	mv	a5,a1
    800031c0:	844e                	mv	s0,s3
    800031c2:	00e6d763          	bge	a3,a4,800031d0 <_ZSt16__introsort_loopIPllN9__gnu_cxx5__ops15_Iter_less_iterEEvT_S4_T0_T1_.isra.0+0x60>
    800031c6:	6414                	ld	a3,8(s0)
    800031c8:	0421                	addi	s0,s0,8
    800031ca:	bfe5                	j	800031c2 <_ZSt16__introsort_loopIPllN9__gnu_cxx5__ops15_Iter_less_iterEEvT_S4_T0_T1_.isra.0+0x52>
    800031cc:	ff87b803          	ld	a6,-8(a5)
    800031d0:	17e1                	addi	a5,a5,-8
    800031d2:	ff074de3          	blt	a4,a6,800031cc <_ZSt16__introsort_loopIPllN9__gnu_cxx5__ops15_Iter_less_iterEEvT_S4_T0_T1_.isra.0+0x5c>
    800031d6:	02f47663          	bgeu	s0,a5,80003202 <_ZSt16__introsort_loopIPllN9__gnu_cxx5__ops15_Iter_less_iterEEvT_S4_T0_T1_.isra.0+0x92>
    800031da:	01043023          	sd	a6,0(s0)
    800031de:	e394                	sd	a3,0(a5)
    800031e0:	6414                	ld	a3,8(s0)
    800031e2:	6098                	ld	a4,0(s1)
    800031e4:	ff87b803          	ld	a6,-8(a5)
    800031e8:	0421                	addi	s0,s0,8
    800031ea:	bfe1                	j	800031c2 <_ZSt16__introsort_loopIPllN9__gnu_cxx5__ops15_Iter_less_iterEEvT_S4_T0_T1_.isra.0+0x52>
    800031ec:	fca745e3          	blt	a4,a0,800031b6 <_ZSt16__introsort_loopIPllN9__gnu_cxx5__ops15_Iter_less_iterEEvT_S4_T0_T1_.isra.0+0x46>
    800031f0:	02a65563          	bge	a2,a0,8000321a <_ZSt16__introsort_loopIPllN9__gnu_cxx5__ops15_Iter_less_iterEEvT_S4_T0_T1_.isra.0+0xaa>
    800031f4:	e088                	sd	a0,0(s1)
    800031f6:	fed5bc23          	sd	a3,-8(a1)
    800031fa:	8836                	mv	a6,a3
    800031fc:	6098                	ld	a4,0(s1)
    800031fe:	6494                	ld	a3,8(s1)
    80003200:	bf7d                	j	800031be <_ZSt16__introsort_loopIPllN9__gnu_cxx5__ops15_Iter_less_iterEEvT_S4_T0_T1_.isra.0+0x4e>
    80003202:	8652                	mv	a2,s4
    80003204:	8522                	mv	a0,s0
    80003206:	f6bff0ef          	jal	ra,80003170 <_ZSt16__introsort_loopIPllN9__gnu_cxx5__ops15_Iter_less_iterEEvT_S4_T0_T1_.isra.0>
    8000320a:	409407b3          	sub	a5,s0,s1
    8000320e:	06f95363          	bge	s2,a5,80003274 <_ZSt16__introsort_loopIPllN9__gnu_cxx5__ops15_Iter_less_iterEEvT_S4_T0_T1_.isra.0+0x104>
    80003212:	000a0c63          	beqz	s4,8000322a <_ZSt16__introsort_loopIPllN9__gnu_cxx5__ops15_Iter_less_iterEEvT_S4_T0_T1_.isra.0+0xba>
    80003216:	85a2                	mv	a1,s0
    80003218:	b741                	j	80003198 <_ZSt16__introsort_loopIPllN9__gnu_cxx5__ops15_Iter_less_iterEEvT_S4_T0_T1_.isra.0+0x28>
    8000321a:	e090                	sd	a2,0(s1)
    8000321c:	e394                	sd	a3,0(a5)
    8000321e:	6494                	ld	a3,8(s1)
    80003220:	6098                	ld	a4,0(s1)
    80003222:	ff85b803          	ld	a6,-8(a1)
    80003226:	bf61                	j	800031be <_ZSt16__introsort_loopIPllN9__gnu_cxx5__ops15_Iter_less_iterEEvT_S4_T0_T1_.isra.0+0x4e>
    80003228:	842e                	mv	s0,a1
    8000322a:	4037d913          	srai	s2,a5,0x3
    8000322e:	ffe90993          	addi	s3,s2,-2
    80003232:	4019d993          	srai	s3,s3,0x1
    80003236:	00399a13          	slli	s4,s3,0x3
    8000323a:	9a26                	add	s4,s4,s1
    8000323c:	a011                	j	80003240 <_ZSt16__introsort_loopIPllN9__gnu_cxx5__ops15_Iter_less_iterEEvT_S4_T0_T1_.isra.0+0xd0>
    8000323e:	19fd                	addi	s3,s3,-1
    80003240:	000a3683          	ld	a3,0(s4)
    80003244:	85ce                	mv	a1,s3
    80003246:	864a                	mv	a2,s2
    80003248:	8526                	mv	a0,s1
    8000324a:	a51ff0ef          	jal	ra,80002c9a <_ZSt13__adjust_heapIPlllN9__gnu_cxx5__ops15_Iter_less_iterEEvT_T0_S5_T1_T2_.isra.0>
    8000324e:	1a61                	addi	s4,s4,-8
    80003250:	fe0997e3          	bnez	s3,8000323e <_ZSt16__introsort_loopIPllN9__gnu_cxx5__ops15_Iter_less_iterEEvT_S4_T0_T1_.isra.0+0xce>
    80003254:	49a1                	li	s3,8
    80003256:	609c                	ld	a5,0(s1)
    80003258:	ff843683          	ld	a3,-8(s0)
    8000325c:	1461                	addi	s0,s0,-8
    8000325e:	40940933          	sub	s2,s0,s1
    80003262:	40395613          	srai	a2,s2,0x3
    80003266:	4581                	li	a1,0
    80003268:	8526                	mv	a0,s1
    8000326a:	e01c                	sd	a5,0(s0)
    8000326c:	a2fff0ef          	jal	ra,80002c9a <_ZSt13__adjust_heapIPlllN9__gnu_cxx5__ops15_Iter_less_iterEEvT_T0_S5_T1_T2_.isra.0>
    80003270:	ff29c3e3          	blt	s3,s2,80003256 <_ZSt16__introsort_loopIPllN9__gnu_cxx5__ops15_Iter_less_iterEEvT_S4_T0_T1_.isra.0+0xe6>
    80003274:	70a2                	ld	ra,40(sp)
    80003276:	7402                	ld	s0,32(sp)
    80003278:	64e2                	ld	s1,24(sp)
    8000327a:	6942                	ld	s2,16(sp)
    8000327c:	69a2                	ld	s3,8(sp)
    8000327e:	6a02                	ld	s4,0(sp)
    80003280:	6145                	addi	sp,sp,48
    80003282:	8082                	ret
    80003284:	8082                	ret

0000000080003286 <printI64>:
    80003286:	8a01b783          	ld	a5,-1888(gp) # 80010180 <_impure_ptr>
    8000328a:	862a                	mv	a2,a0
    8000328c:	6b88                	ld	a0,16(a5)
    8000328e:	0000a597          	auipc	a1,0xa
    80003292:	60258593          	addi	a1,a1,1538 # 8000d890 <_conv_stat+0x232>
    80003296:	17a0206f          	j	80005410 <fprintf>

000000008000329a <printU64>:
    8000329a:	8a01b783          	ld	a5,-1888(gp) # 80010180 <_impure_ptr>
    8000329e:	862a                	mv	a2,a0
    800032a0:	6b88                	ld	a0,16(a5)
    800032a2:	0000a597          	auipc	a1,0xa
    800032a6:	5f658593          	addi	a1,a1,1526 # 8000d898 <_conv_stat+0x23a>
    800032aa:	1660206f          	j	80005410 <fprintf>

00000000800032ae <printF32>:
    800032ae:	420507d3          	fcvt.d.s	fa5,fa0
    800032b2:	8a01b783          	ld	a5,-1888(gp) # 80010180 <_impure_ptr>
    800032b6:	6b88                	ld	a0,16(a5)
    800032b8:	e2078653          	fmv.x.d	a2,fa5
    800032bc:	0000a597          	auipc	a1,0xa
    800032c0:	5e458593          	addi	a1,a1,1508 # 8000d8a0 <_conv_stat+0x242>
    800032c4:	14c0206f          	j	80005410 <fprintf>

00000000800032c8 <printF64>:
    800032c8:	8a01b783          	ld	a5,-1888(gp) # 80010180 <_impure_ptr>
    800032cc:	6b88                	ld	a0,16(a5)
    800032ce:	e2050653          	fmv.x.d	a2,fa0
    800032d2:	0000a597          	auipc	a1,0xa
    800032d6:	5d658593          	addi	a1,a1,1494 # 8000d8a8 <_conv_stat+0x24a>
    800032da:	1360206f          	j	80005410 <fprintf>

00000000800032de <printOpen>:
    800032de:	8a01b783          	ld	a5,-1888(gp) # 80010180 <_impure_ptr>
    800032e2:	6b94                	ld	a3,16(a5)
    800032e4:	4609                	li	a2,2
    800032e6:	4585                	li	a1,1
    800032e8:	0000a517          	auipc	a0,0xa
    800032ec:	5c850513          	addi	a0,a0,1480 # 8000d8b0 <_conv_stat+0x252>
    800032f0:	2300206f          	j	80005520 <fwrite>

00000000800032f4 <printClose>:
    800032f4:	8a01b783          	ld	a5,-1888(gp) # 80010180 <_impure_ptr>
    800032f8:	6b94                	ld	a3,16(a5)
    800032fa:	4609                	li	a2,2
    800032fc:	4585                	li	a1,1
    800032fe:	0000a517          	auipc	a0,0xa
    80003302:	5ba50513          	addi	a0,a0,1466 # 8000d8b8 <_conv_stat+0x25a>
    80003306:	21a0206f          	j	80005520 <fwrite>

000000008000330a <printComma>:
    8000330a:	8a01b783          	ld	a5,-1888(gp) # 80010180 <_impure_ptr>
    8000330e:	6b94                	ld	a3,16(a5)
    80003310:	4609                	li	a2,2
    80003312:	4585                	li	a1,1
    80003314:	0000a517          	auipc	a0,0xa
    80003318:	5ac50513          	addi	a0,a0,1452 # 8000d8c0 <_conv_stat+0x262>
    8000331c:	2040206f          	j	80005520 <fwrite>

0000000080003320 <printNewline>:
    80003320:	8a01b783          	ld	a5,-1888(gp) # 80010180 <_impure_ptr>
    80003324:	6b8c                	ld	a1,16(a5)
    80003326:	4529                	li	a0,10
    80003328:	1440206f          	j	8000546c <fputc>

000000008000332c <memrefCopy>:
    8000332c:	7175                	addi	sp,sp,-144
    8000332e:	e122                	sd	s0,128(sp)
    80003330:	f4ce                	sd	s3,104(sp)
    80003332:	ecd6                	sd	s5,88(sp)
    80003334:	e0e2                	sd	s8,64(sp)
    80003336:	f46e                	sd	s11,40(sp)
    80003338:	e506                	sd	ra,136(sp)
    8000333a:	fca6                	sd	s1,120(sp)
    8000333c:	f8ca                	sd	s2,112(sp)
    8000333e:	f0d2                	sd	s4,96(sp)
    80003340:	e8da                	sd	s6,80(sp)
    80003342:	e4de                	sd	s7,72(sp)
    80003344:	fc66                	sd	s9,56(sp)
    80003346:	f86a                	sd	s10,48(sp)
    80003348:	0900                	addi	s0,sp,144
    8000334a:	0085bc03          	ld	s8,8(a1)
    8000334e:	0005bd83          	ld	s11,0(a1)
    80003352:	8aaa                	mv	s5,a0
    80003354:	008c3983          	ld	s3,8(s8)
    80003358:	010c3883          	ld	a7,16(s8)
    8000335c:	040d8b63          	beqz	s11,800033b2 <memrefCopy+0x86>
    80003360:	661c                	ld	a5,8(a2)
    80003362:	00063f83          	ld	t6,0(a2)
    80003366:	0c61                	addi	s8,s8,24
    80003368:	0087b903          	ld	s2,8(a5)
    8000336c:	0107bf03          	ld	t5,16(a5)
    80003370:	003d9613          	slli	a2,s11,0x3
    80003374:	4c81                	li	s9,0
    80003376:	160f9b63          	bnez	t6,800034ec <memrefCopy+0x1c0>
    8000337a:	05b05863          	blez	s11,800033ca <memrefCopy+0x9e>
    8000337e:	87e2                	mv	a5,s8
    80003380:	4701                	li	a4,0
    80003382:	a019                	j	80003388 <memrefCopy+0x5c>
    80003384:	07b70e63          	beq	a4,s11,80003400 <memrefCopy+0xd4>
    80003388:	6394                	ld	a3,0(a5)
    8000338a:	0705                	addi	a4,a4,1
    8000338c:	07a1                	addi	a5,a5,8
    8000338e:	fafd                	bnez	a3,80003384 <memrefCopy+0x58>
    80003390:	f7040113          	addi	sp,s0,-144
    80003394:	60aa                	ld	ra,136(sp)
    80003396:	640a                	ld	s0,128(sp)
    80003398:	74e6                	ld	s1,120(sp)
    8000339a:	7946                	ld	s2,112(sp)
    8000339c:	79a6                	ld	s3,104(sp)
    8000339e:	7a06                	ld	s4,96(sp)
    800033a0:	6ae6                	ld	s5,88(sp)
    800033a2:	6b46                	ld	s6,80(sp)
    800033a4:	6ba6                	ld	s7,72(sp)
    800033a6:	6c06                	ld	s8,64(sp)
    800033a8:	7ce2                	ld	s9,56(sp)
    800033aa:	7d42                	ld	s10,48(sp)
    800033ac:	7da2                	ld	s11,40(sp)
    800033ae:	6149                	addi	sp,sp,144
    800033b0:	8082                	ret
    800033b2:	00863c83          	ld	s9,8(a2)
    800033b6:	621c                	ld	a5,0(a2)
    800033b8:	008cb903          	ld	s2,8(s9)
    800033bc:	010cbf03          	ld	t5,16(s9)
    800033c0:	12078963          	beqz	a5,800034f2 <memrefCopy+0x1c6>
    800033c4:	0ce1                	addi	s9,s9,24
    800033c6:	4601                	li	a2,0
    800033c8:	4c01                	li	s8,0
    800033ca:	031a88b3          	mul	a7,s5,a7
    800033ce:	035f0f33          	mul	t5,t5,s5
    800033d2:	011987b3          	add	a5,s3,a7
    800033d6:	f8f43023          	sd	a5,-128(s0)
    800033da:	01e907b3          	add	a5,s2,t5
    800033de:	f6f43c23          	sd	a5,-136(s0)
    800033e2:	100d8c63          	beqz	s11,800034fa <memrefCopy+0x1ce>
    800033e6:	00f60793          	addi	a5,a2,15
    800033ea:	9bc1                	andi	a5,a5,-16
    800033ec:	40f10133          	sub	sp,sp,a5
    800033f0:	848a                	mv	s1,sp
    800033f2:	40f10133          	sub	sp,sp,a5
    800033f6:	8a0a                	mv	s4,sp
    800033f8:	40f10133          	sub	sp,sp,a5
    800033fc:	8d0a                	mv	s10,sp
    800033fe:	a0a5                	j	80003466 <memrefCopy+0x13a>
    80003400:	00f60793          	addi	a5,a2,15
    80003404:	9bc1                	andi	a5,a5,-16
    80003406:	40f10133          	sub	sp,sp,a5
    8000340a:	848a                	mv	s1,sp
    8000340c:	40f10133          	sub	sp,sp,a5
    80003410:	8a0a                	mv	s4,sp
    80003412:	40f10133          	sub	sp,sp,a5
    80003416:	0f8e                	slli	t6,t6,0x3
    80003418:	8d0a                	mv	s10,sp
    8000341a:	4781                	li	a5,0
    8000341c:	00f606b3          	add	a3,a2,a5
    80003420:	00ff8733          	add	a4,t6,a5
    80003424:	96e2                	add	a3,a3,s8
    80003426:	9766                	add	a4,a4,s9
    80003428:	6294                	ld	a3,0(a3)
    8000342a:	6318                	ld	a4,0(a4)
    8000342c:	00f48833          	add	a6,s1,a5
    80003430:	035686b3          	mul	a3,a3,s5
    80003434:	00fa0533          	add	a0,s4,a5
    80003438:	00fd05b3          	add	a1,s10,a5
    8000343c:	00083023          	sd	zero,0(a6)
    80003440:	07a1                	addi	a5,a5,8
    80003442:	03570733          	mul	a4,a4,s5
    80003446:	e114                	sd	a3,0(a0)
    80003448:	e198                	sd	a4,0(a1)
    8000344a:	fcf619e3          	bne	a2,a5,8000341c <memrefCopy+0xf0>
    8000344e:	031a88b3          	mul	a7,s5,a7
    80003452:	03ea8f33          	mul	t5,s5,t5
    80003456:	011987b3          	add	a5,s3,a7
    8000345a:	f8f43023          	sd	a5,-128(s0)
    8000345e:	01e907b3          	add	a5,s2,t5
    80003462:	f6f43c23          	sd	a5,-136(s0)
    80003466:	fffd8993          	addi	s3,s11,-1
    8000346a:	94b2                	add	s1,s1,a2
    8000346c:	00399913          	slli	s2,s3,0x3
    80003470:	4b81                	li	s7,0
    80003472:	4b01                	li	s6,0
    80003474:	f8043703          	ld	a4,-128(s0)
    80003478:	f7843783          	ld	a5,-136(s0)
    8000347c:	975a                	add	a4,a4,s6
    8000347e:	97de                	add	a5,a5,s7
    80003480:	f8e43423          	sd	a4,-120(s0)
    80003484:	f8843583          	ld	a1,-120(s0)
    80003488:	853e                	mv	a0,a5
    8000348a:	8656                	mv	a2,s5
    8000348c:	c54ff0ef          	jal	ra,800028e0 <memcpy>
    80003490:	87aa                	mv	a5,a0
    80003492:	ffb059e3          	blez	s11,80003484 <memrefCopy+0x158>
    80003496:	87ca                	mv	a5,s2
    80003498:	86a6                	mv	a3,s1
    8000349a:	854e                	mv	a0,s3
    8000349c:	a839                	j	800034ba <memrefCopy+0x18e>
    8000349e:	000f3603          	ld	a2,0(t5)
    800034a2:	02e80833          	mul	a6,a6,a4
    800034a6:	0006b023          	sd	zero,0(a3)
    800034aa:	157d                	addi	a0,a0,-1
    800034ac:	17e1                	addi	a5,a5,-8
    800034ae:	02c585b3          	mul	a1,a1,a2
    800034b2:	410b0b33          	sub	s6,s6,a6
    800034b6:	40bb8bb3          	sub	s7,s7,a1
    800034ba:	ff86b703          	ld	a4,-8(a3)
    800034be:	00fa05b3          	add	a1,s4,a5
    800034c2:	00fd0633          	add	a2,s10,a5
    800034c6:	00fc08b3          	add	a7,s8,a5
    800034ca:	0005b803          	ld	a6,0(a1)
    800034ce:	620c                	ld	a1,0(a2)
    800034d0:	0008b603          	ld	a2,0(a7)
    800034d4:	0705                	addi	a4,a4,1
    800034d6:	fee6bc23          	sd	a4,-8(a3)
    800034da:	00fc8f33          	add	t5,s9,a5
    800034de:	9b42                	add	s6,s6,a6
    800034e0:	9bae                	add	s7,s7,a1
    800034e2:	f8c719e3          	bne	a4,a2,80003474 <memrefCopy+0x148>
    800034e6:	16e1                	addi	a3,a3,-8
    800034e8:	f95d                	bnez	a0,8000349e <memrefCopy+0x172>
    800034ea:	b55d                	j	80003390 <memrefCopy+0x64>
    800034ec:	01878c93          	addi	s9,a5,24
    800034f0:	b569                	j	8000337a <memrefCopy+0x4e>
    800034f2:	4601                	li	a2,0
    800034f4:	4c01                	li	s8,0
    800034f6:	4c81                	li	s9,0
    800034f8:	bdc9                	j	800033ca <memrefCopy+0x9e>
    800034fa:	f8043583          	ld	a1,-128(s0)
    800034fe:	f7843503          	ld	a0,-136(s0)
    80003502:	8656                	mv	a2,s5
    80003504:	bdcff0ef          	jal	ra,800028e0 <memcpy>
    80003508:	b561                	j	80003390 <memrefCopy+0x64>

000000008000350a <printFlops>:
    8000350a:	0000d797          	auipc	a5,0xd
    8000350e:	c067b787          	fld	fa5,-1018(a5) # 80010110 <__global_locale+0x1d8>
    80003512:	12f577d3          	fmul.d	fa5,fa0,fa5
    80003516:	8a01b783          	ld	a5,-1888(gp) # 80010180 <_impure_ptr>
    8000351a:	6f88                	ld	a0,24(a5)
    8000351c:	0000a597          	auipc	a1,0xa
    80003520:	3ac58593          	addi	a1,a1,940 # 8000d8c8 <_conv_stat+0x26a>
    80003524:	e2078653          	fmv.x.d	a2,fa5
    80003528:	6e90106f          	j	80005410 <fprintf>

000000008000352c <rtclock>:
    8000352c:	1101                	addi	sp,sp,-32
    8000352e:	4581                	li	a1,0
    80003530:	850a                	mv	a0,sp
    80003532:	ec06                	sd	ra,24(sp)
    80003534:	185020ef          	jal	ra,80005eb8 <gettimeofday>
    80003538:	e105                	bnez	a0,80003558 <rtclock+0x2c>
    8000353a:	0000d797          	auipc	a5,0xd
    8000353e:	bde7b707          	fld	fa4,-1058(a5) # 80010118 <__global_locale+0x1e0>
    80003542:	67a2                	ld	a5,8(sp)
    80003544:	60e2                	ld	ra,24(sp)
    80003546:	d227f553          	fcvt.d.l	fa0,a5
    8000354a:	6782                	ld	a5,0(sp)
    8000354c:	6105                	addi	sp,sp,32
    8000354e:	d227f7d3          	fcvt.d.l	fa5,a5
    80003552:	7ae57543          	fmadd.d	fa0,fa0,fa4,fa5
    80003556:	8082                	ret
    80003558:	8a01b783          	ld	a5,-1888(gp) # 80010180 <_impure_ptr>
    8000355c:	862a                	mv	a2,a0
    8000355e:	6f88                	ld	a0,24(a5)
    80003560:	0000a597          	auipc	a1,0xa
    80003564:	37858593          	addi	a1,a1,888 # 8000d8d8 <_conv_stat+0x27a>
    80003568:	6a9010ef          	jal	ra,80005410 <fprintf>
    8000356c:	b7f9                	j	8000353a <rtclock+0xe>

000000008000356e <mlirAlloc>:
    8000356e:	a659                	j	800038f4 <__wrap_malloc>

0000000080003570 <mlirAlignedAlloc>:
    80003570:	5d50106f          	j	80005344 <aligned_alloc>

0000000080003574 <mlirFree>:
    80003574:	1740206f          	j	800056e8 <free>

0000000080003578 <mlirAlignedFree>:
    80003578:	1700206f          	j	800056e8 <free>

000000008000357c <_mlir_ciface_stdSortI64>:
    8000357c:	1101                	addi	sp,sp,-32
    8000357e:	ec06                	sd	ra,24(sp)
    80003580:	e822                	sd	s0,16(sp)
    80003582:	e426                	sd	s1,8(sp)
    80003584:	e04a                	sd	s2,0(sp)
    80003586:	cdcd                	beqz	a1,80003640 <_mlir_ciface_stdSortI64+0xc4>
    80003588:	7198                	ld	a4,32(a1)
    8000358a:	4785                	li	a5,1
    8000358c:	08f71a63          	bne	a4,a5,80003620 <_mlir_ciface_stdSortI64+0xa4>
    80003590:	699c                	ld	a5,16(a1)
    80003592:	6584                	ld	s1,8(a1)
    80003594:	00351413          	slli	s0,a0,0x3
    80003598:	078e                	slli	a5,a5,0x3
    8000359a:	94be                	add	s1,s1,a5
    8000359c:	00848933          	add	s2,s1,s0
    800035a0:	05248c63          	beq	s1,s2,800035f8 <_mlir_ciface_stdSortI64+0x7c>
    800035a4:	40345513          	srai	a0,s0,0x3
    800035a8:	404000ef          	jal	ra,800039ac <__clzdi2>
    800035ac:	03f00613          	li	a2,63
    800035b0:	9e09                	subw	a2,a2,a0
    800035b2:	0606                	slli	a2,a2,0x1
    800035b4:	85ca                	mv	a1,s2
    800035b6:	8526                	mv	a0,s1
    800035b8:	bb9ff0ef          	jal	ra,80003170 <_ZSt16__introsort_loopIPllN9__gnu_cxx5__ops15_Iter_less_iterEEvT_S4_T0_T1_.isra.0>
    800035bc:	08000793          	li	a5,128
    800035c0:	0487d263          	bge	a5,s0,80003604 <_mlir_ciface_stdSortI64+0x88>
    800035c4:	08048413          	addi	s0,s1,128
    800035c8:	85a2                	mv	a1,s0
    800035ca:	8526                	mv	a0,s1
    800035cc:	8a7ff0ef          	jal	ra,80002e72 <_ZSt16__insertion_sortIPlN9__gnu_cxx5__ops15_Iter_less_iterEEvT_S4_T0_.isra.0>
    800035d0:	02890463          	beq	s2,s0,800035f8 <_mlir_ciface_stdSortI64+0x7c>
    800035d4:	6014                	ld	a3,0(s0)
    800035d6:	ff843703          	ld	a4,-8(s0)
    800035da:	ff840793          	addi	a5,s0,-8
    800035de:	02e6db63          	bge	a3,a4,80003614 <_mlir_ciface_stdSortI64+0x98>
    800035e2:	e798                	sd	a4,8(a5)
    800035e4:	ff87b703          	ld	a4,-8(a5)
    800035e8:	863e                	mv	a2,a5
    800035ea:	17e1                	addi	a5,a5,-8
    800035ec:	fee6cbe3          	blt	a3,a4,800035e2 <_mlir_ciface_stdSortI64+0x66>
    800035f0:	e214                	sd	a3,0(a2)
    800035f2:	0421                	addi	s0,s0,8
    800035f4:	fe8910e3          	bne	s2,s0,800035d4 <_mlir_ciface_stdSortI64+0x58>
    800035f8:	60e2                	ld	ra,24(sp)
    800035fa:	6442                	ld	s0,16(sp)
    800035fc:	64a2                	ld	s1,8(sp)
    800035fe:	6902                	ld	s2,0(sp)
    80003600:	6105                	addi	sp,sp,32
    80003602:	8082                	ret
    80003604:	6442                	ld	s0,16(sp)
    80003606:	60e2                	ld	ra,24(sp)
    80003608:	85ca                	mv	a1,s2
    8000360a:	8526                	mv	a0,s1
    8000360c:	6902                	ld	s2,0(sp)
    8000360e:	64a2                	ld	s1,8(sp)
    80003610:	6105                	addi	sp,sp,32
    80003612:	b085                	j	80002e72 <_ZSt16__insertion_sortIPlN9__gnu_cxx5__ops15_Iter_less_iterEEvT_S4_T0_.isra.0>
    80003614:	8622                	mv	a2,s0
    80003616:	e214                	sd	a3,0(a2)
    80003618:	0421                	addi	s0,s0,8
    8000361a:	fa891de3          	bne	s2,s0,800035d4 <_mlir_ciface_stdSortI64+0x58>
    8000361e:	bfe9                	j	800035f8 <_mlir_ciface_stdSortI64+0x7c>
    80003620:	0000a697          	auipc	a3,0xa
    80003624:	38868693          	addi	a3,a3,904 # 8000d9a8 <_conv_stat+0x34a>
    80003628:	0000a617          	auipc	a2,0xa
    8000362c:	2e860613          	addi	a2,a2,744 # 8000d910 <_conv_stat+0x2b2>
    80003630:	0b900593          	li	a1,185
    80003634:	0000a517          	auipc	a0,0xa
    80003638:	32450513          	addi	a0,a0,804 # 8000d958 <_conv_stat+0x2fa>
    8000363c:	51f010ef          	jal	ra,8000535a <__assert_func>
    80003640:	0000a697          	auipc	a3,0xa
    80003644:	2c868693          	addi	a3,a3,712 # 8000d908 <_conv_stat+0x2aa>
    80003648:	0000a617          	auipc	a2,0xa
    8000364c:	2c860613          	addi	a2,a2,712 # 8000d910 <_conv_stat+0x2b2>
    80003650:	0b900593          	li	a1,185
    80003654:	0000a517          	auipc	a0,0xa
    80003658:	30450513          	addi	a0,a0,772 # 8000d958 <_conv_stat+0x2fa>
    8000365c:	4ff010ef          	jal	ra,8000535a <__assert_func>

0000000080003660 <_mlir_ciface_stdSortF64>:
    80003660:	1101                	addi	sp,sp,-32
    80003662:	ec06                	sd	ra,24(sp)
    80003664:	e822                	sd	s0,16(sp)
    80003666:	e426                	sd	s1,8(sp)
    80003668:	e04a                	sd	s2,0(sp)
    8000366a:	c1e1                	beqz	a1,8000372a <_mlir_ciface_stdSortF64+0xca>
    8000366c:	7198                	ld	a4,32(a1)
    8000366e:	4785                	li	a5,1
    80003670:	08f71d63          	bne	a4,a5,8000370a <_mlir_ciface_stdSortF64+0xaa>
    80003674:	699c                	ld	a5,16(a1)
    80003676:	6584                	ld	s1,8(a1)
    80003678:	00351413          	slli	s0,a0,0x3
    8000367c:	078e                	slli	a5,a5,0x3
    8000367e:	94be                	add	s1,s1,a5
    80003680:	00848933          	add	s2,s1,s0
    80003684:	05248e63          	beq	s1,s2,800036e0 <_mlir_ciface_stdSortF64+0x80>
    80003688:	40345513          	srai	a0,s0,0x3
    8000368c:	320000ef          	jal	ra,800039ac <__clzdi2>
    80003690:	03f00613          	li	a2,63
    80003694:	9e09                	subw	a2,a2,a0
    80003696:	0606                	slli	a2,a2,0x1
    80003698:	85ca                	mv	a1,s2
    8000369a:	8526                	mv	a0,s1
    8000369c:	9a5ff0ef          	jal	ra,80003040 <_ZSt16__introsort_loopIPdlN9__gnu_cxx5__ops15_Iter_less_iterEEvT_S4_T0_T1_.isra.0>
    800036a0:	08000793          	li	a5,128
    800036a4:	0487d463          	bge	a5,s0,800036ec <_mlir_ciface_stdSortF64+0x8c>
    800036a8:	08048413          	addi	s0,s1,128
    800036ac:	85a2                	mv	a1,s0
    800036ae:	8526                	mv	a0,s1
    800036b0:	f48ff0ef          	jal	ra,80002df8 <_ZSt16__insertion_sortIPdN9__gnu_cxx5__ops15_Iter_less_iterEEvT_S4_T0_.isra.0>
    800036b4:	02890663          	beq	s2,s0,800036e0 <_mlir_ciface_stdSortF64+0x80>
    800036b8:	2018                	fld	fa4,0(s0)
    800036ba:	ff843787          	fld	fa5,-8(s0)
    800036be:	ff840793          	addi	a5,s0,-8
    800036c2:	a2f71753          	flt.d	a4,fa4,fa5
    800036c6:	cf05                	beqz	a4,800036fe <_mlir_ciface_stdSortF64+0x9e>
    800036c8:	a79c                	fsd	fa5,8(a5)
    800036ca:	ff87b787          	fld	fa5,-8(a5)
    800036ce:	86be                	mv	a3,a5
    800036d0:	17e1                	addi	a5,a5,-8
    800036d2:	a2f71753          	flt.d	a4,fa4,fa5
    800036d6:	fb6d                	bnez	a4,800036c8 <_mlir_ciface_stdSortF64+0x68>
    800036d8:	a298                	fsd	fa4,0(a3)
    800036da:	0421                	addi	s0,s0,8
    800036dc:	fc891ee3          	bne	s2,s0,800036b8 <_mlir_ciface_stdSortF64+0x58>
    800036e0:	60e2                	ld	ra,24(sp)
    800036e2:	6442                	ld	s0,16(sp)
    800036e4:	64a2                	ld	s1,8(sp)
    800036e6:	6902                	ld	s2,0(sp)
    800036e8:	6105                	addi	sp,sp,32
    800036ea:	8082                	ret
    800036ec:	6442                	ld	s0,16(sp)
    800036ee:	60e2                	ld	ra,24(sp)
    800036f0:	85ca                	mv	a1,s2
    800036f2:	8526                	mv	a0,s1
    800036f4:	6902                	ld	s2,0(sp)
    800036f6:	64a2                	ld	s1,8(sp)
    800036f8:	6105                	addi	sp,sp,32
    800036fa:	efeff06f          	j	80002df8 <_ZSt16__insertion_sortIPdN9__gnu_cxx5__ops15_Iter_less_iterEEvT_S4_T0_.isra.0>
    800036fe:	86a2                	mv	a3,s0
    80003700:	a298                	fsd	fa4,0(a3)
    80003702:	0421                	addi	s0,s0,8
    80003704:	fa891ae3          	bne	s2,s0,800036b8 <_mlir_ciface_stdSortF64+0x58>
    80003708:	bfe1                	j	800036e0 <_mlir_ciface_stdSortF64+0x80>
    8000370a:	0000a697          	auipc	a3,0xa
    8000370e:	29e68693          	addi	a3,a3,670 # 8000d9a8 <_conv_stat+0x34a>
    80003712:	0000a617          	auipc	a2,0xa
    80003716:	2ae60613          	addi	a2,a2,686 # 8000d9c0 <_conv_stat+0x362>
    8000371a:	0ba00593          	li	a1,186
    8000371e:	0000a517          	auipc	a0,0xa
    80003722:	23a50513          	addi	a0,a0,570 # 8000d958 <_conv_stat+0x2fa>
    80003726:	435010ef          	jal	ra,8000535a <__assert_func>
    8000372a:	0000a697          	auipc	a3,0xa
    8000372e:	1de68693          	addi	a3,a3,478 # 8000d908 <_conv_stat+0x2aa>
    80003732:	0000a617          	auipc	a2,0xa
    80003736:	28e60613          	addi	a2,a2,654 # 8000d9c0 <_conv_stat+0x362>
    8000373a:	0ba00593          	li	a1,186
    8000373e:	0000a517          	auipc	a0,0xa
    80003742:	21a50513          	addi	a0,a0,538 # 8000d958 <_conv_stat+0x2fa>
    80003746:	415010ef          	jal	ra,8000535a <__assert_func>

000000008000374a <_mlir_ciface_stdSortF32>:
    8000374a:	1101                	addi	sp,sp,-32
    8000374c:	ec06                	sd	ra,24(sp)
    8000374e:	e822                	sd	s0,16(sp)
    80003750:	e426                	sd	s1,8(sp)
    80003752:	e04a                	sd	s2,0(sp)
    80003754:	c5e1                	beqz	a1,8000381c <_mlir_ciface_stdSortF32+0xd2>
    80003756:	7198                	ld	a4,32(a1)
    80003758:	4785                	li	a5,1
    8000375a:	0af71163          	bne	a4,a5,800037fc <_mlir_ciface_stdSortF32+0xb2>
    8000375e:	699c                	ld	a5,16(a1)
    80003760:	6584                	ld	s1,8(a1)
    80003762:	00251413          	slli	s0,a0,0x2
    80003766:	078a                	slli	a5,a5,0x2
    80003768:	94be                	add	s1,s1,a5
    8000376a:	00848933          	add	s2,s1,s0
    8000376e:	07248163          	beq	s1,s2,800037d0 <_mlir_ciface_stdSortF32+0x86>
    80003772:	40245513          	srai	a0,s0,0x2
    80003776:	236000ef          	jal	ra,800039ac <__clzdi2>
    8000377a:	03f00613          	li	a2,63
    8000377e:	9e09                	subw	a2,a2,a0
    80003780:	0606                	slli	a2,a2,0x1
    80003782:	85ca                	mv	a1,s2
    80003784:	8526                	mv	a0,s1
    80003786:	f64ff0ef          	jal	ra,80002eea <_ZSt16__introsort_loopIPflN9__gnu_cxx5__ops15_Iter_less_iterEEvT_S4_T0_T1_.isra.0>
    8000378a:	04000793          	li	a5,64
    8000378e:	0487d763          	bge	a5,s0,800037dc <_mlir_ciface_stdSortF32+0x92>
    80003792:	04048413          	addi	s0,s1,64
    80003796:	85a2                	mv	a1,s0
    80003798:	8526                	mv	a0,s1
    8000379a:	ddaff0ef          	jal	ra,80002d74 <_ZSt16__insertion_sortIPfN9__gnu_cxx5__ops15_Iter_less_iterEEvT_S4_T0_.isra.0>
    8000379e:	02890963          	beq	s2,s0,800037d0 <_mlir_ciface_stdSortF32+0x86>
    800037a2:	00042707          	flw	fa4,0(s0)
    800037a6:	ffc42787          	flw	fa5,-4(s0)
    800037aa:	ffc40793          	addi	a5,s0,-4
    800037ae:	a0f71753          	flt.s	a4,fa4,fa5
    800037b2:	cf15                	beqz	a4,800037ee <_mlir_ciface_stdSortF32+0xa4>
    800037b4:	00f7a227          	fsw	fa5,4(a5)
    800037b8:	ffc7a787          	flw	fa5,-4(a5)
    800037bc:	86be                	mv	a3,a5
    800037be:	17f1                	addi	a5,a5,-4
    800037c0:	a0f71753          	flt.s	a4,fa4,fa5
    800037c4:	fb65                	bnez	a4,800037b4 <_mlir_ciface_stdSortF32+0x6a>
    800037c6:	00e6a027          	fsw	fa4,0(a3)
    800037ca:	0411                	addi	s0,s0,4
    800037cc:	fc891be3          	bne	s2,s0,800037a2 <_mlir_ciface_stdSortF32+0x58>
    800037d0:	60e2                	ld	ra,24(sp)
    800037d2:	6442                	ld	s0,16(sp)
    800037d4:	64a2                	ld	s1,8(sp)
    800037d6:	6902                	ld	s2,0(sp)
    800037d8:	6105                	addi	sp,sp,32
    800037da:	8082                	ret
    800037dc:	6442                	ld	s0,16(sp)
    800037de:	60e2                	ld	ra,24(sp)
    800037e0:	85ca                	mv	a1,s2
    800037e2:	8526                	mv	a0,s1
    800037e4:	6902                	ld	s2,0(sp)
    800037e6:	64a2                	ld	s1,8(sp)
    800037e8:	6105                	addi	sp,sp,32
    800037ea:	d8aff06f          	j	80002d74 <_ZSt16__insertion_sortIPfN9__gnu_cxx5__ops15_Iter_less_iterEEvT_S4_T0_.isra.0>
    800037ee:	86a2                	mv	a3,s0
    800037f0:	00e6a027          	fsw	fa4,0(a3)
    800037f4:	0411                	addi	s0,s0,4
    800037f6:	fa8916e3          	bne	s2,s0,800037a2 <_mlir_ciface_stdSortF32+0x58>
    800037fa:	bfd9                	j	800037d0 <_mlir_ciface_stdSortF32+0x86>
    800037fc:	0000a697          	auipc	a3,0xa
    80003800:	1ac68693          	addi	a3,a3,428 # 8000d9a8 <_conv_stat+0x34a>
    80003804:	0000a617          	auipc	a2,0xa
    80003808:	20460613          	addi	a2,a2,516 # 8000da08 <_conv_stat+0x3aa>
    8000380c:	0bb00593          	li	a1,187
    80003810:	0000a517          	auipc	a0,0xa
    80003814:	14850513          	addi	a0,a0,328 # 8000d958 <_conv_stat+0x2fa>
    80003818:	343010ef          	jal	ra,8000535a <__assert_func>
    8000381c:	0000a697          	auipc	a3,0xa
    80003820:	0ec68693          	addi	a3,a3,236 # 8000d908 <_conv_stat+0x2aa>
    80003824:	0000a617          	auipc	a2,0xa
    80003828:	1e460613          	addi	a2,a2,484 # 8000da08 <_conv_stat+0x3aa>
    8000382c:	0bb00593          	li	a1,187
    80003830:	0000a517          	auipc	a0,0xa
    80003834:	12850513          	addi	a0,a0,296 # 8000d958 <_conv_stat+0x2fa>
    80003838:	323010ef          	jal	ra,8000535a <__assert_func>

000000008000383c <_ZNSt24uniform_int_distributionImEclISt23mersenne_twister_engineIjLm32ELm624ELm397ELm31ELj2567483615ELm11ELj4294967295ELm7ELj2636928640ELm15ELj4022730752ELm18ELj1812433253EEEEmRT_RKNS0_10param_typeE.isra.0>:
    8000383c:	7179                	addi	sp,sp,-48
    8000383e:	57fd                	li	a5,-1
    80003840:	f022                	sd	s0,32(sp)
    80003842:	ec26                	sd	s1,24(sp)
    80003844:	e84a                	sd	s2,16(sp)
    80003846:	f406                	sd	ra,40(sp)
    80003848:	e44e                	sd	s3,8(sp)
    8000384a:	e052                	sd	s4,0(sp)
    8000384c:	40b60933          	sub	s2,a2,a1
    80003850:	9381                	srli	a5,a5,0x20
    80003852:	842e                	mv	s0,a1
    80003854:	84aa                	mv	s1,a0
    80003856:	04f96463          	bltu	s2,a5,8000389e <_ZNSt24uniform_int_distributionImEclISt23mersenne_twister_engineIjLm32ELm624ELm397ELm31ELj2567483615ELm11ELj4294967295ELm7ELj2636928640ELm15ELj4022730752ELm18ELj1812433253EEEEmRT_RKNS0_10param_typeE.isra.0+0x62>
    8000385a:	08f90563          	beq	s2,a5,800038e4 <_ZNSt24uniform_int_distributionImEclISt23mersenne_twister_engineIjLm32ELm624ELm397ELm31ELj2567483615ELm11ELj4294967295ELm7ELj2636928640ELm15ELj4022730752ELm18ELj1812433253EEEEmRT_RKNS0_10param_typeE.isra.0+0xa8>
    8000385e:	02095a13          	srli	s4,s2,0x20
    80003862:	8652                	mv	a2,s4
    80003864:	4581                	li	a1,0
    80003866:	8526                	mv	a0,s1
    80003868:	fd5ff0ef          	jal	ra,8000383c <_ZNSt24uniform_int_distributionImEclISt23mersenne_twister_engineIjLm32ELm624ELm397ELm31ELj2567483615ELm11ELj4294967295ELm7ELj2636928640ELm15ELj4022730752ELm18ELj1812433253EEEEmRT_RKNS0_10param_typeE.isra.0>
    8000386c:	89aa                	mv	s3,a0
    8000386e:	8526                	mv	a0,s1
    80003870:	269010ef          	jal	ra,800052d8 <_ZNSt23mersenne_twister_engineIjLm32ELm624ELm397ELm31ELj2567483615ELm11ELj4294967295ELm7ELj2636928640ELm15ELj4022730752ELm18ELj1812433253EEclEv>
    80003874:	02051713          	slli	a4,a0,0x20
    80003878:	02099693          	slli	a3,s3,0x20
    8000387c:	9301                	srli	a4,a4,0x20
    8000387e:	9736                	add	a4,a4,a3
    80003880:	853a                	mv	a0,a4
    80003882:	00d73733          	sltu	a4,a4,a3
    80003886:	fca96ee3          	bltu	s2,a0,80003862 <_ZNSt24uniform_int_distributionImEclISt23mersenne_twister_engineIjLm32ELm624ELm397ELm31ELj2567483615ELm11ELj4294967295ELm7ELj2636928640ELm15ELj4022730752ELm18ELj1812433253EEEEmRT_RKNS0_10param_typeE.isra.0+0x26>
    8000388a:	ff61                	bnez	a4,80003862 <_ZNSt24uniform_int_distributionImEclISt23mersenne_twister_engineIjLm32ELm624ELm397ELm31ELj2567483615ELm11ELj4294967295ELm7ELj2636928640ELm15ELj4022730752ELm18ELj1812433253EEEEmRT_RKNS0_10param_typeE.isra.0+0x26>
    8000388c:	70a2                	ld	ra,40(sp)
    8000388e:	9522                	add	a0,a0,s0
    80003890:	7402                	ld	s0,32(sp)
    80003892:	64e2                	ld	s1,24(sp)
    80003894:	6942                	ld	s2,16(sp)
    80003896:	69a2                	ld	s3,8(sp)
    80003898:	6a02                	ld	s4,0(sp)
    8000389a:	6145                	addi	sp,sp,48
    8000389c:	8082                	ret
    8000389e:	23b010ef          	jal	ra,800052d8 <_ZNSt23mersenne_twister_engineIjLm32ELm624ELm397ELm31ELj2567483615ELm11ELj4294967295ELm7ELj2636928640ELm15ELj4022730752ELm18ELj1812433253EEclEv>
    800038a2:	02051793          	slli	a5,a0,0x20
    800038a6:	0905                	addi	s2,s2,1
    800038a8:	9381                	srli	a5,a5,0x20
    800038aa:	032787b3          	mul	a5,a5,s2
    800038ae:	0009071b          	sext.w	a4,s2
    800038b2:	0007869b          	sext.w	a3,a5
    800038b6:	02e6f463          	bgeu	a3,a4,800038de <_ZNSt24uniform_int_distributionImEclISt23mersenne_twister_engineIjLm32ELm624ELm397ELm31ELj2567483615ELm11ELj4294967295ELm7ELj2636928640ELm15ELj4022730752ELm18ELj1812433253EEEEmRT_RKNS0_10param_typeE.isra.0+0xa2>
    800038ba:	40e009bb          	negw	s3,a4
    800038be:	02e9f9bb          	remuw	s3,s3,a4
    800038c2:	0136fe63          	bgeu	a3,s3,800038de <_ZNSt24uniform_int_distributionImEclISt23mersenne_twister_engineIjLm32ELm624ELm397ELm31ELj2567483615ELm11ELj4294967295ELm7ELj2636928640ELm15ELj4022730752ELm18ELj1812433253EEEEmRT_RKNS0_10param_typeE.isra.0+0xa2>
    800038c6:	8526                	mv	a0,s1
    800038c8:	211010ef          	jal	ra,800052d8 <_ZNSt23mersenne_twister_engineIjLm32ELm624ELm397ELm31ELj2567483615ELm11ELj4294967295ELm7ELj2636928640ELm15ELj4022730752ELm18ELj1812433253EEclEv>
    800038cc:	02051793          	slli	a5,a0,0x20
    800038d0:	9381                	srli	a5,a5,0x20
    800038d2:	032787b3          	mul	a5,a5,s2
    800038d6:	0007871b          	sext.w	a4,a5
    800038da:	ff3766e3          	bltu	a4,s3,800038c6 <_ZNSt24uniform_int_distributionImEclISt23mersenne_twister_engineIjLm32ELm624ELm397ELm31ELj2567483615ELm11ELj4294967295ELm7ELj2636928640ELm15ELj4022730752ELm18ELj1812433253EEEEmRT_RKNS0_10param_typeE.isra.0+0x8a>
    800038de:	0207d513          	srli	a0,a5,0x20
    800038e2:	b76d                	j	8000388c <_ZNSt24uniform_int_distributionImEclISt23mersenne_twister_engineIjLm32ELm624ELm397ELm31ELj2567483615ELm11ELj4294967295ELm7ELj2636928640ELm15ELj4022730752ELm18ELj1812433253EEEEmRT_RKNS0_10param_typeE.isra.0+0x50>
    800038e4:	1f5010ef          	jal	ra,800052d8 <_ZNSt23mersenne_twister_engineIjLm32ELm624ELm397ELm31ELj2567483615ELm11ELj4294967295ELm7ELj2636928640ELm15ELj4022730752ELm18ELj1812433253EEclEv>
    800038e8:	1502                	slli	a0,a0,0x20
    800038ea:	9101                	srli	a0,a0,0x20
    800038ec:	b745                	j	8000388c <_ZNSt24uniform_int_distributionImEclISt23mersenne_twister_engineIjLm32ELm624ELm397ELm31ELj2567483615ELm11ELj4294967295ELm7ELj2636928640ELm15ELj4022730752ELm18ELj1812433253EEEEmRT_RKNS0_10param_typeE.isra.0+0x50>

00000000800038ee <rtrand>:
    800038ee:	862e                	mv	a2,a1
    800038f0:	4581                	li	a1,0
    800038f2:	b7a9                	j	8000383c <_ZNSt24uniform_int_distributionImEclISt23mersenne_twister_engineIjLm32ELm624ELm397ELm31ELj2567483615ELm11ELj4294967295ELm7ELj2636928640ELm15ELj4022730752ELm18ELj1812433253EEEEmRT_RKNS0_10param_typeE.isra.0>

00000000800038f4 <__wrap_malloc>:
    800038f4:	1141                	addi	sp,sp,-16
    800038f6:	e422                	sd	s0,8(sp)
    800038f8:	0800                	addi	s0,sp,16
    800038fa:	479d                	li	a5,7
    800038fc:	4641                	li	a2,16
    800038fe:	00a7f763          	bgeu	a5,a0,8000390c <__wrap_malloc+0x18>
    80003902:	40a00633          	neg	a2,a0
    80003906:	8a1d                	andi	a2,a2,7
    80003908:	0521                	addi	a0,a0,8
    8000390a:	962a                	add	a2,a2,a0
    8000390c:	8c018593          	addi	a1,gp,-1856 # 800101a0 <__malloc_freelist>
    80003910:	619c                	ld	a5,0(a1)
    80003912:	cbc1                	beqz	a5,800039a2 <__wrap_malloc+0xae>
    80003914:	6394                	ld	a3,0(a5)
    80003916:	6798                	ld	a4,8(a5)
    80003918:	00c6fa63          	bgeu	a3,a2,8000392c <__wrap_malloc+0x38>
    8000391c:	c315                	beqz	a4,80003940 <__wrap_malloc+0x4c>
    8000391e:	00878593          	addi	a1,a5,8
    80003922:	87ba                	mv	a5,a4
    80003924:	6394                	ld	a3,0(a5)
    80003926:	6798                	ld	a4,8(a5)
    80003928:	fec6eae3          	bltu	a3,a2,8000391c <__wrap_malloc+0x28>
    8000392c:	01060513          	addi	a0,a2,16
    80003930:	02a6fe63          	bgeu	a3,a0,8000396c <__wrap_malloc+0x78>
    80003934:	6422                	ld	s0,8(sp)
    80003936:	e198                	sd	a4,0(a1)
    80003938:	00878513          	addi	a0,a5,8
    8000393c:	0141                	addi	sp,sp,16
    8000393e:	8082                	ret
    80003940:	89818813          	addi	a6,gp,-1896 # 80010178 <__malloc_end>
    80003944:	00083503          	ld	a0,0(a6)
    80003948:	00f68733          	add	a4,a3,a5
    8000394c:	02e50c63          	beq	a0,a4,80003984 <__wrap_malloc+0x90>
    80003950:	fe040793          	addi	a5,s0,-32
    80003954:	8f89                	sub	a5,a5,a0
    80003956:	02c7e363          	bltu	a5,a2,8000397c <__wrap_malloc+0x88>
    8000395a:	00c507b3          	add	a5,a0,a2
    8000395e:	00f83023          	sd	a5,0(a6)
    80003962:	6422                	ld	s0,8(sp)
    80003964:	e110                	sd	a2,0(a0)
    80003966:	0521                	addi	a0,a0,8
    80003968:	0141                	addi	sp,sp,16
    8000396a:	8082                	ret
    8000396c:	00c78533          	add	a0,a5,a2
    80003970:	e188                	sd	a0,0(a1)
    80003972:	8e91                	sub	a3,a3,a2
    80003974:	e114                	sd	a3,0(a0)
    80003976:	e518                	sd	a4,8(a0)
    80003978:	853e                	mv	a0,a5
    8000397a:	b7e5                	j	80003962 <__wrap_malloc+0x6e>
    8000397c:	6422                	ld	s0,8(sp)
    8000397e:	4501                	li	a0,0
    80003980:	0141                	addi	sp,sp,16
    80003982:	8082                	ret
    80003984:	40a40733          	sub	a4,s0,a0
    80003988:	1701                	addi	a4,a4,-32
    8000398a:	40d606b3          	sub	a3,a2,a3
    8000398e:	fed767e3          	bltu	a4,a3,8000397c <__wrap_malloc+0x88>
    80003992:	0005b023          	sd	zero,0(a1)
    80003996:	00c78733          	add	a4,a5,a2
    8000399a:	00e83023          	sd	a4,0(a6)
    8000399e:	853e                	mv	a0,a5
    800039a0:	b7c9                	j	80003962 <__wrap_malloc+0x6e>
    800039a2:	89818813          	addi	a6,gp,-1896 # 80010178 <__malloc_end>
    800039a6:	00083503          	ld	a0,0(a6)
    800039aa:	b75d                	j	80003950 <__wrap_malloc+0x5c>

00000000800039ac <__clzdi2>:
    800039ac:	03855793          	srli	a5,a0,0x38
    800039b0:	eb8d                	bnez	a5,800039e2 <__clzdi2+0x36>
    800039b2:	03800793          	li	a5,56
    800039b6:	17e1                	addi	a5,a5,-8
    800039b8:	c791                	beqz	a5,800039c4 <__clzdi2+0x18>
    800039ba:	00f55733          	srl	a4,a0,a5
    800039be:	0ff77713          	zext.b	a4,a4
    800039c2:	db75                	beqz	a4,800039b6 <__clzdi2+0xa>
    800039c4:	04000713          	li	a4,64
    800039c8:	8f1d                	sub	a4,a4,a5
    800039ca:	00f55533          	srl	a0,a0,a5
    800039ce:	0000a797          	auipc	a5,0xa
    800039d2:	53a78793          	addi	a5,a5,1338 # 8000df08 <__clz_tab>
    800039d6:	97aa                	add	a5,a5,a0
    800039d8:	0007c503          	lbu	a0,0(a5)
    800039dc:	40a7053b          	subw	a0,a4,a0
    800039e0:	8082                	ret
    800039e2:	03800793          	li	a5,56
    800039e6:	bff9                	j	800039c4 <__clzdi2+0x18>

00000000800039e8 <__eqtf2>:
    800039e8:	002027f3          	frrm	a5
    800039ec:	67a1                	lui	a5,0x8
    800039ee:	0305d813          	srli	a6,a1,0x30
    800039f2:	17fd                	addi	a5,a5,-1 # 7fff <_tbss_end+0x7fbb>
    800039f4:	5e7d                	li	t3,-1
    800039f6:	010e5713          	srli	a4,t3,0x10
    800039fa:	0306d313          	srli	t1,a3,0x30
    800039fe:	00f87833          	and	a6,a6,a5
    80003a02:	00e5f8b3          	and	a7,a1,a4
    80003a06:	00f37333          	and	t1,t1,a5
    80003a0a:	8f75                	and	a4,a4,a3
    80003a0c:	91fd                	srli	a1,a1,0x3f
    80003a0e:	92fd                	srli	a3,a3,0x3f
    80003a10:	00f81f63          	bne	a6,a5,80003a2e <__eqtf2+0x46>
    80003a14:	00a8e533          	or	a0,a7,a0
    80003a18:	e90d                	bnez	a0,80003a4a <__eqtf2+0x62>
    80003a1a:	4785                	li	a5,1
    80003a1c:	01031763          	bne	t1,a6,80003a2a <__eqtf2+0x42>
    80003a20:	8e59                	or	a2,a2,a4
    80003a22:	ea19                	bnez	a2,80003a38 <__eqtf2+0x50>
    80003a24:	8d95                	sub	a1,a1,a3
    80003a26:	00b037b3          	snez	a5,a1
    80003a2a:	853e                	mv	a0,a5
    80003a2c:	a805                	j	80003a5c <__eqtf2+0x74>
    80003a2e:	02f31863          	bne	t1,a5,80003a5e <__eqtf2+0x76>
    80003a32:	8e59                	or	a2,a2,a4
    80003a34:	4785                	li	a5,1
    80003a36:	da75                	beqz	a2,80003a2a <__eqtf2+0x42>
    80003a38:	57fd                	li	a5,-1
    80003a3a:	83c5                	srli	a5,a5,0x11
    80003a3c:	4505                	li	a0,1
    80003a3e:	00e7ef63          	bltu	a5,a4,80003a5c <__eqtf2+0x74>
    80003a42:	00186073          	csrsi	fflags,16
    80003a46:	4505                	li	a0,1
    80003a48:	8082                	ret
    80003a4a:	011e5e13          	srli	t3,t3,0x11
    80003a4e:	ff1e7ae3          	bgeu	t3,a7,80003a42 <__eqtf2+0x5a>
    80003a52:	4505                	li	a0,1
    80003a54:	01031463          	bne	t1,a6,80003a5c <__eqtf2+0x74>
    80003a58:	8e59                	or	a2,a2,a4
    80003a5a:	fe79                	bnez	a2,80003a38 <__eqtf2+0x50>
    80003a5c:	8082                	ret
    80003a5e:	4785                	li	a5,1
    80003a60:	fc6815e3          	bne	a6,t1,80003a2a <__eqtf2+0x42>
    80003a64:	fce893e3          	bne	a7,a4,80003a2a <__eqtf2+0x42>
    80003a68:	fcc511e3          	bne	a0,a2,80003a2a <__eqtf2+0x42>
    80003a6c:	00d58963          	beq	a1,a3,80003a7e <__eqtf2+0x96>
    80003a70:	fa081de3          	bnez	a6,80003a2a <__eqtf2+0x42>
    80003a74:	00a8e8b3          	or	a7,a7,a0
    80003a78:	011037b3          	snez	a5,a7
    80003a7c:	b77d                	j	80003a2a <__eqtf2+0x42>
    80003a7e:	4781                	li	a5,0
    80003a80:	b76d                	j	80003a2a <__eqtf2+0x42>

0000000080003a82 <__getf2>:
    80003a82:	832a                	mv	t1,a0
    80003a84:	002027f3          	frrm	a5
    80003a88:	6e21                	lui	t3,0x8
    80003a8a:	0305d893          	srli	a7,a1,0x30
    80003a8e:	1e7d                	addi	t3,t3,-1 # 7fff <_tbss_end+0x7fbb>
    80003a90:	577d                	li	a4,-1
    80003a92:	8341                	srli	a4,a4,0x10
    80003a94:	0306d793          	srli	a5,a3,0x30
    80003a98:	01c8f8b3          	and	a7,a7,t3
    80003a9c:	00e5f833          	and	a6,a1,a4
    80003aa0:	01c7f533          	and	a0,a5,t3
    80003aa4:	8f75                	and	a4,a4,a3
    80003aa6:	91fd                	srli	a1,a1,0x3f
    80003aa8:	92fd                	srli	a3,a3,0x3f
    80003aaa:	03c89263          	bne	a7,t3,80003ace <__getf2+0x4c>
    80003aae:	00686833          	or	a6,a6,t1
    80003ab2:	08081463          	bnez	a6,80003b3a <__getf2+0xb8>
    80003ab6:	01150663          	beq	a0,a7,80003ac2 <__getf2+0x40>
    80003aba:	4505                	li	a0,1
    80003abc:	cdb5                	beqz	a1,80003b38 <__getf2+0xb6>
    80003abe:	557d                	li	a0,-1
    80003ac0:	8082                	ret
    80003ac2:	8f51                	or	a4,a4,a2
    80003ac4:	eb3d                	bnez	a4,80003b3a <__getf2+0xb8>
    80003ac6:	fed59ae3          	bne	a1,a3,80003aba <__getf2+0x38>
    80003aca:	4501                	li	a0,0
    80003acc:	8082                	ret
    80003ace:	03c51463          	bne	a0,t3,80003af6 <__getf2+0x74>
    80003ad2:	8f51                	or	a4,a4,a2
    80003ad4:	e33d                	bnez	a4,80003b3a <__getf2+0xb8>
    80003ad6:	00088863          	beqz	a7,80003ae6 <__getf2+0x64>
    80003ada:	fed590e3          	bne	a1,a3,80003aba <__getf2+0x38>
    80003ade:	557d                	li	a0,-1
    80003ae0:	cda1                	beqz	a1,80003b38 <__getf2+0xb6>
    80003ae2:	852e                	mv	a0,a1
    80003ae4:	8082                	ret
    80003ae6:	00686833          	or	a6,a6,t1
    80003aea:	fe0818e3          	bnez	a6,80003ada <__getf2+0x58>
    80003aee:	557d                	li	a0,-1
    80003af0:	c6a1                	beqz	a3,80003b38 <__getf2+0xb6>
    80003af2:	8536                	mv	a0,a3
    80003af4:	8082                	ret
    80003af6:	02088363          	beqz	a7,80003b1c <__getf2+0x9a>
    80003afa:	d161                	beqz	a0,80003aba <__getf2+0x38>
    80003afc:	fad59fe3          	bne	a1,a3,80003aba <__getf2+0x38>
    80003b00:	fb154de3          	blt	a0,a7,80003aba <__getf2+0x38>
    80003b04:	fca8cde3          	blt	a7,a0,80003ade <__getf2+0x5c>
    80003b08:	fb0769e3          	bltu	a4,a6,80003aba <__getf2+0x38>
    80003b0c:	fce819e3          	bne	a6,a4,80003ade <__getf2+0x5c>
    80003b10:	fa6665e3          	bltu	a2,t1,80003aba <__getf2+0x38>
    80003b14:	4501                	li	a0,0
    80003b16:	02c37163          	bgeu	t1,a2,80003b38 <__getf2+0xb6>
    80003b1a:	b7d1                	j	80003ade <__getf2+0x5c>
    80003b1c:	006867b3          	or	a5,a6,t1
    80003b20:	c119                	beqz	a0,80003b26 <__getf2+0xa4>
    80003b22:	d7f1                	beqz	a5,80003aee <__getf2+0x6c>
    80003b24:	bf5d                	j	80003ada <__getf2+0x58>
    80003b26:	00c768b3          	or	a7,a4,a2
    80003b2a:	00088663          	beqz	a7,80003b36 <__getf2+0xb4>
    80003b2e:	d3e1                	beqz	a5,80003aee <__getf2+0x6c>
    80003b30:	fcd58ce3          	beq	a1,a3,80003b08 <__getf2+0x86>
    80003b34:	b759                	j	80003aba <__getf2+0x38>
    80003b36:	f3d1                	bnez	a5,80003aba <__getf2+0x38>
    80003b38:	8082                	ret
    80003b3a:	00186073          	csrsi	fflags,16
    80003b3e:	5579                	li	a0,-2
    80003b40:	8082                	ret

0000000080003b42 <__letf2>:
    80003b42:	832a                	mv	t1,a0
    80003b44:	002027f3          	frrm	a5
    80003b48:	6e21                	lui	t3,0x8
    80003b4a:	0305d893          	srli	a7,a1,0x30
    80003b4e:	1e7d                	addi	t3,t3,-1 # 7fff <_tbss_end+0x7fbb>
    80003b50:	577d                	li	a4,-1
    80003b52:	8341                	srli	a4,a4,0x10
    80003b54:	0306d793          	srli	a5,a3,0x30
    80003b58:	01c8f8b3          	and	a7,a7,t3
    80003b5c:	00e5f833          	and	a6,a1,a4
    80003b60:	01c7f533          	and	a0,a5,t3
    80003b64:	8f75                	and	a4,a4,a3
    80003b66:	91fd                	srli	a1,a1,0x3f
    80003b68:	92fd                	srli	a3,a3,0x3f
    80003b6a:	03c89263          	bne	a7,t3,80003b8e <__letf2+0x4c>
    80003b6e:	00686833          	or	a6,a6,t1
    80003b72:	08081463          	bnez	a6,80003bfa <__letf2+0xb8>
    80003b76:	01150663          	beq	a0,a7,80003b82 <__letf2+0x40>
    80003b7a:	4505                	li	a0,1
    80003b7c:	cdb5                	beqz	a1,80003bf8 <__letf2+0xb6>
    80003b7e:	557d                	li	a0,-1
    80003b80:	8082                	ret
    80003b82:	8f51                	or	a4,a4,a2
    80003b84:	eb3d                	bnez	a4,80003bfa <__letf2+0xb8>
    80003b86:	fed59ae3          	bne	a1,a3,80003b7a <__letf2+0x38>
    80003b8a:	4501                	li	a0,0
    80003b8c:	8082                	ret
    80003b8e:	03c51463          	bne	a0,t3,80003bb6 <__letf2+0x74>
    80003b92:	8f51                	or	a4,a4,a2
    80003b94:	e33d                	bnez	a4,80003bfa <__letf2+0xb8>
    80003b96:	00088863          	beqz	a7,80003ba6 <__letf2+0x64>
    80003b9a:	fed590e3          	bne	a1,a3,80003b7a <__letf2+0x38>
    80003b9e:	557d                	li	a0,-1
    80003ba0:	cda1                	beqz	a1,80003bf8 <__letf2+0xb6>
    80003ba2:	852e                	mv	a0,a1
    80003ba4:	8082                	ret
    80003ba6:	00686833          	or	a6,a6,t1
    80003baa:	fe0818e3          	bnez	a6,80003b9a <__letf2+0x58>
    80003bae:	557d                	li	a0,-1
    80003bb0:	c6a1                	beqz	a3,80003bf8 <__letf2+0xb6>
    80003bb2:	8536                	mv	a0,a3
    80003bb4:	8082                	ret
    80003bb6:	02088363          	beqz	a7,80003bdc <__letf2+0x9a>
    80003bba:	d161                	beqz	a0,80003b7a <__letf2+0x38>
    80003bbc:	fad59fe3          	bne	a1,a3,80003b7a <__letf2+0x38>
    80003bc0:	fb154de3          	blt	a0,a7,80003b7a <__letf2+0x38>
    80003bc4:	fca8cde3          	blt	a7,a0,80003b9e <__letf2+0x5c>
    80003bc8:	fb0769e3          	bltu	a4,a6,80003b7a <__letf2+0x38>
    80003bcc:	fce819e3          	bne	a6,a4,80003b9e <__letf2+0x5c>
    80003bd0:	fa6665e3          	bltu	a2,t1,80003b7a <__letf2+0x38>
    80003bd4:	4501                	li	a0,0
    80003bd6:	02c37163          	bgeu	t1,a2,80003bf8 <__letf2+0xb6>
    80003bda:	b7d1                	j	80003b9e <__letf2+0x5c>
    80003bdc:	006867b3          	or	a5,a6,t1
    80003be0:	c119                	beqz	a0,80003be6 <__letf2+0xa4>
    80003be2:	d7f1                	beqz	a5,80003bae <__letf2+0x6c>
    80003be4:	bf5d                	j	80003b9a <__letf2+0x58>
    80003be6:	00c768b3          	or	a7,a4,a2
    80003bea:	00088663          	beqz	a7,80003bf6 <__letf2+0xb4>
    80003bee:	d3e1                	beqz	a5,80003bae <__letf2+0x6c>
    80003bf0:	fcd58ce3          	beq	a1,a3,80003bc8 <__letf2+0x86>
    80003bf4:	b759                	j	80003b7a <__letf2+0x38>
    80003bf6:	f3d1                	bnez	a5,80003b7a <__letf2+0x38>
    80003bf8:	8082                	ret
    80003bfa:	00186073          	csrsi	fflags,16
    80003bfe:	4509                	li	a0,2
    80003c00:	8082                	ret

0000000080003c02 <__multf3>:
    80003c02:	711d                	addi	sp,sp,-96
    80003c04:	e8a2                	sd	s0,80(sp)
    80003c06:	f852                	sd	s4,48(sp)
    80003c08:	e862                	sd	s8,16(sp)
    80003c0a:	ec86                	sd	ra,88(sp)
    80003c0c:	e4a6                	sd	s1,72(sp)
    80003c0e:	e0ca                	sd	s2,64(sp)
    80003c10:	fc4e                	sd	s3,56(sp)
    80003c12:	f456                	sd	s5,40(sp)
    80003c14:	f05a                	sd	s6,32(sp)
    80003c16:	ec5e                	sd	s7,24(sp)
    80003c18:	e466                	sd	s9,8(sp)
    80003c1a:	842a                	mv	s0,a0
    80003c1c:	8c32                	mv	s8,a2
    80003c1e:	8a36                	mv	s4,a3
    80003c20:	002029f3          	frrm	s3
    80003c24:	6721                	lui	a4,0x8
    80003c26:	0305d793          	srli	a5,a1,0x30
    80003c2a:	177d                	addi	a4,a4,-1 # 7fff <_tbss_end+0x7fbb>
    80003c2c:	01059913          	slli	s2,a1,0x10
    80003c30:	8ff9                	and	a5,a5,a4
    80003c32:	2981                	sext.w	s3,s3
    80003c34:	01095913          	srli	s2,s2,0x10
    80003c38:	03f5da93          	srli	s5,a1,0x3f
    80003c3c:	c795                	beqz	a5,80003c68 <__multf3+0x66>
    80003c3e:	00078c9b          	sext.w	s9,a5
    80003c42:	08e78463          	beq	a5,a4,80003cca <__multf3+0xc8>
    80003c46:	090e                	slli	s2,s2,0x3
    80003c48:	03d55713          	srli	a4,a0,0x3d
    80003c4c:	01276733          	or	a4,a4,s2
    80003c50:	7cf1                	lui	s9,0xffffc
    80003c52:	4905                	li	s2,1
    80003c54:	194e                	slli	s2,s2,0x33
    80003c56:	0c85                	addi	s9,s9,1 # ffffffffffffc001 <_end+0xffffffff7cfeadc1>
    80003c58:	01276933          	or	s2,a4,s2
    80003c5c:	00351b13          	slli	s6,a0,0x3
    80003c60:	9cbe                	add	s9,s9,a5
    80003c62:	4b81                	li	s7,0
    80003c64:	4481                	li	s1,0
    80003c66:	a8b5                	j	80003ce2 <__multf3+0xe0>
    80003c68:	00a96b33          	or	s6,s2,a0
    80003c6c:	0e0b0b63          	beqz	s6,80003d62 <__multf3+0x160>
    80003c70:	02090e63          	beqz	s2,80003cac <__multf3+0xaa>
    80003c74:	854a                	mv	a0,s2
    80003c76:	d37ff0ef          	jal	ra,800039ac <__clzdi2>
    80003c7a:	0005071b          	sext.w	a4,a0
    80003c7e:	ff170793          	addi	a5,a4,-15
    80003c82:	03d00693          	li	a3,61
    80003c86:	0037861b          	addiw	a2,a5,3
    80003c8a:	40f687bb          	subw	a5,a3,a5
    80003c8e:	00c91933          	sll	s2,s2,a2
    80003c92:	00f457b3          	srl	a5,s0,a5
    80003c96:	0127e7b3          	or	a5,a5,s2
    80003c9a:	00c41933          	sll	s2,s0,a2
    80003c9e:	7cf1                	lui	s9,0xffffc
    80003ca0:	0cc5                	addi	s9,s9,17 # ffffffffffffc011 <_end+0xffffffff7cfeadd1>
    80003ca2:	8b4a                	mv	s6,s2
    80003ca4:	40ec8cb3          	sub	s9,s9,a4
    80003ca8:	893e                	mv	s2,a5
    80003caa:	bf65                	j	80003c62 <__multf3+0x60>
    80003cac:	d01ff0ef          	jal	ra,800039ac <__clzdi2>
    80003cb0:	0405071b          	addiw	a4,a0,64
    80003cb4:	ff170793          	addi	a5,a4,-15
    80003cb8:	03c00693          	li	a3,60
    80003cbc:	fcf6d3e3          	bge	a3,a5,80003c82 <__multf3+0x80>
    80003cc0:	fc37879b          	addiw	a5,a5,-61
    80003cc4:	00f417b3          	sll	a5,s0,a5
    80003cc8:	bfd9                	j	80003c9e <__multf3+0x9c>
    80003cca:	00a96b33          	or	s6,s2,a0
    80003cce:	080b0e63          	beqz	s6,80003d6a <__multf3+0x168>
    80003cd2:	4485                	li	s1,1
    80003cd4:	14be                	slli	s1,s1,0x2f
    80003cd6:	009934b3          	sltu	s1,s2,s1
    80003cda:	0044949b          	slliw	s1,s1,0x4
    80003cde:	8b2a                	mv	s6,a0
    80003ce0:	4b8d                	li	s7,3
    80003ce2:	65a1                	lui	a1,0x8
    80003ce4:	030a5613          	srli	a2,s4,0x30
    80003ce8:	56fd                	li	a3,-1
    80003cea:	15fd                	addi	a1,a1,-1 # 7fff <_tbss_end+0x7fbb>
    80003cec:	0106d413          	srli	s0,a3,0x10
    80003cf0:	8e6d                	and	a2,a2,a1
    80003cf2:	008a7433          	and	s0,s4,s0
    80003cf6:	87e2                	mv	a5,s8
    80003cf8:	03fa5a13          	srli	s4,s4,0x3f
    80003cfc:	ca35                	beqz	a2,80003d70 <__multf3+0x16e>
    80003cfe:	0006071b          	sext.w	a4,a2
    80003d02:	0cb60563          	beq	a2,a1,80003dcc <__multf3+0x1ca>
    80003d06:	040e                	slli	s0,s0,0x3
    80003d08:	03dc5713          	srli	a4,s8,0x3d
    80003d0c:	8f41                	or	a4,a4,s0
    80003d0e:	4405                	li	s0,1
    80003d10:	144e                	slli	s0,s0,0x33
    80003d12:	8c59                	or	s0,s0,a4
    80003d14:	7771                	lui	a4,0xffffc
    80003d16:	0705                	addi	a4,a4,1 # ffffffffffffc001 <_end+0xffffffff7cfeadc1>
    80003d18:	003c1793          	slli	a5,s8,0x3
    80003d1c:	9732                	add	a4,a4,a2
    80003d1e:	4881                	li	a7,0
    80003d20:	002b9693          	slli	a3,s7,0x2
    80003d24:	01970833          	add	a6,a4,s9
    80003d28:	0116e6b3          	or	a3,a3,a7
    80003d2c:	4729                	li	a4,10
    80003d2e:	014ac633          	xor	a2,s5,s4
    80003d32:	00180593          	addi	a1,a6,1
    80003d36:	2cd74163          	blt	a4,a3,80003ff8 <__multf3+0x3f6>
    80003d3a:	4709                	li	a4,2
    80003d3c:	0ad74a63          	blt	a4,a3,80003df0 <__multf3+0x1ee>
    80003d40:	16fd                	addi	a3,a3,-1
    80003d42:	4705                	li	a4,1
    80003d44:	0cd76563          	bltu	a4,a3,80003e0e <__multf3+0x20c>
    80003d48:	8bc6                	mv	s7,a7
    80003d4a:	4709                	li	a4,2
    80003d4c:	4ceb8063          	beq	s7,a4,8000420c <__multf3+0x60a>
    80003d50:	470d                	li	a4,3
    80003d52:	4ceb8263          	beq	s7,a4,80004216 <__multf3+0x614>
    80003d56:	4705                	li	a4,1
    80003d58:	26eb9263          	bne	s7,a4,80003fbc <__multf3+0x3ba>
    80003d5c:	4701                	li	a4,0
    80003d5e:	4501                	li	a0,0
    80003d60:	a179                	j	800041ee <__multf3+0x5ec>
    80003d62:	4901                	li	s2,0
    80003d64:	4c81                	li	s9,0
    80003d66:	4b85                	li	s7,1
    80003d68:	bdf5                	j	80003c64 <__multf3+0x62>
    80003d6a:	4901                	li	s2,0
    80003d6c:	4b89                	li	s7,2
    80003d6e:	bddd                	j	80003c64 <__multf3+0x62>
    80003d70:	008c67b3          	or	a5,s8,s0
    80003d74:	c7ad                	beqz	a5,80003dde <__multf3+0x1dc>
    80003d76:	c81d                	beqz	s0,80003dac <__multf3+0x1aa>
    80003d78:	8522                	mv	a0,s0
    80003d7a:	c33ff0ef          	jal	ra,800039ac <__clzdi2>
    80003d7e:	2501                	sext.w	a0,a0
    80003d80:	ff150793          	addi	a5,a0,-15
    80003d84:	03d00713          	li	a4,61
    80003d88:	0037861b          	addiw	a2,a5,3
    80003d8c:	40f707bb          	subw	a5,a4,a5
    80003d90:	00c41433          	sll	s0,s0,a2
    80003d94:	00fc57b3          	srl	a5,s8,a5
    80003d98:	0087e6b3          	or	a3,a5,s0
    80003d9c:	00cc1433          	sll	s0,s8,a2
    80003da0:	7771                	lui	a4,0xffffc
    80003da2:	0745                	addi	a4,a4,17 # ffffffffffffc011 <_end+0xffffffff7cfeadd1>
    80003da4:	87a2                	mv	a5,s0
    80003da6:	8f09                	sub	a4,a4,a0
    80003da8:	8436                	mv	s0,a3
    80003daa:	bf95                	j	80003d1e <__multf3+0x11c>
    80003dac:	8562                	mv	a0,s8
    80003dae:	bffff0ef          	jal	ra,800039ac <__clzdi2>
    80003db2:	0405051b          	addiw	a0,a0,64
    80003db6:	ff150793          	addi	a5,a0,-15
    80003dba:	03c00713          	li	a4,60
    80003dbe:	fcf753e3          	bge	a4,a5,80003d84 <__multf3+0x182>
    80003dc2:	fc37879b          	addiw	a5,a5,-61
    80003dc6:	00fc16b3          	sll	a3,s8,a5
    80003dca:	bfd9                	j	80003da0 <__multf3+0x19e>
    80003dcc:	008c6633          	or	a2,s8,s0
    80003dd0:	ce01                	beqz	a2,80003de8 <__multf3+0x1e6>
    80003dd2:	82c5                	srli	a3,a3,0x11
    80003dd4:	488d                	li	a7,3
    80003dd6:	f486e5e3          	bltu	a3,s0,80003d20 <__multf3+0x11e>
    80003dda:	44c1                	li	s1,16
    80003ddc:	b791                	j	80003d20 <__multf3+0x11e>
    80003dde:	4401                	li	s0,0
    80003de0:	4781                	li	a5,0
    80003de2:	4701                	li	a4,0
    80003de4:	4885                	li	a7,1
    80003de6:	bf2d                	j	80003d20 <__multf3+0x11e>
    80003de8:	4401                	li	s0,0
    80003dea:	4781                	li	a5,0
    80003dec:	4889                	li	a7,2
    80003dee:	bf0d                	j	80003d20 <__multf3+0x11e>
    80003df0:	4705                	li	a4,1
    80003df2:	00d716b3          	sll	a3,a4,a3
    80003df6:	5306f513          	andi	a0,a3,1328
    80003dfa:	20051863          	bnez	a0,8000400a <__multf3+0x408>
    80003dfe:	2406f313          	andi	t1,a3,576
    80003e02:	3e031f63          	bnez	t1,80004200 <__multf3+0x5fe>
    80003e06:	0886f693          	andi	a3,a3,136
    80003e0a:	1e069e63          	bnez	a3,80004006 <__multf3+0x404>
    80003e0e:	56fd                	li	a3,-1
    80003e10:	9281                	srli	a3,a3,0x20
    80003e12:	00878f33          	add	t5,a5,s0
    80003e16:	020b5513          	srli	a0,s6,0x20
    80003e1a:	0207d313          	srli	t1,a5,0x20
    80003e1e:	01690fb3          	add	t6,s2,s6
    80003e22:	00ff3eb3          	sltu	t4,t5,a5
    80003e26:	00db7b33          	and	s6,s6,a3
    80003e2a:	8ff5                	and	a5,a5,a3
    80003e2c:	036782b3          	mul	t0,a5,s6
    80003e30:	012fbe33          	sltu	t3,t6,s2
    80003e34:	88f2                	mv	a7,t3
    80003e36:	8776                	mv	a4,t4
    80003e38:	02f507b3          	mul	a5,a0,a5
    80003e3c:	026506b3          	mul	a3,a0,t1
    80003e40:	0202d513          	srli	a0,t0,0x20
    80003e44:	03630333          	mul	t1,t1,s6
    80003e48:	933e                	add	t1,t1,a5
    80003e4a:	951a                	add	a0,a0,t1
    80003e4c:	00f57563          	bgeu	a0,a5,80003e56 <__multf3+0x254>
    80003e50:	4785                	li	a5,1
    80003e52:	1782                	slli	a5,a5,0x20
    80003e54:	96be                	add	a3,a3,a5
    80003e56:	57fd                	li	a5,-1
    80003e58:	9381                	srli	a5,a5,0x20
    80003e5a:	02055313          	srli	t1,a0,0x20
    80003e5e:	8d7d                	and	a0,a0,a5
    80003e60:	00f2f2b3          	and	t0,t0,a5
    80003e64:	1502                	slli	a0,a0,0x20
    80003e66:	00fff3b3          	and	t2,t6,a5
    80003e6a:	9336                	add	t1,t1,a3
    80003e6c:	00ff77b3          	and	a5,t5,a5
    80003e70:	020f5693          	srli	a3,t5,0x20
    80003e74:	9516                	add	a0,a0,t0
    80003e76:	020fd293          	srli	t0,t6,0x20
    80003e7a:	02778ab3          	mul	s5,a5,t2
    80003e7e:	02f287b3          	mul	a5,t0,a5
    80003e82:	020ada13          	srli	s4,s5,0x20
    80003e86:	02d282b3          	mul	t0,t0,a3
    80003e8a:	027686b3          	mul	a3,a3,t2
    80003e8e:	96be                	add	a3,a3,a5
    80003e90:	9a36                	add	s4,s4,a3
    80003e92:	00fa7563          	bgeu	s4,a5,80003e9c <__multf3+0x29a>
    80003e96:	4785                	li	a5,1
    80003e98:	1782                	slli	a5,a5,0x20
    80003e9a:	92be                	add	t0,t0,a5
    80003e9c:	57fd                	li	a5,-1
    80003e9e:	9381                	srli	a5,a5,0x20
    80003ea0:	020a5393          	srli	t2,s4,0x20
    80003ea4:	00fa7a33          	and	s4,s4,a5
    80003ea8:	00fafab3          	and	s5,s5,a5
    80003eac:	1a02                	slli	s4,s4,0x20
    80003eae:	02045693          	srli	a3,s0,0x20
    80003eb2:	9a56                	add	s4,s4,s5
    80003eb4:	02095a93          	srli	s5,s2,0x20
    80003eb8:	00f97933          	and	s2,s2,a5
    80003ebc:	8fe1                	and	a5,a5,s0
    80003ebe:	02f90b33          	mul	s6,s2,a5
    80003ec2:	02fa87b3          	mul	a5,s5,a5
    80003ec6:	020b5413          	srli	s0,s6,0x20
    80003eca:	02da8ab3          	mul	s5,s5,a3
    80003ece:	032686b3          	mul	a3,a3,s2
    80003ed2:	96be                	add	a3,a3,a5
    80003ed4:	9436                	add	s0,s0,a3
    80003ed6:	00f47563          	bgeu	s0,a5,80003ee0 <__multf3+0x2de>
    80003eda:	4785                	li	a5,1
    80003edc:	1782                	slli	a5,a5,0x20
    80003ede:	9abe                	add	s5,s5,a5
    80003ee0:	597d                	li	s2,-1
    80003ee2:	02095913          	srli	s2,s2,0x20
    80003ee6:	02045693          	srli	a3,s0,0x20
    80003eea:	012477b3          	and	a5,s0,s2
    80003eee:	40e00733          	neg	a4,a4
    80003ef2:	006a0433          	add	s0,s4,t1
    80003ef6:	01f77733          	and	a4,a4,t6
    80003efa:	411008b3          	neg	a7,a7
    80003efe:	01443fb3          	sltu	t6,s0,s4
    80003f02:	01e8f8b3          	and	a7,a7,t5
    80003f06:	01f38f33          	add	t5,t2,t6
    80003f0a:	9f16                	add	t5,t5,t0
    80003f0c:	01de7e33          	and	t3,t3,t4
    80003f10:	01ff3fb3          	sltu	t6,t5,t6
    80003f14:	977a                	add	a4,a4,t5
    80003f16:	9ff2                	add	t6,t6,t3
    80003f18:	01e73f33          	sltu	t5,a4,t5
    80003f1c:	9746                	add	a4,a4,a7
    80003f1e:	9f7e                	add	t5,t5,t6
    80003f20:	011738b3          	sltu	a7,a4,a7
    80003f24:	40a40eb3          	sub	t4,s0,a0
    80003f28:	40670e33          	sub	t3,a4,t1
    80003f2c:	1782                	slli	a5,a5,0x20
    80003f2e:	012b7b33          	and	s6,s6,s2
    80003f32:	98fa                	add	a7,a7,t5
    80003f34:	01d43f33          	sltu	t5,s0,t4
    80003f38:	01c73fb3          	sltu	t6,a4,t3
    80003f3c:	96d6                	add	a3,a3,s5
    80003f3e:	41ee0e33          	sub	t3,t3,t5
    80003f42:	97da                	add	a5,a5,s6
    80003f44:	4f01                	li	t5,0
    80003f46:	01d47663          	bgeu	s0,t4,80003f52 <__multf3+0x350>
    80003f4a:	40e30333          	sub	t1,t1,a4
    80003f4e:	00133f13          	seqz	t5,t1
    80003f52:	01ff6f33          	or	t5,t5,t6
    80003f56:	40fe8fb3          	sub	t6,t4,a5
    80003f5a:	98b6                	add	a7,a7,a3
    80003f5c:	01feb733          	sltu	a4,t4,t6
    80003f60:	40de06b3          	sub	a3,t3,a3
    80003f64:	00de3e33          	sltu	t3,t3,a3
    80003f68:	40e78733          	sub	a4,a5,a4
    80003f6c:	4301                	li	t1,0
    80003f6e:	01fef463          	bgeu	t4,t6,80003f76 <__multf3+0x374>
    80003f72:	0016b313          	seqz	t1,a3
    80003f76:	96ba                	add	a3,a3,a4
    80003f78:	00f6b733          	sltu	a4,a3,a5
    80003f7c:	9746                	add	a4,a4,a7
    80003f7e:	41e70733          	sub	a4,a4,t5
    80003f82:	01c36333          	or	t1,t1,t3
    80003f86:	40670733          	sub	a4,a4,t1
    80003f8a:	00df9793          	slli	a5,t6,0xd
    80003f8e:	0736                	slli	a4,a4,0xd
    80003f90:	0336d413          	srli	s0,a3,0x33
    80003f94:	8fc9                	or	a5,a5,a0
    80003f96:	8c59                	or	s0,s0,a4
    80003f98:	00f037b3          	snez	a5,a5
    80003f9c:	033fd513          	srli	a0,t6,0x33
    80003fa0:	9351                	srli	a4,a4,0x34
    80003fa2:	8fc9                	or	a5,a5,a0
    80003fa4:	06b6                	slli	a3,a3,0xd
    80003fa6:	8b05                	andi	a4,a4,1
    80003fa8:	8fd5                	or	a5,a5,a3
    80003faa:	c33d                	beqz	a4,80004010 <__multf3+0x40e>
    80003fac:	0017d713          	srli	a4,a5,0x1
    80003fb0:	8b85                	andi	a5,a5,1
    80003fb2:	8f5d                	or	a4,a4,a5
    80003fb4:	03f41793          	slli	a5,s0,0x3f
    80003fb8:	8fd9                	or	a5,a5,a4
    80003fba:	8005                	srli	s0,s0,0x1
    80003fbc:	6691                	lui	a3,0x4
    80003fbe:	16fd                	addi	a3,a3,-1 # 3fff <_tbss_end+0x3fbb>
    80003fc0:	96ae                	add	a3,a3,a1
    80003fc2:	0ed05063          	blez	a3,800040a2 <__multf3+0x4a0>
    80003fc6:	0077f713          	andi	a4,a5,7
    80003fca:	cb31                	beqz	a4,8000401e <__multf3+0x41c>
    80003fcc:	4709                	li	a4,2
    80003fce:	0014e493          	ori	s1,s1,1
    80003fd2:	04e98563          	beq	s3,a4,8000401c <__multf3+0x41a>
    80003fd6:	470d                	li	a4,3
    80003fd8:	02e98e63          	beq	s3,a4,80004014 <__multf3+0x412>
    80003fdc:	04099163          	bnez	s3,8000401e <__multf3+0x41c>
    80003fe0:	00f7f713          	andi	a4,a5,15
    80003fe4:	4511                	li	a0,4
    80003fe6:	02a70c63          	beq	a4,a0,8000401e <__multf3+0x41c>
    80003fea:	00478713          	addi	a4,a5,4
    80003fee:	00f73533          	sltu	a0,a4,a5
    80003ff2:	942a                	add	s0,s0,a0
    80003ff4:	87ba                	mv	a5,a4
    80003ff6:	a025                	j	8000401e <__multf3+0x41c>
    80003ff8:	473d                	li	a4,15
    80003ffa:	20e68e63          	beq	a3,a4,80004216 <__multf3+0x614>
    80003ffe:	472d                	li	a4,11
    80004000:	8656                	mv	a2,s5
    80004002:	00e69463          	bne	a3,a4,8000400a <__multf3+0x408>
    80004006:	8652                	mv	a2,s4
    80004008:	b381                	j	80003d48 <__multf3+0x146>
    8000400a:	844a                	mv	s0,s2
    8000400c:	87da                	mv	a5,s6
    8000400e:	bb35                	j	80003d4a <__multf3+0x148>
    80004010:	85c2                	mv	a1,a6
    80004012:	b76d                	j	80003fbc <__multf3+0x3ba>
    80004014:	e609                	bnez	a2,8000401e <__multf3+0x41c>
    80004016:	00878713          	addi	a4,a5,8
    8000401a:	bfd1                	j	80003fee <__multf3+0x3ec>
    8000401c:	fe6d                	bnez	a2,80004016 <__multf3+0x414>
    8000401e:	03445713          	srli	a4,s0,0x34
    80004022:	8b05                	andi	a4,a4,1
    80004024:	c719                	beqz	a4,80004032 <__multf3+0x430>
    80004026:	577d                	li	a4,-1
    80004028:	1752                	slli	a4,a4,0x34
    8000402a:	177d                	addi	a4,a4,-1
    8000402c:	6691                	lui	a3,0x4
    8000402e:	8c79                	and	s0,s0,a4
    80004030:	96ae                	add	a3,a3,a1
    80004032:	65a1                	lui	a1,0x8
    80004034:	ffe58713          	addi	a4,a1,-2 # 7ffe <_tbss_end+0x7fba>
    80004038:	04d74063          	blt	a4,a3,80004078 <__multf3+0x476>
    8000403c:	838d                	srli	a5,a5,0x3
    8000403e:	03d41513          	slli	a0,s0,0x3d
    80004042:	8d5d                	or	a0,a0,a5
    80004044:	00345713          	srli	a4,s0,0x3
    80004048:	00f6161b          	slliw	a2,a2,0xf
    8000404c:	01071593          	slli	a1,a4,0x10
    80004050:	8ed1                	or	a3,a3,a2
    80004052:	16c2                	slli	a3,a3,0x30
    80004054:	81c1                	srli	a1,a1,0x10
    80004056:	8dd5                	or	a1,a1,a3
    80004058:	c099                	beqz	s1,8000405e <__multf3+0x45c>
    8000405a:	0014a073          	csrs	fflags,s1
    8000405e:	60e6                	ld	ra,88(sp)
    80004060:	6446                	ld	s0,80(sp)
    80004062:	64a6                	ld	s1,72(sp)
    80004064:	6906                	ld	s2,64(sp)
    80004066:	79e2                	ld	s3,56(sp)
    80004068:	7a42                	ld	s4,48(sp)
    8000406a:	7aa2                	ld	s5,40(sp)
    8000406c:	7b02                	ld	s6,32(sp)
    8000406e:	6be2                	ld	s7,24(sp)
    80004070:	6c42                	ld	s8,16(sp)
    80004072:	6ca2                	ld	s9,8(sp)
    80004074:	6125                	addi	sp,sp,96
    80004076:	8082                	ret
    80004078:	4789                	li	a5,2
    8000407a:	02f98263          	beq	s3,a5,8000409e <__multf3+0x49c>
    8000407e:	478d                	li	a5,3
    80004080:	00f98763          	beq	s3,a5,8000408e <__multf3+0x48c>
    80004084:	00098663          	beqz	s3,80004090 <__multf3+0x48e>
    80004088:	557d                	li	a0,-1
    8000408a:	86ba                	mv	a3,a4
    8000408c:	a029                	j	80004096 <__multf3+0x494>
    8000408e:	fe6d                	bnez	a2,80004088 <__multf3+0x486>
    80004090:	4501                	li	a0,0
    80004092:	fff58693          	addi	a3,a1,-1
    80004096:	0054e493          	ori	s1,s1,5
    8000409a:	872a                	mv	a4,a0
    8000409c:	b775                	j	80004048 <__multf3+0x446>
    8000409e:	d66d                	beqz	a2,80004088 <__multf3+0x486>
    800040a0:	bfc5                	j	80004090 <__multf3+0x48e>
    800040a2:	e2c5                	bnez	a3,80004142 <__multf3+0x540>
    800040a4:	0077f693          	andi	a3,a5,7
    800040a8:	8722                	mv	a4,s0
    800040aa:	ce8d                	beqz	a3,800040e4 <__multf3+0x4e2>
    800040ac:	4689                	li	a3,2
    800040ae:	0014e493          	ori	s1,s1,1
    800040b2:	02d98863          	beq	s3,a3,800040e2 <__multf3+0x4e0>
    800040b6:	468d                	li	a3,3
    800040b8:	02d98163          	beq	s3,a3,800040da <__multf3+0x4d8>
    800040bc:	02099463          	bnez	s3,800040e4 <__multf3+0x4e2>
    800040c0:	00f7f693          	andi	a3,a5,15
    800040c4:	4591                	li	a1,4
    800040c6:	00b68f63          	beq	a3,a1,800040e4 <__multf3+0x4e2>
    800040ca:	ffc7b713          	sltiu	a4,a5,-4
    800040ce:	00174713          	xori	a4,a4,1
    800040d2:	1702                	slli	a4,a4,0x20
    800040d4:	9301                	srli	a4,a4,0x20
    800040d6:	9722                	add	a4,a4,s0
    800040d8:	a031                	j	800040e4 <__multf3+0x4e2>
    800040da:	e609                	bnez	a2,800040e4 <__multf3+0x4e2>
    800040dc:	ff87b713          	sltiu	a4,a5,-8
    800040e0:	b7fd                	j	800040ce <__multf3+0x4cc>
    800040e2:	fe6d                	bnez	a2,800040dc <__multf3+0x4da>
    800040e4:	9351                	srli	a4,a4,0x34
    800040e6:	00174713          	xori	a4,a4,1
    800040ea:	00177593          	andi	a1,a4,1
    800040ee:	4705                	li	a4,1
    800040f0:	04000693          	li	a3,64
    800040f4:	9e99                	subw	a3,a3,a4
    800040f6:	00d41533          	sll	a0,s0,a3
    800040fa:	00e7d833          	srl	a6,a5,a4
    800040fe:	00d796b3          	sll	a3,a5,a3
    80004102:	01056533          	or	a0,a0,a6
    80004106:	00d036b3          	snez	a3,a3
    8000410a:	8d55                	or	a0,a0,a3
    8000410c:	00e45733          	srl	a4,s0,a4
    80004110:	00757793          	andi	a5,a0,7
    80004114:	cfbd                	beqz	a5,80004192 <__multf3+0x590>
    80004116:	4789                	li	a5,2
    80004118:	0014e493          	ori	s1,s1,1
    8000411c:	06f98a63          	beq	s3,a5,80004190 <__multf3+0x58e>
    80004120:	478d                	li	a5,3
    80004122:	06f98363          	beq	s3,a5,80004188 <__multf3+0x586>
    80004126:	06099663          	bnez	s3,80004192 <__multf3+0x590>
    8000412a:	00f57793          	andi	a5,a0,15
    8000412e:	4691                	li	a3,4
    80004130:	06d78163          	beq	a5,a3,80004192 <__multf3+0x590>
    80004134:	00450793          	addi	a5,a0,4
    80004138:	00a7b6b3          	sltu	a3,a5,a0
    8000413c:	9736                	add	a4,a4,a3
    8000413e:	853e                	mv	a0,a5
    80004140:	a889                	j	80004192 <__multf3+0x590>
    80004142:	4705                	li	a4,1
    80004144:	8f15                	sub	a4,a4,a3
    80004146:	07400693          	li	a3,116
    8000414a:	06e6cf63          	blt	a3,a4,800041c8 <__multf3+0x5c6>
    8000414e:	03f00693          	li	a3,63
    80004152:	0007059b          	sext.w	a1,a4
    80004156:	00e6c463          	blt	a3,a4,8000415e <__multf3+0x55c>
    8000415a:	4585                	li	a1,1
    8000415c:	bf51                	j	800040f0 <__multf3+0x4ee>
    8000415e:	fc05851b          	addiw	a0,a1,-64
    80004162:	04000813          	li	a6,64
    80004166:	00a45533          	srl	a0,s0,a0
    8000416a:	4681                	li	a3,0
    8000416c:	01070763          	beq	a4,a6,8000417a <__multf3+0x578>
    80004170:	08000693          	li	a3,128
    80004174:	9e8d                	subw	a3,a3,a1
    80004176:	00d416b3          	sll	a3,s0,a3
    8000417a:	8edd                	or	a3,a3,a5
    8000417c:	00d036b3          	snez	a3,a3
    80004180:	8d55                	or	a0,a0,a3
    80004182:	4585                	li	a1,1
    80004184:	4701                	li	a4,0
    80004186:	b769                	j	80004110 <__multf3+0x50e>
    80004188:	e609                	bnez	a2,80004192 <__multf3+0x590>
    8000418a:	00850793          	addi	a5,a0,8
    8000418e:	b76d                	j	80004138 <__multf3+0x536>
    80004190:	fe6d                	bnez	a2,8000418a <__multf3+0x588>
    80004192:	03375793          	srli	a5,a4,0x33
    80004196:	8b85                	andi	a5,a5,1
    80004198:	cb99                	beqz	a5,800041ae <__multf3+0x5ac>
    8000419a:	0014e493          	ori	s1,s1,1
    8000419e:	4701                	li	a4,0
    800041a0:	4501                	li	a0,0
    800041a2:	4685                	li	a3,1
    800041a4:	ea0582e3          	beqz	a1,80004048 <__multf3+0x446>
    800041a8:	0024e493          	ori	s1,s1,2
    800041ac:	bd71                	j	80004048 <__multf3+0x446>
    800041ae:	03d71793          	slli	a5,a4,0x3d
    800041b2:	810d                	srli	a0,a0,0x3
    800041b4:	8d5d                	or	a0,a0,a5
    800041b6:	830d                	srli	a4,a4,0x3
    800041b8:	4681                	li	a3,0
    800041ba:	e80587e3          	beqz	a1,80004048 <__multf3+0x446>
    800041be:	0014f793          	andi	a5,s1,1
    800041c2:	e80783e3          	beqz	a5,80004048 <__multf3+0x446>
    800041c6:	b7cd                	j	800041a8 <__multf3+0x5a6>
    800041c8:	0087e533          	or	a0,a5,s0
    800041cc:	cd11                	beqz	a0,800041e8 <__multf3+0x5e6>
    800041ce:	4789                	li	a5,2
    800041d0:	0014e493          	ori	s1,s1,1
    800041d4:	02f98363          	beq	s3,a5,800041fa <__multf3+0x5f8>
    800041d8:	478d                	li	a5,3
    800041da:	00f98c63          	beq	s3,a5,800041f2 <__multf3+0x5f0>
    800041de:	4515                	li	a0,5
    800041e0:	00098363          	beqz	s3,800041e6 <__multf3+0x5e4>
    800041e4:	4505                	li	a0,1
    800041e6:	810d                	srli	a0,a0,0x3
    800041e8:	0024e493          	ori	s1,s1,2
    800041ec:	4701                	li	a4,0
    800041ee:	4681                	li	a3,0
    800041f0:	bda1                	j	80004048 <__multf3+0x446>
    800041f2:	4505                	li	a0,1
    800041f4:	fa6d                	bnez	a2,800041e6 <__multf3+0x5e4>
    800041f6:	4525                	li	a0,9
    800041f8:	b7fd                	j	800041e6 <__multf3+0x5e4>
    800041fa:	4505                	li	a0,1
    800041fc:	d66d                	beqz	a2,800041e6 <__multf3+0x5e4>
    800041fe:	bfe5                	j	800041f6 <__multf3+0x5f4>
    80004200:	66a1                	lui	a3,0x8
    80004202:	173e                	slli	a4,a4,0x2f
    80004204:	16fd                	addi	a3,a3,-1 # 7fff <_tbss_end+0x7fbb>
    80004206:	4601                	li	a2,0
    80004208:	44c1                	li	s1,16
    8000420a:	bd3d                	j	80004048 <__multf3+0x446>
    8000420c:	66a1                	lui	a3,0x8
    8000420e:	4701                	li	a4,0
    80004210:	4501                	li	a0,0
    80004212:	16fd                	addi	a3,a3,-1 # 7fff <_tbss_end+0x7fbb>
    80004214:	bd15                	j	80004048 <__multf3+0x446>
    80004216:	4705                	li	a4,1
    80004218:	66a1                	lui	a3,0x8
    8000421a:	173e                	slli	a4,a4,0x2f
    8000421c:	4501                	li	a0,0
    8000421e:	16fd                	addi	a3,a3,-1 # 7fff <_tbss_end+0x7fbb>
    80004220:	4601                	li	a2,0
    80004222:	b51d                	j	80004048 <__multf3+0x446>

0000000080004224 <__subtf3>:
    80004224:	7179                	addi	sp,sp,-48
    80004226:	f406                	sd	ra,40(sp)
    80004228:	f022                	sd	s0,32(sp)
    8000422a:	ec26                	sd	s1,24(sp)
    8000422c:	e84a                	sd	s2,16(sp)
    8000422e:	e44e                	sd	s3,8(sp)
    80004230:	e052                	sd	s4,0(sp)
    80004232:	00202973          	frrm	s2
    80004236:	537d                	li	t1,-1
    80004238:	01035313          	srli	t1,t1,0x10
    8000423c:	0305d413          	srli	s0,a1,0x30
    80004240:	68a1                	lui	a7,0x8
    80004242:	03f5d493          	srli	s1,a1,0x3f
    80004246:	0065f5b3          	and	a1,a1,t1
    8000424a:	00359793          	slli	a5,a1,0x3
    8000424e:	18fd                	addi	a7,a7,-1 # 7fff <_tbss_end+0x7fbb>
    80004250:	03d55593          	srli	a1,a0,0x3d
    80004254:	0306d713          	srli	a4,a3,0x30
    80004258:	03f6d813          	srli	a6,a3,0x3f
    8000425c:	0066f6b3          	and	a3,a3,t1
    80004260:	8ddd                	or	a1,a1,a5
    80004262:	01177733          	and	a4,a4,a7
    80004266:	00369793          	slli	a5,a3,0x3
    8000426a:	03d65693          	srli	a3,a2,0x3d
    8000426e:	2901                	sext.w	s2,s2
    80004270:	01147433          	and	s0,s0,a7
    80004274:	050e                	slli	a0,a0,0x3
    80004276:	8edd                	or	a3,a3,a5
    80004278:	060e                	slli	a2,a2,0x3
    8000427a:	05171863          	bne	a4,a7,800042ca <__subtf3+0xa6>
    8000427e:	77e1                	lui	a5,0xffff8
    80004280:	2785                	addiw	a5,a5,1 # ffffffffffff8001 <_end+0xffffffff7cfe6dc1>
    80004282:	00c6e8b3          	or	a7,a3,a2
    80004286:	9fa1                	addw	a5,a5,s0
    80004288:	02088763          	beqz	a7,800042b6 <__subtf3+0x92>
    8000428c:	8342                	mv	t1,a6
    8000428e:	4b049363          	bne	s1,a6,80004734 <__subtf3+0x510>
    80004292:	24078d63          	beqz	a5,800044ec <__subtf3+0x2c8>
    80004296:	4a041263          	bnez	s0,8000473a <__subtf3+0x516>
    8000429a:	00a5e833          	or	a6,a1,a0
    8000429e:	1e081763          	bnez	a6,8000448c <__subtf3+0x268>
    800042a2:	65a1                	lui	a1,0x8
    800042a4:	15fd                	addi	a1,a1,-1 # 7fff <_tbss_end+0x7fbb>
    800042a6:	4781                	li	a5,0
    800042a8:	0ab71463          	bne	a4,a1,80004350 <__subtf3+0x12c>
    800042ac:	00c6e833          	or	a6,a3,a2
    800042b0:	2c080563          	beqz	a6,8000457a <__subtf3+0x356>
    800042b4:	a159                	j	8000473a <__subtf3+0x516>
    800042b6:	00184313          	xori	t1,a6,1
    800042ba:	48649763          	bne	s1,t1,80004748 <__subtf3+0x524>
    800042be:	22078763          	beqz	a5,800044ec <__subtf3+0x2c8>
    800042c2:	dc61                	beqz	s0,8000429a <__subtf3+0x76>
    800042c4:	4801                	li	a6,0
    800042c6:	4581                	li	a1,0
    800042c8:	abb5                	j	80004844 <__subtf3+0x620>
    800042ca:	00184313          	xori	t1,a6,1
    800042ce:	40e407bb          	subw	a5,s0,a4
    800042d2:	883e                	mv	a6,a5
    800042d4:	38649963          	bne	s1,t1,80004666 <__subtf3+0x442>
    800042d8:	16f05063          	blez	a5,80004438 <__subtf3+0x214>
    800042dc:	eb69                	bnez	a4,800043ae <__subtf3+0x18a>
    800042de:	00c6e7b3          	or	a5,a3,a2
    800042e2:	e791                	bnez	a5,800042ee <__subtf3+0xca>
    800042e4:	05140963          	beq	s0,a7,80004336 <__subtf3+0x112>
    800042e8:	86ae                	mv	a3,a1
    800042ea:	862a                	mv	a2,a0
    800042ec:	aca1                	j	80004544 <__subtf3+0x320>
    800042ee:	fff8079b          	addiw	a5,a6,-1
    800042f2:	e3a1                	bnez	a5,80004332 <__subtf3+0x10e>
    800042f4:	962a                	add	a2,a2,a0
    800042f6:	96ae                	add	a3,a3,a1
    800042f8:	00a63533          	sltu	a0,a2,a0
    800042fc:	96aa                	add	a3,a3,a0
    800042fe:	8722                	mv	a4,s0
    80004300:	0336d793          	srli	a5,a3,0x33
    80004304:	8b85                	andi	a5,a5,1
    80004306:	22078763          	beqz	a5,80004534 <__subtf3+0x310>
    8000430a:	67a1                	lui	a5,0x8
    8000430c:	0705                	addi	a4,a4,1
    8000430e:	fff78593          	addi	a1,a5,-1 # 7fff <_tbss_end+0x7fbb>
    80004312:	32b70363          	beq	a4,a1,80004638 <__subtf3+0x414>
    80004316:	57fd                	li	a5,-1
    80004318:	17ce                	slli	a5,a5,0x33
    8000431a:	17fd                	addi	a5,a5,-1
    8000431c:	8ff5                	and	a5,a5,a3
    8000431e:	00165693          	srli	a3,a2,0x1
    80004322:	8a05                	andi	a2,a2,1
    80004324:	8ed1                	or	a3,a3,a2
    80004326:	03f79613          	slli	a2,a5,0x3f
    8000432a:	8e55                	or	a2,a2,a3
    8000432c:	0017d693          	srli	a3,a5,0x1
    80004330:	a411                	j	80004534 <__subtf3+0x310>
    80004332:	0d141563          	bne	s0,a7,800043fc <__subtf3+0x1d8>
    80004336:	00a5e833          	or	a6,a1,a0
    8000433a:	7e080263          	beqz	a6,80004b1e <__subtf3+0x8fa>
    8000433e:	0325d793          	srli	a5,a1,0x32
    80004342:	0017c793          	xori	a5,a5,1
    80004346:	8b85                	andi	a5,a5,1
    80004348:	0792                	slli	a5,a5,0x4
    8000434a:	86ae                	mv	a3,a1
    8000434c:	862a                	mv	a2,a0
    8000434e:	8722                	mv	a4,s0
    80004350:	00767593          	andi	a1,a2,7
    80004354:	78059063          	bnez	a1,80004ad4 <__subtf3+0x8b0>
    80004358:	85b6                	mv	a1,a3
    8000435a:	8532                	mv	a0,a2
    8000435c:	0335d693          	srli	a3,a1,0x33
    80004360:	8a85                	andi	a3,a3,1
    80004362:	7c068163          	beqz	a3,80004b24 <__subtf3+0x900>
    80004366:	66a1                	lui	a3,0x8
    80004368:	0705                	addi	a4,a4,1
    8000436a:	fff68613          	addi	a2,a3,-1 # 7fff <_tbss_end+0x7fbb>
    8000436e:	78c70063          	beq	a4,a2,80004aee <__subtf3+0x8ca>
    80004372:	56fd                	li	a3,-1
    80004374:	16ce                	slli	a3,a3,0x33
    80004376:	16fd                	addi	a3,a3,-1
    80004378:	8df5                	and	a1,a1,a3
    8000437a:	00355693          	srli	a3,a0,0x3
    8000437e:	03d59513          	slli	a0,a1,0x3d
    80004382:	8d55                	or	a0,a0,a3
    80004384:	818d                	srli	a1,a1,0x3
    80004386:	1746                	slli	a4,a4,0x31
    80004388:	00f4949b          	slliw	s1,s1,0xf
    8000438c:	9345                	srli	a4,a4,0x31
    8000438e:	05c2                	slli	a1,a1,0x10
    80004390:	8f45                	or	a4,a4,s1
    80004392:	1742                	slli	a4,a4,0x30
    80004394:	81c1                	srli	a1,a1,0x10
    80004396:	8dd9                	or	a1,a1,a4
    80004398:	c399                	beqz	a5,8000439e <__subtf3+0x17a>
    8000439a:	0017a073          	csrs	fflags,a5
    8000439e:	70a2                	ld	ra,40(sp)
    800043a0:	7402                	ld	s0,32(sp)
    800043a2:	64e2                	ld	s1,24(sp)
    800043a4:	6942                	ld	s2,16(sp)
    800043a6:	69a2                	ld	s3,8(sp)
    800043a8:	6a02                	ld	s4,0(sp)
    800043aa:	6145                	addi	sp,sp,48
    800043ac:	8082                	ret
    800043ae:	f91404e3          	beq	s0,a7,80004336 <__subtf3+0x112>
    800043b2:	07400713          	li	a4,116
    800043b6:	04f74763          	blt	a4,a5,80004404 <__subtf3+0x1e0>
    800043ba:	4705                	li	a4,1
    800043bc:	174e                	slli	a4,a4,0x33
    800043be:	8ed9                	or	a3,a3,a4
    800043c0:	03f00713          	li	a4,63
    800043c4:	04f74363          	blt	a4,a5,8000440a <__subtf3+0x1e6>
    800043c8:	04000813          	li	a6,64
    800043cc:	40f8083b          	subw	a6,a6,a5
    800043d0:	01069733          	sll	a4,a3,a6
    800043d4:	00f658b3          	srl	a7,a2,a5
    800043d8:	01061833          	sll	a6,a2,a6
    800043dc:	01176733          	or	a4,a4,a7
    800043e0:	01003833          	snez	a6,a6
    800043e4:	01076733          	or	a4,a4,a6
    800043e8:	00f6d7b3          	srl	a5,a3,a5
    800043ec:	00a70633          	add	a2,a4,a0
    800043f0:	97ae                	add	a5,a5,a1
    800043f2:	00e63733          	sltu	a4,a2,a4
    800043f6:	00e786b3          	add	a3,a5,a4
    800043fa:	b711                	j	800042fe <__subtf3+0xda>
    800043fc:	07400713          	li	a4,116
    80004400:	fcf750e3          	bge	a4,a5,800043c0 <__subtf3+0x19c>
    80004404:	4781                	li	a5,0
    80004406:	4705                	li	a4,1
    80004408:	b7d5                	j	800043ec <__subtf3+0x1c8>
    8000440a:	fc07871b          	addiw	a4,a5,-64
    8000440e:	04000893          	li	a7,64
    80004412:	00e6d733          	srl	a4,a3,a4
    80004416:	4801                	li	a6,0
    80004418:	01178863          	beq	a5,a7,80004428 <__subtf3+0x204>
    8000441c:	08000813          	li	a6,128
    80004420:	40f8083b          	subw	a6,a6,a5
    80004424:	01069833          	sll	a6,a3,a6
    80004428:	00c86833          	or	a6,a6,a2
    8000442c:	01003833          	snez	a6,a6
    80004430:	01076733          	or	a4,a4,a6
    80004434:	4781                	li	a5,0
    80004436:	bf5d                	j	800043ec <__subtf3+0x1c8>
    80004438:	cbd5                	beqz	a5,800044ec <__subtf3+0x2c8>
    8000443a:	e60400e3          	beqz	s0,8000429a <__subtf3+0x76>
    8000443e:	f8c00893          	li	a7,-116
    80004442:	0717cb63          	blt	a5,a7,800044b8 <__subtf3+0x294>
    80004446:	4805                	li	a6,1
    80004448:	184e                	slli	a6,a6,0x33
    8000444a:	40f007bb          	negw	a5,a5
    8000444e:	0105e5b3          	or	a1,a1,a6
    80004452:	03f00813          	li	a6,63
    80004456:	06f84463          	blt	a6,a5,800044be <__subtf3+0x29a>
    8000445a:	04000893          	li	a7,64
    8000445e:	40f888bb          	subw	a7,a7,a5
    80004462:	00f55333          	srl	t1,a0,a5
    80004466:	01159833          	sll	a6,a1,a7
    8000446a:	011518b3          	sll	a7,a0,a7
    8000446e:	00686833          	or	a6,a6,t1
    80004472:	011038b3          	snez	a7,a7
    80004476:	01186533          	or	a0,a6,a7
    8000447a:	00f5d7b3          	srl	a5,a1,a5
    8000447e:	962a                	add	a2,a2,a0
    80004480:	97b6                	add	a5,a5,a3
    80004482:	00a63533          	sltu	a0,a2,a0
    80004486:	00a786b3          	add	a3,a5,a0
    8000448a:	bd9d                	j	80004300 <__subtf3+0xdc>
    8000448c:	fff7c793          	not	a5,a5
    80004490:	e799                	bnez	a5,8000449e <__subtf3+0x27a>
    80004492:	962a                	add	a2,a2,a0
    80004494:	96ae                	add	a3,a3,a1
    80004496:	00a63533          	sltu	a0,a2,a0
    8000449a:	96aa                	add	a3,a3,a0
    8000449c:	b595                	j	80004300 <__subtf3+0xdc>
    8000449e:	6821                	lui	a6,0x8
    800044a0:	187d                	addi	a6,a6,-1 # 7fff <_tbss_end+0x7fbb>
    800044a2:	01071763          	bne	a4,a6,800044b0 <__subtf3+0x28c>
    800044a6:	00c6e833          	or	a6,a3,a2
    800044aa:	e0080ee3          	beqz	a6,800042c6 <__subtf3+0xa2>
    800044ae:	a471                	j	8000473a <__subtf3+0x516>
    800044b0:	07400813          	li	a6,116
    800044b4:	f8f85fe3          	bge	a6,a5,80004452 <__subtf3+0x22e>
    800044b8:	4781                	li	a5,0
    800044ba:	4505                	li	a0,1
    800044bc:	b7c9                	j	8000447e <__subtf3+0x25a>
    800044be:	fc07881b          	addiw	a6,a5,-64
    800044c2:	04000313          	li	t1,64
    800044c6:	0105d833          	srl	a6,a1,a6
    800044ca:	4881                	li	a7,0
    800044cc:	00678863          	beq	a5,t1,800044dc <__subtf3+0x2b8>
    800044d0:	08000893          	li	a7,128
    800044d4:	40f888bb          	subw	a7,a7,a5
    800044d8:	011598b3          	sll	a7,a1,a7
    800044dc:	00a8e8b3          	or	a7,a7,a0
    800044e0:	011038b3          	snez	a7,a7
    800044e4:	01186533          	or	a0,a6,a7
    800044e8:	4781                	li	a5,0
    800044ea:	bf51                	j	8000447e <__subtf3+0x25a>
    800044ec:	68a1                	lui	a7,0x8
    800044ee:	ffe88813          	addi	a6,a7,-2 # 7ffe <_tbss_end+0x7fba>
    800044f2:	00140793          	addi	a5,s0,1
    800044f6:	0107f333          	and	t1,a5,a6
    800044fa:	18fd                	addi	a7,a7,-1
    800044fc:	0c031963          	bnez	t1,800045ce <__subtf3+0x3aa>
    80004500:	00a5e833          	or	a6,a1,a0
    80004504:	e815                	bnez	s0,80004538 <__subtf3+0x314>
    80004506:	54080063          	beqz	a6,80004a46 <__subtf3+0x822>
    8000450a:	00c6e7b3          	or	a5,a3,a2
    8000450e:	46078b63          	beqz	a5,80004984 <__subtf3+0x760>
    80004512:	962a                	add	a2,a2,a0
    80004514:	00a637b3          	sltu	a5,a2,a0
    80004518:	96ae                	add	a3,a3,a1
    8000451a:	00f685b3          	add	a1,a3,a5
    8000451e:	0335d793          	srli	a5,a1,0x33
    80004522:	8b85                	andi	a5,a5,1
    80004524:	8532                	mv	a0,a2
    80004526:	44078f63          	beqz	a5,80004984 <__subtf3+0x760>
    8000452a:	56fd                	li	a3,-1
    8000452c:	16ce                	slli	a3,a3,0x33
    8000452e:	16fd                	addi	a3,a3,-1
    80004530:	8eed                	and	a3,a3,a1
    80004532:	4705                	li	a4,1
    80004534:	4781                	li	a5,0
    80004536:	bd29                	j	80004350 <__subtf3+0x12c>
    80004538:	03141863          	bne	s0,a7,80004568 <__subtf3+0x344>
    8000453c:	00081663          	bnez	a6,80004548 <__subtf3+0x324>
    80004540:	f68703e3          	beq	a4,s0,800044a6 <__subtf3+0x282>
    80004544:	8722                	mv	a4,s0
    80004546:	b7fd                	j	80004534 <__subtf3+0x310>
    80004548:	4885                	li	a7,1
    8000454a:	18ca                	slli	a7,a7,0x32
    8000454c:	0115f7b3          	and	a5,a1,a7
    80004550:	00c6e333          	or	t1,a3,a2
    80004554:	5c078a63          	beqz	a5,80004b28 <__subtf3+0x904>
    80004558:	4781                	li	a5,0
    8000455a:	06871363          	bne	a4,s0,800045c0 <__subtf3+0x39c>
    8000455e:	02031063          	bnez	t1,8000457e <__subtf3+0x35a>
    80004562:	86ae                	mv	a3,a1
    80004564:	862a                	mv	a2,a0
    80004566:	b3ed                	j	80004350 <__subtf3+0x12c>
    80004568:	4781                	li	a5,0
    8000456a:	05171963          	bne	a4,a7,800045bc <__subtf3+0x398>
    8000456e:	00c6e8b3          	or	a7,a3,a2
    80004572:	5c089063          	bnez	a7,80004b32 <__subtf3+0x90e>
    80004576:	fe0816e3          	bnez	a6,80004562 <__subtf3+0x33e>
    8000457a:	4581                	li	a1,0
    8000457c:	a819                	j	80004592 <__subtf3+0x36e>
    8000457e:	0116f8b3          	and	a7,a3,a7
    80004582:	04088463          	beqz	a7,800045ca <__subtf3+0x3a6>
    80004586:	4585                	li	a1,1
    80004588:	6721                	lui	a4,0x8
    8000458a:	4481                	li	s1,0
    8000458c:	15ca                	slli	a1,a1,0x32
    8000458e:	4801                	li	a6,0
    80004590:	177d                	addi	a4,a4,-1 # 7fff <_tbss_end+0x7fbb>
    80004592:	66a1                	lui	a3,0x8
    80004594:	03d59513          	slli	a0,a1,0x3d
    80004598:	00385813          	srli	a6,a6,0x3
    8000459c:	16fd                	addi	a3,a3,-1 # 7fff <_tbss_end+0x7fbb>
    8000459e:	01056533          	or	a0,a0,a6
    800045a2:	818d                	srli	a1,a1,0x3
    800045a4:	ded711e3          	bne	a4,a3,80004386 <__subtf3+0x162>
    800045a8:	8d4d                	or	a0,a0,a1
    800045aa:	4581                	li	a1,0
    800045ac:	dc050de3          	beqz	a0,80004386 <__subtf3+0x162>
    800045b0:	4585                	li	a1,1
    800045b2:	15be                	slli	a1,a1,0x2f
    800045b4:	4501                	li	a0,0
    800045b6:	4481                	li	s1,0
    800045b8:	b3f9                	j	80004386 <__subtf3+0x162>
    800045ba:	47c1                	li	a5,16
    800045bc:	58080263          	beqz	a6,80004b40 <__subtf3+0x91c>
    800045c0:	8ed1                	or	a3,a3,a2
    800045c2:	f2f1                	bnez	a3,80004586 <__subtf3+0x362>
    800045c4:	86ae                	mv	a3,a1
    800045c6:	862a                	mv	a2,a0
    800045c8:	aba5                	j	80004b40 <__subtf3+0x91c>
    800045ca:	47c1                	li	a5,16
    800045cc:	bfd5                	j	800045c0 <__subtf3+0x39c>
    800045ce:	01178e63          	beq	a5,a7,800045ea <__subtf3+0x3c6>
    800045d2:	962a                	add	a2,a2,a0
    800045d4:	00a63533          	sltu	a0,a2,a0
    800045d8:	96ae                	add	a3,a3,a1
    800045da:	96aa                	add	a3,a3,a0
    800045dc:	03f69713          	slli	a4,a3,0x3f
    800045e0:	8205                	srli	a2,a2,0x1
    800045e2:	8e59                	or	a2,a2,a4
    800045e4:	8285                	srli	a3,a3,0x1
    800045e6:	873e                	mv	a4,a5
    800045e8:	b7b1                	j	80004534 <__subtf3+0x310>
    800045ea:	52090563          	beqz	s2,80004b14 <__subtf3+0x8f0>
    800045ee:	470d                	li	a4,3
    800045f0:	02e91a63          	bne	s2,a4,80004624 <__subtf3+0x400>
    800045f4:	52048063          	beqz	s1,80004b14 <__subtf3+0x8f0>
    800045f8:	4681                	li	a3,0
    800045fa:	55fd                	li	a1,-1
    800045fc:	557d                	li	a0,-1
    800045fe:	8742                	mv	a4,a6
    80004600:	4795                	li	a5,5
    80004602:	460d                	li	a2,3
    80004604:	4cc90e63          	beq	s2,a2,80004ae0 <__subtf3+0x8bc>
    80004608:	4c091d63          	bnez	s2,80004ae2 <__subtf3+0x8be>
    8000460c:	00f57613          	andi	a2,a0,15
    80004610:	4811                	li	a6,4
    80004612:	4d060863          	beq	a2,a6,80004ae2 <__subtf3+0x8be>
    80004616:	00450613          	addi	a2,a0,4
    8000461a:	00a63833          	sltu	a6,a2,a0
    8000461e:	95c2                	add	a1,a1,a6
    80004620:	8532                	mv	a0,a2
    80004622:	a1c1                	j	80004ae2 <__subtf3+0x8be>
    80004624:	4709                	li	a4,2
    80004626:	00e91463          	bne	s2,a4,8000462e <__subtf3+0x40a>
    8000462a:	4e049563          	bnez	s1,80004b14 <__subtf3+0x8f0>
    8000462e:	55fd                	li	a1,-1
    80004630:	557d                	li	a0,-1
    80004632:	8742                	mv	a4,a6
    80004634:	4795                	li	a5,5
    80004636:	b31d                	j	8000435c <__subtf3+0x138>
    80004638:	4c090f63          	beqz	s2,80004b16 <__subtf3+0x8f2>
    8000463c:	468d                	li	a3,3
    8000463e:	00d91a63          	bne	s2,a3,80004652 <__subtf3+0x42e>
    80004642:	4c048a63          	beqz	s1,80004b16 <__subtf3+0x8f2>
    80004646:	4681                	li	a3,0
    80004648:	55fd                	li	a1,-1
    8000464a:	557d                	li	a0,-1
    8000464c:	ffe78713          	addi	a4,a5,-2
    80004650:	bf45                	j	80004600 <__subtf3+0x3dc>
    80004652:	4689                	li	a3,2
    80004654:	00d91463          	bne	s2,a3,8000465c <__subtf3+0x438>
    80004658:	4a049f63          	bnez	s1,80004b16 <__subtf3+0x8f2>
    8000465c:	55fd                	li	a1,-1
    8000465e:	557d                	li	a0,-1
    80004660:	ffe78713          	addi	a4,a5,-2
    80004664:	bfc1                	j	80004634 <__subtf3+0x410>
    80004666:	10f05463          	blez	a5,8000476e <__subtf3+0x54a>
    8000466a:	e729                	bnez	a4,800046b4 <__subtf3+0x490>
    8000466c:	00c6e7b3          	or	a5,a3,a2
    80004670:	c6078ae3          	beqz	a5,800042e4 <__subtf3+0xc0>
    80004674:	fff8079b          	addiw	a5,a6,-1
    80004678:	e78d                	bnez	a5,800046a2 <__subtf3+0x47e>
    8000467a:	40c50633          	sub	a2,a0,a2
    8000467e:	40d586b3          	sub	a3,a1,a3
    80004682:	00c53533          	sltu	a0,a0,a2
    80004686:	8e89                	sub	a3,a3,a0
    80004688:	8722                	mv	a4,s0
    8000468a:	0336d793          	srli	a5,a3,0x33
    8000468e:	8b85                	andi	a5,a5,1
    80004690:	ea0782e3          	beqz	a5,80004534 <__subtf3+0x310>
    80004694:	00d69993          	slli	s3,a3,0xd
    80004698:	00d9d993          	srli	s3,s3,0xd
    8000469c:	8a32                	mv	s4,a2
    8000469e:	843a                	mv	s0,a4
    800046a0:	ac69                	j	8000493a <__subtf3+0x716>
    800046a2:	c9140ae3          	beq	s0,a7,80004336 <__subtf3+0x112>
    800046a6:	07400713          	li	a4,116
    800046aa:	00f75e63          	bge	a4,a5,800046c6 <__subtf3+0x4a2>
    800046ae:	4781                	li	a5,0
    800046b0:	4705                	li	a4,1
    800046b2:	a081                	j	800046f2 <__subtf3+0x4ce>
    800046b4:	c91401e3          	beq	s0,a7,80004336 <__subtf3+0x112>
    800046b8:	07400713          	li	a4,116
    800046bc:	fef749e3          	blt	a4,a5,800046ae <__subtf3+0x48a>
    800046c0:	4705                	li	a4,1
    800046c2:	174e                	slli	a4,a4,0x33
    800046c4:	8ed9                	or	a3,a3,a4
    800046c6:	03f00713          	li	a4,63
    800046ca:	02f74e63          	blt	a4,a5,80004706 <__subtf3+0x4e2>
    800046ce:	04000813          	li	a6,64
    800046d2:	40f8083b          	subw	a6,a6,a5
    800046d6:	01069733          	sll	a4,a3,a6
    800046da:	00f658b3          	srl	a7,a2,a5
    800046de:	01061833          	sll	a6,a2,a6
    800046e2:	01176733          	or	a4,a4,a7
    800046e6:	01003833          	snez	a6,a6
    800046ea:	01076733          	or	a4,a4,a6
    800046ee:	00f6d7b3          	srl	a5,a3,a5
    800046f2:	40e50733          	sub	a4,a0,a4
    800046f6:	40f587b3          	sub	a5,a1,a5
    800046fa:	00e536b3          	sltu	a3,a0,a4
    800046fe:	863a                	mv	a2,a4
    80004700:	40d786b3          	sub	a3,a5,a3
    80004704:	b751                	j	80004688 <__subtf3+0x464>
    80004706:	fc07871b          	addiw	a4,a5,-64
    8000470a:	04000893          	li	a7,64
    8000470e:	00e6d733          	srl	a4,a3,a4
    80004712:	4801                	li	a6,0
    80004714:	01178863          	beq	a5,a7,80004724 <__subtf3+0x500>
    80004718:	08000813          	li	a6,128
    8000471c:	40f8083b          	subw	a6,a6,a5
    80004720:	01069833          	sll	a6,a3,a6
    80004724:	00c86833          	or	a6,a6,a2
    80004728:	01003833          	snez	a6,a6
    8000472c:	01076733          	or	a4,a4,a6
    80004730:	4781                	li	a5,0
    80004732:	b7c1                	j	800046f2 <__subtf3+0x4ce>
    80004734:	c3e5                	beqz	a5,80004814 <__subtf3+0x5f0>
    80004736:	84c2                	mv	s1,a6
    80004738:	cc01                	beqz	s0,80004750 <__subtf3+0x52c>
    8000473a:	0326d793          	srli	a5,a3,0x32
    8000473e:	0017c793          	xori	a5,a5,1
    80004742:	8b85                	andi	a5,a5,1
    80004744:	0792                	slli	a5,a5,0x4
    80004746:	b129                	j	80004350 <__subtf3+0x12c>
    80004748:	c7f1                	beqz	a5,80004814 <__subtf3+0x5f0>
    8000474a:	849a                	mv	s1,t1
    8000474c:	b6041ce3          	bnez	s0,800042c4 <__subtf3+0xa0>
    80004750:	00a5e833          	or	a6,a1,a0
    80004754:	b40807e3          	beqz	a6,800042a2 <__subtf3+0x7e>
    80004758:	fff7c793          	not	a5,a5
    8000475c:	ef89                	bnez	a5,80004776 <__subtf3+0x552>
    8000475e:	40a60533          	sub	a0,a2,a0
    80004762:	00a637b3          	sltu	a5,a2,a0
    80004766:	8e8d                	sub	a3,a3,a1
    80004768:	862a                	mv	a2,a0
    8000476a:	8e9d                	sub	a3,a3,a5
    8000476c:	bf39                	j	8000468a <__subtf3+0x466>
    8000476e:	c3dd                	beqz	a5,80004814 <__subtf3+0x5f0>
    80004770:	ec11                	bnez	s0,8000478c <__subtf3+0x568>
    80004772:	849a                	mv	s1,t1
    80004774:	bff1                	j	80004750 <__subtf3+0x52c>
    80004776:	6821                	lui	a6,0x8
    80004778:	187d                	addi	a6,a6,-1 # 7fff <_tbss_end+0x7fbb>
    8000477a:	d30706e3          	beq	a4,a6,800044a6 <__subtf3+0x282>
    8000477e:	07400813          	li	a6,116
    80004782:	02f85063          	bge	a6,a5,800047a2 <__subtf3+0x57e>
    80004786:	4781                	li	a5,0
    80004788:	4505                	li	a0,1
    8000478a:	a091                	j	800047ce <__subtf3+0x5aa>
    8000478c:	f8c00893          	li	a7,-116
    80004790:	0917c063          	blt	a5,a7,80004810 <__subtf3+0x5ec>
    80004794:	4805                	li	a6,1
    80004796:	184e                	slli	a6,a6,0x33
    80004798:	40f007bb          	negw	a5,a5
    8000479c:	0105e5b3          	or	a1,a1,a6
    800047a0:	849a                	mv	s1,t1
    800047a2:	03f00813          	li	a6,63
    800047a6:	02f84e63          	blt	a6,a5,800047e2 <__subtf3+0x5be>
    800047aa:	04000893          	li	a7,64
    800047ae:	40f888bb          	subw	a7,a7,a5
    800047b2:	00f55333          	srl	t1,a0,a5
    800047b6:	01159833          	sll	a6,a1,a7
    800047ba:	011518b3          	sll	a7,a0,a7
    800047be:	00686833          	or	a6,a6,t1
    800047c2:	011038b3          	snez	a7,a7
    800047c6:	01186533          	or	a0,a6,a7
    800047ca:	00f5d7b3          	srl	a5,a1,a5
    800047ce:	40a60533          	sub	a0,a2,a0
    800047d2:	00a635b3          	sltu	a1,a2,a0
    800047d6:	40f687b3          	sub	a5,a3,a5
    800047da:	862a                	mv	a2,a0
    800047dc:	40b786b3          	sub	a3,a5,a1
    800047e0:	b56d                	j	8000468a <__subtf3+0x466>
    800047e2:	fc07881b          	addiw	a6,a5,-64
    800047e6:	04000313          	li	t1,64
    800047ea:	0105d833          	srl	a6,a1,a6
    800047ee:	4881                	li	a7,0
    800047f0:	00678863          	beq	a5,t1,80004800 <__subtf3+0x5dc>
    800047f4:	08000893          	li	a7,128
    800047f8:	40f888bb          	subw	a7,a7,a5
    800047fc:	011598b3          	sll	a7,a1,a7
    80004800:	00a8e8b3          	or	a7,a7,a0
    80004804:	011038b3          	snez	a7,a7
    80004808:	01186533          	or	a0,a6,a7
    8000480c:	4781                	li	a5,0
    8000480e:	b7c1                	j	800047ce <__subtf3+0x5aa>
    80004810:	849a                	mv	s1,t1
    80004812:	bf95                	j	80004786 <__subtf3+0x562>
    80004814:	6e21                	lui	t3,0x8
    80004816:	00140793          	addi	a5,s0,1
    8000481a:	ffee0813          	addi	a6,t3,-2 # 7ffe <_tbss_end+0x7fba>
    8000481e:	0107f7b3          	and	a5,a5,a6
    80004822:	e7f5                	bnez	a5,8000490e <__subtf3+0x6ea>
    80004824:	00c6e833          	or	a6,a3,a2
    80004828:	00a5e8b3          	or	a7,a1,a0
    8000482c:	ec29                	bnez	s0,80004886 <__subtf3+0x662>
    8000482e:	00089d63          	bnez	a7,80004848 <__subtf3+0x624>
    80004832:	20081d63          	bnez	a6,80004a4c <__subtf3+0x828>
    80004836:	ffe90493          	addi	s1,s2,-2
    8000483a:	0014b493          	seqz	s1,s1
    8000483e:	4581                	li	a1,0
    80004840:	4801                	li	a6,0
    80004842:	4701                	li	a4,0
    80004844:	4781                	li	a5,0
    80004846:	b3b1                	j	80004592 <__subtf3+0x36e>
    80004848:	12080e63          	beqz	a6,80004984 <__subtf3+0x760>
    8000484c:	40c50733          	sub	a4,a0,a2
    80004850:	00e53833          	sltu	a6,a0,a4
    80004854:	40d587b3          	sub	a5,a1,a3
    80004858:	410787b3          	sub	a5,a5,a6
    8000485c:	0337d813          	srli	a6,a5,0x33
    80004860:	00187813          	andi	a6,a6,1
    80004864:	00080b63          	beqz	a6,8000487a <__subtf3+0x656>
    80004868:	40a60533          	sub	a0,a2,a0
    8000486c:	8e8d                	sub	a3,a3,a1
    8000486e:	00a63633          	sltu	a2,a2,a0
    80004872:	40c685b3          	sub	a1,a3,a2
    80004876:	849a                	mv	s1,t1
    80004878:	a231                	j	80004984 <__subtf3+0x760>
    8000487a:	00f766b3          	or	a3,a4,a5
    8000487e:	dec5                	beqz	a3,80004836 <__subtf3+0x612>
    80004880:	85be                	mv	a1,a5
    80004882:	853a                	mv	a0,a4
    80004884:	a201                	j	80004984 <__subtf3+0x760>
    80004886:	1e7d                	addi	t3,t3,-1
    80004888:	05c41063          	bne	s0,t3,800048c8 <__subtf3+0x6a4>
    8000488c:	00089e63          	bnez	a7,800048a8 <__subtf3+0x684>
    80004890:	4781                	li	a5,0
    80004892:	06871363          	bne	a4,s0,800048f8 <__subtf3+0x6d4>
    80004896:	4585                	li	a1,1
    80004898:	15ca                	slli	a1,a1,0x32
    8000489a:	4481                	li	s1,0
    8000489c:	04080063          	beqz	a6,800048dc <__subtf3+0x6b8>
    800048a0:	8df5                	and	a1,a1,a3
    800048a2:	c5a5                	beqz	a1,8000490a <__subtf3+0x6e6>
    800048a4:	849a                	mv	s1,t1
    800048a6:	b46d                	j	80004350 <__subtf3+0x12c>
    800048a8:	4605                	li	a2,1
    800048aa:	164a                	slli	a2,a2,0x32
    800048ac:	00c5f7b3          	and	a5,a1,a2
    800048b0:	28078b63          	beqz	a5,80004b46 <__subtf3+0x922>
    800048b4:	4781                	li	a5,0
    800048b6:	2a871063          	bne	a4,s0,80004b56 <__subtf3+0x932>
    800048ba:	d00805e3          	beqz	a6,800045c4 <__subtf3+0x3a0>
    800048be:	8e75                	and	a2,a2,a3
    800048c0:	cc0613e3          	bnez	a2,80004586 <__subtf3+0x362>
    800048c4:	47c1                	li	a5,16
    800048c6:	ac41                	j	80004b56 <__subtf3+0x932>
    800048c8:	4781                	li	a5,0
    800048ca:	03c71563          	bne	a4,t3,800048f4 <__subtf3+0x6d0>
    800048ce:	00081963          	bnez	a6,800048e0 <__subtf3+0x6bc>
    800048d2:	ce0899e3          	bnez	a7,800045c4 <__subtf3+0x3a0>
    800048d6:	4585                	li	a1,1
    800048d8:	4481                	li	s1,0
    800048da:	15ca                	slli	a1,a1,0x32
    800048dc:	47c1                	li	a5,16
    800048de:	b955                	j	80004592 <__subtf3+0x36e>
    800048e0:	0326de13          	srli	t3,a3,0x32
    800048e4:	001e7e13          	andi	t3,t3,1
    800048e8:	000e0563          	beqz	t3,800048f2 <__subtf3+0x6ce>
    800048ec:	c8089de3          	bnez	a7,80004586 <__subtf3+0x362>
    800048f0:	bf55                	j	800048a4 <__subtf3+0x680>
    800048f2:	47c1                	li	a5,16
    800048f4:	26089163          	bnez	a7,80004b56 <__subtf3+0x932>
    800048f8:	849a                	mv	s1,t1
    800048fa:	24081363          	bnez	a6,80004b40 <__subtf3+0x91c>
    800048fe:	4585                	li	a1,1
    80004900:	6721                	lui	a4,0x8
    80004902:	4481                	li	s1,0
    80004904:	15ca                	slli	a1,a1,0x32
    80004906:	177d                	addi	a4,a4,-1 # 7fff <_tbss_end+0x7fbb>
    80004908:	bfd1                	j	800048dc <__subtf3+0x6b8>
    8000490a:	47c1                	li	a5,16
    8000490c:	b7f5                	j	800048f8 <__subtf3+0x6d4>
    8000490e:	40c507b3          	sub	a5,a0,a2
    80004912:	00f53733          	sltu	a4,a0,a5
    80004916:	40d589b3          	sub	s3,a1,a3
    8000491a:	40e989b3          	sub	s3,s3,a4
    8000491e:	0339d713          	srli	a4,s3,0x33
    80004922:	8b05                	andi	a4,a4,1
    80004924:	8a3e                	mv	s4,a5
    80004926:	cf45                	beqz	a4,800049de <__subtf3+0x7ba>
    80004928:	40a60a33          	sub	s4,a2,a0
    8000492c:	40b689b3          	sub	s3,a3,a1
    80004930:	01463633          	sltu	a2,a2,s4
    80004934:	40c989b3          	sub	s3,s3,a2
    80004938:	849a                	mv	s1,t1
    8000493a:	0a098663          	beqz	s3,800049e6 <__subtf3+0x7c2>
    8000493e:	854e                	mv	a0,s3
    80004940:	86cff0ef          	jal	ra,800039ac <__clzdi2>
    80004944:	ff45071b          	addiw	a4,a0,-12
    80004948:	04000693          	li	a3,64
    8000494c:	9e99                	subw	a3,a3,a4
    8000494e:	00e999b3          	sll	s3,s3,a4
    80004952:	00da56b3          	srl	a3,s4,a3
    80004956:	0136e6b3          	or	a3,a3,s3
    8000495a:	00ea19b3          	sll	s3,s4,a4
    8000495e:	0c874c63          	blt	a4,s0,80004a36 <__subtf3+0x812>
    80004962:	9f01                	subw	a4,a4,s0
    80004964:	2705                	addiw	a4,a4,1
    80004966:	04000793          	li	a5,64
    8000496a:	9f99                	subw	a5,a5,a4
    8000496c:	00f69533          	sll	a0,a3,a5
    80004970:	00e9d633          	srl	a2,s3,a4
    80004974:	00f997b3          	sll	a5,s3,a5
    80004978:	8d51                	or	a0,a0,a2
    8000497a:	00f037b3          	snez	a5,a5
    8000497e:	8d5d                	or	a0,a0,a5
    80004980:	00e6d5b3          	srl	a1,a3,a4
    80004984:	00b567b3          	or	a5,a0,a1
    80004988:	ea078be3          	beqz	a5,8000483e <__subtf3+0x61a>
    8000498c:	03f55793          	srli	a5,a0,0x3f
    80004990:	00159713          	slli	a4,a1,0x1
    80004994:	973e                	add	a4,a4,a5
    80004996:	00151793          	slli	a5,a0,0x1
    8000499a:	0077f613          	andi	a2,a5,7
    8000499e:	00757693          	andi	a3,a0,7
    800049a2:	0e060f63          	beqz	a2,80004aa0 <__subtf3+0x87c>
    800049a6:	4609                	li	a2,2
    800049a8:	0cc90763          	beq	s2,a2,80004a76 <__subtf3+0x852>
    800049ac:	4605                	li	a2,1
    800049ae:	480d                	li	a6,3
    800049b0:	1652                	slli	a2,a2,0x34
    800049b2:	0b090063          	beq	s2,a6,80004a52 <__subtf3+0x82e>
    800049b6:	08091f63          	bnez	s2,80004a54 <__subtf3+0x830>
    800049ba:	00f7f813          	andi	a6,a5,15
    800049be:	4891                	li	a7,4
    800049c0:	09180a63          	beq	a6,a7,80004a54 <__subtf3+0x830>
    800049c4:	ffc7b793          	sltiu	a5,a5,-4
    800049c8:	0017c793          	xori	a5,a5,1
    800049cc:	1782                	slli	a5,a5,0x20
    800049ce:	9381                	srli	a5,a5,0x20
    800049d0:	97ba                	add	a5,a5,a4
    800049d2:	8ff1                	and	a5,a5,a2
    800049d4:	e3e5                	bnez	a5,80004ab4 <__subtf3+0x890>
    800049d6:	c2f9                	beqz	a3,80004a9c <__subtf3+0x878>
    800049d8:	4685                	li	a3,1
    800049da:	4701                	li	a4,0
    800049dc:	a201                	j	80004adc <__subtf3+0x8b8>
    800049de:	0137e7b3          	or	a5,a5,s3
    800049e2:	ffa1                	bnez	a5,8000493a <__subtf3+0x716>
    800049e4:	bd89                	j	80004836 <__subtf3+0x612>
    800049e6:	8552                	mv	a0,s4
    800049e8:	fc5fe0ef          	jal	ra,800039ac <__clzdi2>
    800049ec:	0345071b          	addiw	a4,a0,52
    800049f0:	03f00593          	li	a1,63
    800049f4:	f4e5dae3          	bge	a1,a4,80004948 <__subtf3+0x724>
    800049f8:	ff45069b          	addiw	a3,a0,-12
    800049fc:	00da16b3          	sll	a3,s4,a3
    80004a00:	02874b63          	blt	a4,s0,80004a36 <__subtf3+0x812>
    80004a04:	408707bb          	subw	a5,a4,s0
    80004a08:	0017871b          	addiw	a4,a5,1
    80004a0c:	f4e5dde3          	bge	a1,a4,80004966 <__subtf3+0x742>
    80004a10:	fc17879b          	addiw	a5,a5,-63
    80004a14:	04000593          	li	a1,64
    80004a18:	00f6d7b3          	srl	a5,a3,a5
    80004a1c:	4501                	li	a0,0
    80004a1e:	00b70763          	beq	a4,a1,80004a2c <__subtf3+0x808>
    80004a22:	08000513          	li	a0,128
    80004a26:	9d19                	subw	a0,a0,a4
    80004a28:	00a69533          	sll	a0,a3,a0
    80004a2c:	00a03533          	snez	a0,a0
    80004a30:	8d5d                	or	a0,a0,a5
    80004a32:	4581                	li	a1,0
    80004a34:	bf81                	j	80004984 <__subtf3+0x760>
    80004a36:	57fd                	li	a5,-1
    80004a38:	17ce                	slli	a5,a5,0x33
    80004a3a:	17fd                	addi	a5,a5,-1
    80004a3c:	40e40733          	sub	a4,s0,a4
    80004a40:	8efd                	and	a3,a3,a5
    80004a42:	864e                	mv	a2,s3
    80004a44:	bcc5                	j	80004534 <__subtf3+0x310>
    80004a46:	85b6                	mv	a1,a3
    80004a48:	8532                	mv	a0,a2
    80004a4a:	bf2d                	j	80004984 <__subtf3+0x760>
    80004a4c:	85b6                	mv	a1,a3
    80004a4e:	8532                	mv	a0,a2
    80004a50:	b51d                	j	80004876 <__subtf3+0x652>
    80004a52:	c489                	beqz	s1,80004a5c <__subtf3+0x838>
    80004a54:	8f71                	and	a4,a4,a2
    80004a56:	ef39                	bnez	a4,80004ab4 <__subtf3+0x890>
    80004a58:	f2c1                	bnez	a3,800049d8 <__subtf3+0x7b4>
    80004a5a:	a821                	j	80004a72 <__subtf3+0x84e>
    80004a5c:	ff87b793          	sltiu	a5,a5,-8
    80004a60:	0017c793          	xori	a5,a5,1
    80004a64:	1782                	slli	a5,a5,0x20
    80004a66:	9381                	srli	a5,a5,0x20
    80004a68:	97ba                	add	a5,a5,a4
    80004a6a:	8ff1                	and	a5,a5,a2
    80004a6c:	e7a1                	bnez	a5,80004ab4 <__subtf3+0x890>
    80004a6e:	4701                	li	a4,0
    80004a70:	e6ad                	bnez	a3,80004ada <__subtf3+0x8b6>
    80004a72:	4785                	li	a5,1
    80004a74:	a031                	j	80004a80 <__subtf3+0x85c>
    80004a76:	e881                	bnez	s1,80004a86 <__subtf3+0x862>
    80004a78:	9351                	srli	a4,a4,0x34
    80004a7a:	8b05                	andi	a4,a4,1
    80004a7c:	4785                	li	a5,1
    80004a7e:	ef05                	bnez	a4,80004ab6 <__subtf3+0x892>
    80004a80:	0027e793          	ori	a5,a5,2
    80004a84:	b8e1                	j	8000435c <__subtf3+0x138>
    80004a86:	ff87b793          	sltiu	a5,a5,-8
    80004a8a:	0017c793          	xori	a5,a5,1
    80004a8e:	1782                	slli	a5,a5,0x20
    80004a90:	9381                	srli	a5,a5,0x20
    80004a92:	97ba                	add	a5,a5,a4
    80004a94:	93d1                	srli	a5,a5,0x34
    80004a96:	8b85                	andi	a5,a5,1
    80004a98:	ef91                	bnez	a5,80004ab4 <__subtf3+0x890>
    80004a9a:	e6b1                	bnez	a3,80004ae6 <__subtf3+0x8c2>
    80004a9c:	4701                	li	a4,0
    80004a9e:	bfd1                	j	80004a72 <__subtf3+0x84e>
    80004aa0:	9351                	srli	a4,a4,0x34
    80004aa2:	8b05                	andi	a4,a4,1
    80004aa4:	e715                	bnez	a4,80004ad0 <__subtf3+0x8ac>
    80004aa6:	4781                	li	a5,0
    80004aa8:	8a068ae3          	beqz	a3,8000435c <__subtf3+0x138>
    80004aac:	4685                	li	a3,1
    80004aae:	4701                	li	a4,0
    80004ab0:	4781                	li	a5,0
    80004ab2:	a031                	j	80004abe <__subtf3+0x89a>
    80004ab4:	4785                	li	a5,1
    80004ab6:	4701                	li	a4,0
    80004ab8:	8a0682e3          	beqz	a3,8000435c <__subtf3+0x138>
    80004abc:	4681                	li	a3,0
    80004abe:	4609                	li	a2,2
    80004ac0:	0017e793          	ori	a5,a5,1
    80004ac4:	b2c91fe3          	bne	s2,a2,80004602 <__subtf3+0x3de>
    80004ac8:	cc89                	beqz	s1,80004ae2 <__subtf3+0x8be>
    80004aca:	00850613          	addi	a2,a0,8
    80004ace:	b6b1                	j	8000461a <__subtf3+0x3f6>
    80004ad0:	4781                	li	a5,0
    80004ad2:	b7d5                	j	80004ab6 <__subtf3+0x892>
    80004ad4:	85b6                	mv	a1,a3
    80004ad6:	8532                	mv	a0,a2
    80004ad8:	b7d5                	j	80004abc <__subtf3+0x898>
    80004ada:	4685                	li	a3,1
    80004adc:	4785                	li	a5,1
    80004ade:	b615                	j	80004602 <__subtf3+0x3de>
    80004ae0:	d4ed                	beqz	s1,80004aca <__subtf3+0x8a6>
    80004ae2:	fed9                	bnez	a3,80004a80 <__subtf3+0x85c>
    80004ae4:	b8a5                	j	8000435c <__subtf3+0x138>
    80004ae6:	4685                	li	a3,1
    80004ae8:	4701                	li	a4,0
    80004aea:	4785                	li	a5,1
    80004aec:	bff1                	j	80004ac8 <__subtf3+0x8a4>
    80004aee:	4801                	li	a6,0
    80004af0:	00090663          	beqz	s2,80004afc <__subtf3+0x8d8>
    80004af4:	460d                	li	a2,3
    80004af6:	00c91763          	bne	s2,a2,80004b04 <__subtf3+0x8e0>
    80004afa:	e889                	bnez	s1,80004b0c <__subtf3+0x8e8>
    80004afc:	0057e793          	ori	a5,a5,5
    80004b00:	85c2                	mv	a1,a6
    80004b02:	bc41                	j	80004592 <__subtf3+0x36e>
    80004b04:	4609                	li	a2,2
    80004b06:	00c91363          	bne	s2,a2,80004b0c <__subtf3+0x8e8>
    80004b0a:	f8ed                	bnez	s1,80004afc <__subtf3+0x8d8>
    80004b0c:	587d                	li	a6,-1
    80004b0e:	ffe68713          	addi	a4,a3,-2
    80004b12:	b7ed                	j	80004afc <__subtf3+0x8d8>
    80004b14:	873e                	mv	a4,a5
    80004b16:	4581                	li	a1,0
    80004b18:	4801                	li	a6,0
    80004b1a:	4795                	li	a5,5
    80004b1c:	bc9d                	j	80004592 <__subtf3+0x36e>
    80004b1e:	4581                	li	a1,0
    80004b20:	8722                	mv	a4,s0
    80004b22:	b30d                	j	80004844 <__subtf3+0x620>
    80004b24:	882a                	mv	a6,a0
    80004b26:	b4b5                	j	80004592 <__subtf3+0x36e>
    80004b28:	47c1                	li	a5,16
    80004b2a:	a8871be3          	bne	a4,s0,800045c0 <__subtf3+0x39c>
    80004b2e:	a2030ae3          	beqz	t1,80004562 <__subtf3+0x33e>
    80004b32:	0326d713          	srli	a4,a3,0x32
    80004b36:	8b05                	andi	a4,a4,1
    80004b38:	a80701e3          	beqz	a4,800045ba <__subtf3+0x396>
    80004b3c:	a40815e3          	bnez	a6,80004586 <__subtf3+0x362>
    80004b40:	6721                	lui	a4,0x8
    80004b42:	177d                	addi	a4,a4,-1 # 7fff <_tbss_end+0x7fbb>
    80004b44:	b031                	j	80004350 <__subtf3+0x12c>
    80004b46:	47c1                	li	a5,16
    80004b48:	00871763          	bne	a4,s0,80004b56 <__subtf3+0x932>
    80004b4c:	a6080ce3          	beqz	a6,800045c4 <__subtf3+0x3a0>
    80004b50:	8e75                	and	a2,a2,a3
    80004b52:	a2061ae3          	bnez	a2,80004586 <__subtf3+0x362>
    80004b56:	a20818e3          	bnez	a6,80004586 <__subtf3+0x362>
    80004b5a:	b4ad                	j	800045c4 <__subtf3+0x3a0>

0000000080004b5c <__fixtfsi>:
    80004b5c:	862a                	mv	a2,a0
    80004b5e:	002027f3          	frrm	a5
    80004b62:	6811                	lui	a6,0x4
    80004b64:	00159693          	slli	a3,a1,0x1
    80004b68:	01059793          	slli	a5,a1,0x10
    80004b6c:	92c5                	srli	a3,a3,0x31
    80004b6e:	ffe80713          	addi	a4,a6,-2 # 3ffe <_tbss_end+0x3fba>
    80004b72:	83c1                	srli	a5,a5,0x10
    80004b74:	91fd                	srli	a1,a1,0x3f
    80004b76:	00d74763          	blt	a4,a3,80004b84 <__fixtfsi+0x28>
    80004b7a:	e2bd                	bnez	a3,80004be0 <__fixtfsi+0x84>
    80004b7c:	8fc9                	or	a5,a5,a0
    80004b7e:	4501                	li	a0,0
    80004b80:	efb1                	bnez	a5,80004bdc <__fixtfsi+0x80>
    80004b82:	8082                	ret
    80004b84:	01d80713          	addi	a4,a6,29
    80004b88:	02d75463          	bge	a4,a3,80004bb0 <__fixtfsi+0x54>
    80004b8c:	80000737          	lui	a4,0x80000
    80004b90:	fff74713          	not	a4,a4
    80004b94:	00b7053b          	addw	a0,a4,a1
    80004b98:	c5b1                	beqz	a1,80004be4 <__fixtfsi+0x88>
    80004b9a:	0879                	addi	a6,a6,30
    80004b9c:	4741                	li	a4,16
    80004b9e:	05069463          	bne	a3,a6,80004be6 <__fixtfsi+0x8a>
    80004ba2:	0117d693          	srli	a3,a5,0x11
    80004ba6:	e2a1                	bnez	a3,80004be6 <__fixtfsi+0x8a>
    80004ba8:	17be                	slli	a5,a5,0x2f
    80004baa:	8fd1                	or	a5,a5,a2
    80004bac:	eb85                	bnez	a5,80004bdc <__fixtfsi+0x80>
    80004bae:	8082                	ret
    80004bb0:	4705                	li	a4,1
    80004bb2:	1742                	slli	a4,a4,0x30
    80004bb4:	8fd9                	or	a5,a5,a4
    80004bb6:	6611                	lui	a2,0x4
    80004bb8:	7771                	lui	a4,0xffffc
    80004bba:	2745                	addiw	a4,a4,17 # ffffffffffffc011 <_end+0xffffffff7cfeadd1>
    80004bbc:	02f6061b          	addiw	a2,a2,47 # 402f <_tbss_end+0x3feb>
    80004bc0:	9f35                	addw	a4,a4,a3
    80004bc2:	40d606bb          	subw	a3,a2,a3
    80004bc6:	00e79733          	sll	a4,a5,a4
    80004bca:	00d7d7b3          	srl	a5,a5,a3
    80004bce:	8f49                	or	a4,a4,a0
    80004bd0:	0007851b          	sext.w	a0,a5
    80004bd4:	c199                	beqz	a1,80004bda <__fixtfsi+0x7e>
    80004bd6:	40a0053b          	negw	a0,a0
    80004bda:	cb01                	beqz	a4,80004bea <__fixtfsi+0x8e>
    80004bdc:	4705                	li	a4,1
    80004bde:	a021                	j	80004be6 <__fixtfsi+0x8a>
    80004be0:	4501                	li	a0,0
    80004be2:	bfed                	j	80004bdc <__fixtfsi+0x80>
    80004be4:	4741                	li	a4,16
    80004be6:	00172073          	csrs	fflags,a4
    80004bea:	8082                	ret

0000000080004bec <__floatsitf>:
    80004bec:	1101                	addi	sp,sp,-32
    80004bee:	ec06                	sd	ra,24(sp)
    80004bf0:	e822                	sd	s0,16(sp)
    80004bf2:	e426                	sd	s1,8(sp)
    80004bf4:	c139                	beqz	a0,80004c3a <__floatsitf+0x4e>
    80004bf6:	0005079b          	sext.w	a5,a0
    80004bfa:	03f55493          	srli	s1,a0,0x3f
    80004bfe:	00055463          	bgez	a0,80004c06 <__floatsitf+0x1a>
    80004c02:	40f007bb          	negw	a5,a5
    80004c06:	02079413          	slli	s0,a5,0x20
    80004c0a:	9001                	srli	s0,s0,0x20
    80004c0c:	8522                	mv	a0,s0
    80004c0e:	d9ffe0ef          	jal	ra,800039ac <__clzdi2>
    80004c12:	6591                	lui	a1,0x4
    80004c14:	03e5859b          	addiw	a1,a1,62 # 403e <_tbss_end+0x3ffa>
    80004c18:	9d89                	subw	a1,a1,a0
    80004c1a:	3545                	addiw	a0,a0,-15
    80004c1c:	00a417b3          	sll	a5,s0,a0
    80004c20:	60e2                	ld	ra,24(sp)
    80004c22:	6442                	ld	s0,16(sp)
    80004c24:	00f4949b          	slliw	s1,s1,0xf
    80004c28:	8dc5                	or	a1,a1,s1
    80004c2a:	07c2                	slli	a5,a5,0x10
    80004c2c:	15c2                	slli	a1,a1,0x30
    80004c2e:	83c1                	srli	a5,a5,0x10
    80004c30:	64a2                	ld	s1,8(sp)
    80004c32:	4501                	li	a0,0
    80004c34:	8ddd                	or	a1,a1,a5
    80004c36:	6105                	addi	sp,sp,32
    80004c38:	8082                	ret
    80004c3a:	4781                	li	a5,0
    80004c3c:	4581                	li	a1,0
    80004c3e:	4481                	li	s1,0
    80004c40:	b7c5                	j	80004c20 <__floatsitf+0x34>

0000000080004c42 <__extenddftf2>:
    80004c42:	1101                	addi	sp,sp,-32
    80004c44:	e20507d3          	fmv.x.d	a5,fa0
    80004c48:	ec06                	sd	ra,24(sp)
    80004c4a:	e822                	sd	s0,16(sp)
    80004c4c:	e426                	sd	s1,8(sp)
    80004c4e:	00202773          	frrm	a4
    80004c52:	0347d513          	srli	a0,a5,0x34
    80004c56:	7ff57513          	andi	a0,a0,2047
    80004c5a:	00c79413          	slli	s0,a5,0xc
    80004c5e:	03f7d493          	srli	s1,a5,0x3f
    80004c62:	00150793          	addi	a5,a0,1
    80004c66:	7fe7f793          	andi	a5,a5,2046
    80004c6a:	8031                	srli	s0,s0,0xc
    80004c6c:	cb91                	beqz	a5,80004c80 <__extenddftf2+0x3e>
    80004c6e:	6791                	lui	a5,0x4
    80004c70:	c0078793          	addi	a5,a5,-1024 # 3c00 <_tbss_end+0x3bbc>
    80004c74:	953e                	add	a0,a0,a5
    80004c76:	00445793          	srli	a5,s0,0x4
    80004c7a:	1472                	slli	s0,s0,0x3c
    80004c7c:	4701                	li	a4,0
    80004c7e:	a8b9                	j	80004cdc <__extenddftf2+0x9a>
    80004c80:	ed1d                	bnez	a0,80004cbe <__extenddftf2+0x7c>
    80004c82:	4781                	li	a5,0
    80004c84:	dc65                	beqz	s0,80004c7c <__extenddftf2+0x3a>
    80004c86:	8522                	mv	a0,s0
    80004c88:	d25fe0ef          	jal	ra,800039ac <__clzdi2>
    80004c8c:	0005071b          	sext.w	a4,a0
    80004c90:	47b9                	li	a5,14
    80004c92:	02e7c063          	blt	a5,a4,80004cb2 <__extenddftf2+0x70>
    80004c96:	47bd                	li	a5,15
    80004c98:	9f89                	subw	a5,a5,a0
    80004c9a:	0315071b          	addiw	a4,a0,49
    80004c9e:	00f457b3          	srl	a5,s0,a5
    80004ca2:	00e41433          	sll	s0,s0,a4
    80004ca6:	6711                	lui	a4,0x4
    80004ca8:	c0c7071b          	addiw	a4,a4,-1012 # 3c0c <_tbss_end+0x3bc8>
    80004cac:	40a7053b          	subw	a0,a4,a0
    80004cb0:	b7f1                	j	80004c7c <__extenddftf2+0x3a>
    80004cb2:	ff15079b          	addiw	a5,a0,-15
    80004cb6:	00f417b3          	sll	a5,s0,a5
    80004cba:	4401                	li	s0,0
    80004cbc:	b7ed                	j	80004ca6 <__extenddftf2+0x64>
    80004cbe:	c021                	beqz	s0,80004cfe <__extenddftf2+0xbc>
    80004cc0:	4685                	li	a3,1
    80004cc2:	03369713          	slli	a4,a3,0x33
    80004cc6:	00e43733          	sltu	a4,s0,a4
    80004cca:	00445793          	srli	a5,s0,0x4
    80004cce:	16be                	slli	a3,a3,0x2f
    80004cd0:	6521                	lui	a0,0x8
    80004cd2:	0047171b          	slliw	a4,a4,0x4
    80004cd6:	8fd5                	or	a5,a5,a3
    80004cd8:	1472                	slli	s0,s0,0x3c
    80004cda:	157d                	addi	a0,a0,-1 # 7fff <_tbss_end+0x7fbb>
    80004cdc:	01079593          	slli	a1,a5,0x10
    80004ce0:	00f4979b          	slliw	a5,s1,0xf
    80004ce4:	8d5d                	or	a0,a0,a5
    80004ce6:	1542                	slli	a0,a0,0x30
    80004ce8:	81c1                	srli	a1,a1,0x10
    80004cea:	8dc9                	or	a1,a1,a0
    80004cec:	c319                	beqz	a4,80004cf2 <__extenddftf2+0xb0>
    80004cee:	00186073          	csrsi	fflags,16
    80004cf2:	60e2                	ld	ra,24(sp)
    80004cf4:	8522                	mv	a0,s0
    80004cf6:	6442                	ld	s0,16(sp)
    80004cf8:	64a2                	ld	s1,8(sp)
    80004cfa:	6105                	addi	sp,sp,32
    80004cfc:	8082                	ret
    80004cfe:	6521                	lui	a0,0x8
    80004d00:	4781                	li	a5,0
    80004d02:	157d                	addi	a0,a0,-1 # 7fff <_tbss_end+0x7fbb>
    80004d04:	bfa5                	j	80004c7c <__extenddftf2+0x3a>

0000000080004d06 <__trunctfdf2>:
    80004d06:	00202873          	frrm	a6
    80004d0a:	68a1                	lui	a7,0x8
    80004d0c:	0305d713          	srli	a4,a1,0x30
    80004d10:	fff88e13          	addi	t3,a7,-1 # 7fff <_tbss_end+0x7fbb>
    80004d14:	57fd                	li	a5,-1
    80004d16:	0107d693          	srli	a3,a5,0x10
    80004d1a:	01c77733          	and	a4,a4,t3
    80004d1e:	03f5d613          	srli	a2,a1,0x3f
    80004d22:	00170313          	addi	t1,a4,1
    80004d26:	8df5                	and	a1,a1,a3
    80004d28:	18f9                	addi	a7,a7,-2
    80004d2a:	058e                	slli	a1,a1,0x3
    80004d2c:	03d55693          	srli	a3,a0,0x3d
    80004d30:	011378b3          	and	a7,t1,a7
    80004d34:	8ecd                	or	a3,a3,a1
    80004d36:	2801                	sext.w	a6,a6
    80004d38:	00351593          	slli	a1,a0,0x3
    80004d3c:	10088163          	beqz	a7,80004e3e <__trunctfdf2+0x138>
    80004d40:	78f1                	lui	a7,0xffffc
    80004d42:	40088893          	addi	a7,a7,1024 # ffffffffffffc400 <_end+0xffffffff7cfeb1c0>
    80004d46:	9746                	add	a4,a4,a7
    80004d48:	7fe00893          	li	a7,2046
    80004d4c:	02e8d463          	bge	a7,a4,80004d74 <__trunctfdf2+0x6e>
    80004d50:	20080763          	beqz	a6,80004f5e <__trunctfdf2+0x258>
    80004d54:	470d                	li	a4,3
    80004d56:	00e81863          	bne	a6,a4,80004d66 <__trunctfdf2+0x60>
    80004d5a:	22060163          	beqz	a2,80004f7c <__trunctfdf2+0x276>
    80004d5e:	7fe00713          	li	a4,2046
    80004d62:	4515                	li	a0,5
    80004d64:	a259                	j	80004eea <__trunctfdf2+0x1e4>
    80004d66:	4709                	li	a4,2
    80004d68:	00e81463          	bne	a6,a4,80004d70 <__trunctfdf2+0x6a>
    80004d6c:	20061a63          	bnez	a2,80004f80 <__trunctfdf2+0x27a>
    80004d70:	57fd                	li	a5,-1
    80004d72:	b7f5                	j	80004d5e <__trunctfdf2+0x58>
    80004d74:	0ae04763          	bgtz	a4,80004e22 <__trunctfdf2+0x11c>
    80004d78:	fcc00793          	li	a5,-52
    80004d7c:	0cf74663          	blt	a4,a5,80004e48 <__trunctfdf2+0x142>
    80004d80:	4785                	li	a5,1
    80004d82:	17ce                	slli	a5,a5,0x33
    80004d84:	03d00893          	li	a7,61
    80004d88:	8edd                	or	a3,a3,a5
    80004d8a:	40e888b3          	sub	a7,a7,a4
    80004d8e:	03f00793          	li	a5,63
    80004d92:	2701                	sext.w	a4,a4
    80004d94:	0717c563          	blt	a5,a7,80004dfe <__trunctfdf2+0xf8>
    80004d98:	03d00793          	li	a5,61
    80004d9c:	0037051b          	addiw	a0,a4,3
    80004da0:	9f99                	subw	a5,a5,a4
    80004da2:	00f5d7b3          	srl	a5,a1,a5
    80004da6:	00a595b3          	sll	a1,a1,a0
    80004daa:	00b035b3          	snez	a1,a1
    80004dae:	8fcd                	or	a5,a5,a1
    80004db0:	00a696b3          	sll	a3,a3,a0
    80004db4:	8fd5                	or	a5,a5,a3
    80004db6:	00179713          	slli	a4,a5,0x1
    80004dba:	00777693          	andi	a3,a4,7
    80004dbe:	e6d9                	bnez	a3,80004e4c <__trunctfdf2+0x146>
    80004dc0:	0077f593          	andi	a1,a5,7
    80004dc4:	4701                	li	a4,0
    80004dc6:	4685                	li	a3,1
    80004dc8:	4501                	li	a0,0
    80004dca:	c185                	beqz	a1,80004dea <__trunctfdf2+0xe4>
    80004dcc:	4589                	li	a1,2
    80004dce:	12b80f63          	beq	a6,a1,80004f0c <__trunctfdf2+0x206>
    80004dd2:	458d                	li	a1,3
    80004dd4:	10b80863          	beq	a6,a1,80004ee4 <__trunctfdf2+0x1de>
    80004dd8:	12081d63          	bnez	a6,80004f12 <__trunctfdf2+0x20c>
    80004ddc:	00f7f593          	andi	a1,a5,15
    80004de0:	4511                	li	a0,4
    80004de2:	0ea59b63          	bne	a1,a0,80004ed8 <__trunctfdf2+0x1d2>
    80004de6:	4505                	li	a0,1
    80004de8:	e6e9                	bnez	a3,80004eb2 <__trunctfdf2+0x1ac>
    80004dea:	7ff00693          	li	a3,2047
    80004dee:	838d                	srli	a5,a5,0x3
    80004df0:	08d71b63          	bne	a4,a3,80004e86 <__trunctfdf2+0x180>
    80004df4:	cbc9                	beqz	a5,80004e86 <__trunctfdf2+0x180>
    80004df6:	4785                	li	a5,1
    80004df8:	17ce                	slli	a5,a5,0x33
    80004dfa:	4601                	li	a2,0
    80004dfc:	a069                	j	80004e86 <__trunctfdf2+0x180>
    80004dfe:	5575                	li	a0,-3
    80004e00:	9d19                	subw	a0,a0,a4
    80004e02:	04000313          	li	t1,64
    80004e06:	00a6d533          	srl	a0,a3,a0
    80004e0a:	4781                	li	a5,0
    80004e0c:	00688663          	beq	a7,t1,80004e18 <__trunctfdf2+0x112>
    80004e10:	0437071b          	addiw	a4,a4,67
    80004e14:	00e697b3          	sll	a5,a3,a4
    80004e18:	8fcd                	or	a5,a5,a1
    80004e1a:	00f037b3          	snez	a5,a5
    80004e1e:	8fc9                	or	a5,a5,a0
    80004e20:	bf59                	j	80004db6 <__trunctfdf2+0xb0>
    80004e22:	051e                	slli	a0,a0,0x7
    80004e24:	00a03533          	snez	a0,a0
    80004e28:	91f1                	srli	a1,a1,0x3c
    80004e2a:	8d4d                	or	a0,a0,a1
    80004e2c:	00469793          	slli	a5,a3,0x4
    80004e30:	8fc9                	or	a5,a5,a0
    80004e32:	891d                	andi	a0,a0,7
    80004e34:	4681                	li	a3,0
    80004e36:	f959                	bnez	a0,80004dcc <__trunctfdf2+0xc6>
    80004e38:	838d                	srli	a5,a5,0x3
    80004e3a:	4501                	li	a0,0
    80004e3c:	a0a9                	j	80004e86 <__trunctfdf2+0x180>
    80004e3e:	8dd5                	or	a1,a1,a3
    80004e40:	e705                	bnez	a4,80004e68 <__trunctfdf2+0x162>
    80004e42:	03f61793          	slli	a5,a2,0x3f
    80004e46:	c9b1                	beqz	a1,80004e9a <__trunctfdf2+0x194>
    80004e48:	4785                	li	a5,1
    80004e4a:	4709                	li	a4,2
    80004e4c:	4689                	li	a3,2
    80004e4e:	0077f513          	andi	a0,a5,7
    80004e52:	08d80163          	beq	a6,a3,80004ed4 <__trunctfdf2+0x1ce>
    80004e56:	468d                	li	a3,3
    80004e58:	04d80f63          	beq	a6,a3,80004eb6 <__trunctfdf2+0x1b0>
    80004e5c:	04080263          	beqz	a6,80004ea0 <__trunctfdf2+0x19a>
    80004e60:	4701                	li	a4,0
    80004e62:	4685                	li	a3,1
    80004e64:	f525                	bnez	a0,80004dcc <__trunctfdf2+0xc6>
    80004e66:	a0b1                	j	80004eb2 <__trunctfdf2+0x1ac>
    80004e68:	10058363          	beqz	a1,80004f6e <__trunctfdf2+0x268>
    80004e6c:	4501                	li	a0,0
    80004e6e:	01c71763          	bne	a4,t3,80004e7c <__trunctfdf2+0x176>
    80004e72:	92c9                	srli	a3,a3,0x32
    80004e74:	0016c693          	xori	a3,a3,1
    80004e78:	00469513          	slli	a0,a3,0x4
    80004e7c:	4785                	li	a5,1
    80004e7e:	4601                	li	a2,0
    80004e80:	7ff00713          	li	a4,2047
    80004e84:	17ce                	slli	a5,a5,0x33
    80004e86:	7ff77713          	andi	a4,a4,2047
    80004e8a:	07b2                	slli	a5,a5,0xc
    80004e8c:	83b1                	srli	a5,a5,0xc
    80004e8e:	1752                	slli	a4,a4,0x34
    80004e90:	8f5d                	or	a4,a4,a5
    80004e92:	03f61793          	slli	a5,a2,0x3f
    80004e96:	8fd9                	or	a5,a5,a4
    80004e98:	e94d                	bnez	a0,80004f4a <__trunctfdf2+0x244>
    80004e9a:	f2078553          	fmv.d.x	fa0,a5
    80004e9e:	8082                	ret
    80004ea0:	00f77593          	andi	a1,a4,15
    80004ea4:	4691                	li	a3,4
    80004ea6:	0711                	addi	a4,a4,4
    80004ea8:	00d59963          	bne	a1,a3,80004eba <__trunctfdf2+0x1b4>
    80004eac:	4685                	li	a3,1
    80004eae:	4701                	li	a4,0
    80004eb0:	f10d                	bnez	a0,80004dd2 <__trunctfdf2+0xcc>
    80004eb2:	450d                	li	a0,3
    80004eb4:	bf1d                	j	80004dea <__trunctfdf2+0xe4>
    80004eb6:	f64d                	bnez	a2,80004e60 <__trunctfdf2+0x15a>
    80004eb8:	0721                	addi	a4,a4,8
    80004eba:	4685                	li	a3,1
    80004ebc:	16e2                	slli	a3,a3,0x38
    80004ebe:	00d775b3          	and	a1,a4,a3
    80004ec2:	0015b693          	seqz	a3,a1
    80004ec6:	4701                	li	a4,0
    80004ec8:	f111                	bnez	a0,80004dcc <__trunctfdf2+0xc6>
    80004eca:	450d                	li	a0,3
    80004ecc:	dd99                	beqz	a1,80004dea <__trunctfdf2+0xe4>
    80004ece:	838d                	srli	a5,a5,0x3
    80004ed0:	4505                	li	a0,1
    80004ed2:	bf55                	j	80004e86 <__trunctfdf2+0x180>
    80004ed4:	f275                	bnez	a2,80004eb8 <__trunctfdf2+0x1b2>
    80004ed6:	b769                	j	80004e60 <__trunctfdf2+0x15a>
    80004ed8:	0791                	addi	a5,a5,4
    80004eda:	4505                	li	a0,1
    80004edc:	c699                	beqz	a3,80004eea <__trunctfdf2+0x1e4>
    80004ede:	0026e513          	ori	a0,a3,2
    80004ee2:	a021                	j	80004eea <__trunctfdf2+0x1e4>
    80004ee4:	c60d                	beqz	a2,80004f0e <__trunctfdf2+0x208>
    80004ee6:	4505                	li	a0,1
    80004ee8:	ea85                	bnez	a3,80004f18 <__trunctfdf2+0x212>
    80004eea:	0377d693          	srli	a3,a5,0x37
    80004eee:	8a85                	andi	a3,a3,1
    80004ef0:	ee068de3          	beqz	a3,80004dea <__trunctfdf2+0xe4>
    80004ef4:	0705                	addi	a4,a4,1
    80004ef6:	7ff00693          	li	a3,2047
    80004efa:	02d70163          	beq	a4,a3,80004f1c <__trunctfdf2+0x216>
    80004efe:	1ff00693          	li	a3,511
    80004f02:	16d2                	slli	a3,a3,0x34
    80004f04:	838d                	srli	a5,a5,0x3
    80004f06:	16fd                	addi	a3,a3,-1
    80004f08:	8ff5                	and	a5,a5,a3
    80004f0a:	bfb5                	j	80004e86 <__trunctfdf2+0x180>
    80004f0c:	d679                	beqz	a2,80004eda <__trunctfdf2+0x1d4>
    80004f0e:	07a1                	addi	a5,a5,8
    80004f10:	b7e9                	j	80004eda <__trunctfdf2+0x1d4>
    80004f12:	4505                	li	a0,1
    80004f14:	f6e9                	bnez	a3,80004ede <__trunctfdf2+0x1d8>
    80004f16:	bfd1                	j	80004eea <__trunctfdf2+0x1e4>
    80004f18:	4685                	li	a3,1
    80004f1a:	b7d1                	j	80004ede <__trunctfdf2+0x1d8>
    80004f1c:	00556513          	ori	a0,a0,5
    80004f20:	02080863          	beqz	a6,80004f50 <__trunctfdf2+0x24a>
    80004f24:	478d                	li	a5,3
    80004f26:	00f81a63          	bne	a6,a5,80004f3a <__trunctfdf2+0x234>
    80004f2a:	c21d                	beqz	a2,80004f50 <__trunctfdf2+0x24a>
    80004f2c:	7ff00713          	li	a4,2047
    80004f30:	1752                	slli	a4,a4,0x34
    80004f32:	03f61793          	slli	a5,a2,0x3f
    80004f36:	177d                	addi	a4,a4,-1
    80004f38:	a00d                	j	80004f5a <__trunctfdf2+0x254>
    80004f3a:	4789                	li	a5,2
    80004f3c:	fef818e3          	bne	a6,a5,80004f2c <__trunctfdf2+0x226>
    80004f40:	ea01                	bnez	a2,80004f50 <__trunctfdf2+0x24a>
    80004f42:	0000b797          	auipc	a5,0xb
    80004f46:	2067b783          	ld	a5,518(a5) # 80010148 <__global_locale+0x210>
    80004f4a:	00152073          	csrs	fflags,a0
    80004f4e:	b7b1                	j	80004e9a <__trunctfdf2+0x194>
    80004f50:	7ff00713          	li	a4,2047
    80004f54:	03f61793          	slli	a5,a2,0x3f
    80004f58:	1752                	slli	a4,a4,0x34
    80004f5a:	8fd9                	or	a5,a5,a4
    80004f5c:	b7fd                	j	80004f4a <__trunctfdf2+0x244>
    80004f5e:	7ff00713          	li	a4,2047
    80004f62:	03f61793          	slli	a5,a2,0x3f
    80004f66:	1752                	slli	a4,a4,0x34
    80004f68:	8fd9                	or	a5,a5,a4
    80004f6a:	4515                	li	a0,5
    80004f6c:	bff9                	j	80004f4a <__trunctfdf2+0x244>
    80004f6e:	7ff00793          	li	a5,2047
    80004f72:	03f61713          	slli	a4,a2,0x3f
    80004f76:	17d2                	slli	a5,a5,0x34
    80004f78:	8fd9                	or	a5,a5,a4
    80004f7a:	b705                	j	80004e9a <__trunctfdf2+0x194>
    80004f7c:	7ff00793          	li	a5,2047
    80004f80:	17d2                	slli	a5,a5,0x34
    80004f82:	b7e5                	j	80004f6a <__trunctfdf2+0x264>

Disassembly of section .text.startup:

0000000080004f84 <main>:
    80004f84:	7175                	addi	sp,sp,-144
    80004f86:	7291                	lui	t0,0xfffe4
    80004f88:	e506                	sd	ra,136(sp)
    80004f8a:	e122                	sd	s0,128(sp)
    80004f8c:	fca6                	sd	s1,120(sp)
    80004f8e:	f8ca                	sd	s2,112(sp)
    80004f90:	f4ce                	sd	s3,104(sp)
    80004f92:	f0d2                	sd	s4,96(sp)
    80004f94:	ecd6                	sd	s5,88(sp)
    80004f96:	e8da                	sd	s6,80(sp)
    80004f98:	e4de                	sd	s7,72(sp)
    80004f9a:	e0e2                	sd	s8,64(sp)
    80004f9c:	fc66                	sd	s9,56(sp)
    80004f9e:	f86a                	sd	s10,48(sp)
    80004fa0:	b422                	fsd	fs0,40(sp)
    80004fa2:	00008517          	auipc	a0,0x8
    80004fa6:	71650513          	addi	a0,a0,1814 # 8000d6b8 <_conv_stat+0x5a>
    80004faa:	9116                	add	sp,sp,t0
    80004fac:	8c1fd0ef          	jal	ra,8000286c <printf>
    80004fb0:	04000593          	li	a1,64
    80004fb4:	00008517          	auipc	a0,0x8
    80004fb8:	72450513          	addi	a0,a0,1828 # 8000d6d8 <_conv_stat+0x7a>
    80004fbc:	8b1fd0ef          	jal	ra,8000286c <printf>
    80004fc0:	04000593          	li	a1,64
    80004fc4:	00008517          	auipc	a0,0x8
    80004fc8:	71c50513          	addi	a0,a0,1820 # 8000d6e0 <_conv_stat+0x82>
    80004fcc:	8a1fd0ef          	jal	ra,8000286c <printf>
    80004fd0:	77a1                	lui	a5,0xfffe8
    80004fd2:	6771                	lui	a4,0x1c
    80004fd4:	973e                	add	a4,a4,a5
    80004fd6:	101c                	addi	a5,sp,32
    80004fd8:	97ba                	add	a5,a5,a4
    80004fda:	e43e                	sd	a5,8(sp)
    80004fdc:	6771                	lui	a4,0x1c
    80004fde:	7791                	lui	a5,0xfffe4
    80004fe0:	973e                	add	a4,a4,a5
    80004fe2:	66a2                	ld	a3,8(sp)
    80004fe4:	101c                	addi	a5,sp,32
    80004fe6:	97ba                	add	a5,a5,a4
    80004fe8:	863e                	mv	a2,a5
    80004fea:	04000513          	li	a0,64
    80004fee:	04000593          	li	a1,64
    80004ff2:	e03e                	sd	a5,0(sp)
    80004ff4:	854fd0ef          	jal	ra,80002048 <init_array>
    80004ff8:	6582                	ld	a1,0(sp)
    80004ffa:	00008517          	auipc	a0,0x8
    80004ffe:	6ee50513          	addi	a0,a0,1774 # 8000d6e8 <_conv_stat+0x8a>
    80005002:	86bfd0ef          	jal	ra,8000286c <printf>
    80005006:	65a2                	ld	a1,8(sp)
    80005008:	00008517          	auipc	a0,0x8
    8000500c:	6f050513          	addi	a0,a0,1776 # 8000d6f8 <_conv_stat+0x9a>
    80005010:	85dfd0ef          	jal	ra,8000286c <printf>
    80005014:	00008517          	auipc	a0,0x8
    80005018:	6f450513          	addi	a0,a0,1780 # 8000d708 <_conv_stat+0xaa>
    8000501c:	851fd0ef          	jal	ra,8000286c <printf>
    80005020:	c00024f3          	rdcycle	s1
    80005024:	77e1                	lui	a5,0xffff8
    80005026:	6771                	lui	a4,0x1c
    80005028:	973e                	add	a4,a4,a5
    8000502a:	101c                	addi	a5,sp,32
    8000502c:	97ba                	add	a5,a5,a4
    8000502e:	e83e                	sd	a5,16(sp)
    80005030:	86be                	mv	a3,a5
    80005032:	65a2                	ld	a1,8(sp)
    80005034:	6502                	ld	a0,0(sp)
    80005036:	7641                	lui	a2,0xffff0
    80005038:	67f1                	lui	a5,0x1c
    8000503a:	97b2                	add	a5,a5,a2
    8000503c:	1018                	addi	a4,sp,32
    8000503e:	00e78633          	add	a2,a5,a4
    80005042:	97cfd0ef          	jal	ra,800021be <kernel_deriche>
    80005046:	c0002473          	rdcycle	s0
    8000504a:	00008517          	auipc	a0,0x8
    8000504e:	6ce50513          	addi	a0,a0,1742 # 8000d718 <_conv_stat+0xba>
    80005052:	409405b3          	sub	a1,s0,s1
    80005056:	817fd0ef          	jal	ra,8000286c <printf>
    8000505a:	85a6                	mv	a1,s1
    8000505c:	00008517          	auipc	a0,0x8
    80005060:	6f450513          	addi	a0,a0,1780 # 8000d750 <_conv_stat+0xf2>
    80005064:	809fd0ef          	jal	ra,8000286c <printf>
    80005068:	85a2                	mv	a1,s0
    8000506a:	00008517          	auipc	a0,0x8
    8000506e:	6f650513          	addi	a0,a0,1782 # 8000d760 <_conv_stat+0x102>
    80005072:	ffafd0ef          	jal	ra,8000286c <printf>
    80005076:	77b1                	lui	a5,0xfffec
    80005078:	6771                	lui	a4,0x1c
    8000507a:	973e                	add	a4,a4,a5
    8000507c:	6602                	ld	a2,0(sp)
    8000507e:	101c                	addi	a5,sp,32
    80005080:	97ba                	add	a5,a5,a4
    80005082:	86be                	mv	a3,a5
    80005084:	04000593          	li	a1,64
    80005088:	04000513          	li	a0,64
    8000508c:	e43e                	sd	a5,8(sp)
    8000508e:	fbbfc0ef          	jal	ra,80002048 <init_array>
    80005092:	00008517          	auipc	a0,0x8
    80005096:	6de50513          	addi	a0,a0,1758 # 8000d770 <_conv_stat+0x112>
    8000509a:	fd2fd0ef          	jal	ra,8000286c <printf>
    8000509e:	c00024f3          	rdcycle	s1
    800050a2:	77f1                	lui	a5,0xffffc
    800050a4:	6771                	lui	a4,0x1c
    800050a6:	973e                	add	a4,a4,a5
    800050a8:	101c                	addi	a5,sp,32
    800050aa:	97ba                	add	a5,a5,a4
    800050ac:	ec3e                	sd	a5,24(sp)
    800050ae:	86be                	mv	a3,a5
    800050b0:	65a2                	ld	a1,8(sp)
    800050b2:	6502                	ld	a0,0(sp)
    800050b4:	7651                	lui	a2,0xffff4
    800050b6:	67f1                	lui	a5,0x1c
    800050b8:	97b2                	add	a5,a5,a2
    800050ba:	1018                	addi	a4,sp,32
    800050bc:	00e78633          	add	a2,a5,a4
    800050c0:	816fd0ef          	jal	ra,800020d6 <cpu_kernel_deriche>
    800050c4:	c0002473          	rdcycle	s0
    800050c8:	00008517          	auipc	a0,0x8
    800050cc:	6c050513          	addi	a0,a0,1728 # 8000d788 <_conv_stat+0x12a>
    800050d0:	409405b3          	sub	a1,s0,s1
    800050d4:	f98fd0ef          	jal	ra,8000286c <printf>
    800050d8:	85a6                	mv	a1,s1
    800050da:	00008517          	auipc	a0,0x8
    800050de:	67650513          	addi	a0,a0,1654 # 8000d750 <_conv_stat+0xf2>
    800050e2:	f8afd0ef          	jal	ra,8000286c <printf>
    800050e6:	85a2                	mv	a1,s0
    800050e8:	00008517          	auipc	a0,0x8
    800050ec:	67850513          	addi	a0,a0,1656 # 8000d760 <_conv_stat+0x102>
    800050f0:	f7cfd0ef          	jal	ra,8000286c <printf>
    800050f4:	00008517          	auipc	a0,0x8
    800050f8:	6cc50513          	addi	a0,a0,1740 # 8000d7c0 <_conv_stat+0x162>
    800050fc:	f70fd0ef          	jal	ra,8000286c <printf>
    80005100:	00008517          	auipc	a0,0x8
    80005104:	6c850513          	addi	a0,a0,1736 # 8000d7c8 <_conv_stat+0x16a>
    80005108:	f64fd0ef          	jal	ra,8000286c <printf>
    8000510c:	00008597          	auipc	a1,0x8
    80005110:	6d458593          	addi	a1,a1,1748 # 8000d7e0 <_conv_stat+0x182>
    80005114:	00008517          	auipc	a0,0x8
    80005118:	6d450513          	addi	a0,a0,1748 # 8000d7e8 <_conv_stat+0x18a>
    8000511c:	f50fd0ef          	jal	ra,8000286c <printf>
    80005120:	6c42                	ld	s8,16(sp)
    80005122:	6be2                	ld	s7,24(sp)
    80005124:	4981                	li	s3,0
    80005126:	0000b797          	auipc	a5,0xb
    8000512a:	02e7a407          	flw	fs0,46(a5) # 80010154 <__global_locale+0x21c>
    8000512e:	00008b17          	auipc	s6,0x8
    80005132:	6cab0b13          	addi	s6,s6,1738 # 8000d7f8 <_conv_stat+0x19a>
    80005136:	00008a97          	auipc	s5,0x8
    8000513a:	6daa8a93          	addi	s5,s5,1754 # 8000d810 <_conv_stat+0x1b2>
    8000513e:	04000a13          	li	s4,64
    80005142:	00008d17          	auipc	s10,0x8
    80005146:	58ed0d13          	addi	s10,s10,1422 # 8000d6d0 <_conv_stat+0x72>
    8000514a:	6c85                	lui	s9,0x1
    8000514c:	895e                	mv	s2,s7
    8000514e:	84e2                	mv	s1,s8
    80005150:	4401                	li	s0,0
    80005152:	0004a787          	flw	fa5,0(s1)
    80005156:	00092707          	flw	fa4,0(s2)
    8000515a:	8622                	mv	a2,s0
    8000515c:	1087f7d3          	fmul.s	fa5,fa5,fs0
    80005160:	10877753          	fmul.s	fa4,fa4,fs0
    80005164:	85ce                	mv	a1,s3
    80005166:	855a                	mv	a0,s6
    80005168:	02048493          	addi	s1,s1,32
    8000516c:	c00796d3          	fcvt.w.s	a3,fa5,rtz
    80005170:	c0071753          	fcvt.w.s	a4,fa4,rtz
    80005174:	2421                	addiw	s0,s0,8
    80005176:	2681                	sext.w	a3,a3
    80005178:	2701                	sext.w	a4,a4
    8000517a:	ef2fd0ef          	jal	ra,8000286c <printf>
    8000517e:	00092603          	lw	a2,0(s2)
    80005182:	fe04a583          	lw	a1,-32(s1)
    80005186:	8556                	mv	a0,s5
    80005188:	02090913          	addi	s2,s2,32
    8000518c:	ee0fd0ef          	jal	ra,8000286c <printf>
    80005190:	fd4411e3          	bne	s0,s4,80005152 <main+0x1ce>
    80005194:	856a                	mv	a0,s10
    80005196:	29c1                	addiw	s3,s3,16
    80005198:	ed4fd0ef          	jal	ra,8000286c <printf>
    8000519c:	9c66                	add	s8,s8,s9
    8000519e:	9be6                	add	s7,s7,s9
    800051a0:	fa8996e3          	bne	s3,s0,8000514c <main+0x1c8>
    800051a4:	00008597          	auipc	a1,0x8
    800051a8:	63c58593          	addi	a1,a1,1596 # 8000d7e0 <_conv_stat+0x182>
    800051ac:	00008517          	auipc	a0,0x8
    800051b0:	66c50513          	addi	a0,a0,1644 # 8000d818 <_conv_stat+0x1ba>
    800051b4:	eb8fd0ef          	jal	ra,8000286c <printf>
    800051b8:	00008517          	auipc	a0,0x8
    800051bc:	67850513          	addi	a0,a0,1656 # 8000d830 <_conv_stat+0x1d2>
    800051c0:	eacfd0ef          	jal	ra,8000286c <printf>
    800051c4:	62f1                	lui	t0,0x1c
    800051c6:	9116                	add	sp,sp,t0
    800051c8:	60aa                	ld	ra,136(sp)
    800051ca:	640a                	ld	s0,128(sp)
    800051cc:	74e6                	ld	s1,120(sp)
    800051ce:	7946                	ld	s2,112(sp)
