
deriche_mini-baremetal:     file format elf64-littleriscv


Disassembly of section .text.init:

0000000080000000 <_start>:
    80000000:	4081                	li	ra,0
    80000002:	4101                	li	sp,0
    80000004:	4181                	li	gp,0
    80000006:	4201                	li	tp,0
    80000008:	4281                	li	t0,0
    8000000a:	4301                	li	t1,0
    8000000c:	4381                	li	t2,0
    8000000e:	4401                	li	s0,0
    80000010:	4481                	li	s1,0
    80000012:	4501                	li	a0,0
    80000014:	4581                	li	a1,0
    80000016:	4601                	li	a2,0
    80000018:	4681                	li	a3,0
    8000001a:	4701                	li	a4,0
    8000001c:	4781                	li	a5,0
    8000001e:	4801                	li	a6,0
    80000020:	4881                	li	a7,0
    80000022:	4901                	li	s2,0
    80000024:	4981                	li	s3,0
    80000026:	4a01                	li	s4,0
    80000028:	4a81                	li	s5,0
    8000002a:	4b01                	li	s6,0
    8000002c:	4b81                	li	s7,0
    8000002e:	4c01                	li	s8,0
    80000030:	4c81                	li	s9,0
    80000032:	4d01                	li	s10,0
    80000034:	4d81                	li	s11,0
    80000036:	4e01                	li	t3,0
    80000038:	4e81                	li	t4,0
    8000003a:	4f01                	li	t5,0
    8000003c:	4f81                	li	t6,0
    8000003e:	0001e2b7          	lui	t0,0x1e
    80000042:	0002e293          	ori	t0,t0,0
    80000046:	3002a073          	csrs	mstatus,t0
    8000004a:	4285                	li	t0,1
    8000004c:	02fe                	slli	t0,t0,0x1f
    8000004e:	0002da63          	bgez	t0,80000062 <_start+0x62>
    80000052:	0002c863          	bltz	t0,80000062 <_start+0x62>
    80000056:	4505                	li	a0,1
    80000058:	00002297          	auipc	t0,0x2
    8000005c:	faa2a423          	sw	a0,-88(t0) # 80002000 <tohost>
    80000060:	bfdd                	j	80000056 <_start+0x56>
    80000062:	00000297          	auipc	t0,0x0
    80000066:	09028293          	addi	t0,t0,144 # 800000f2 <_start+0xf2>
    8000006a:	30529073          	csrw	mtvec,t0
    8000006e:	00301073          	fscsr	zero
    80000072:	f0000053          	fmv.w.x	ft0,zero
    80000076:	f00000d3          	fmv.w.x	ft1,zero
    8000007a:	f0000153          	fmv.w.x	ft2,zero
    8000007e:	f00001d3          	fmv.w.x	ft3,zero
    80000082:	f0000253          	fmv.w.x	ft4,zero
    80000086:	f00002d3          	fmv.w.x	ft5,zero
    8000008a:	f0000353          	fmv.w.x	ft6,zero
    8000008e:	f00003d3          	fmv.w.x	ft7,zero
    80000092:	f0000453          	fmv.w.x	fs0,zero
    80000096:	f00004d3          	fmv.w.x	fs1,zero
    8000009a:	f0000553          	fmv.w.x	fa0,zero
    8000009e:	f00005d3          	fmv.w.x	fa1,zero
    800000a2:	f0000653          	fmv.w.x	fa2,zero
    800000a6:	f00006d3          	fmv.w.x	fa3,zero
    800000aa:	f0000753          	fmv.w.x	fa4,zero
    800000ae:	f00007d3          	fmv.w.x	fa5,zero
    800000b2:	f0000853          	fmv.w.x	fa6,zero
    800000b6:	f00008d3          	fmv.w.x	fa7,zero
    800000ba:	f0000953          	fmv.w.x	fs2,zero
    800000be:	f00009d3          	fmv.w.x	fs3,zero
    800000c2:	f0000a53          	fmv.w.x	fs4,zero
    800000c6:	f0000ad3          	fmv.w.x	fs5,zero
    800000ca:	f0000b53          	fmv.w.x	fs6,zero
    800000ce:	f0000bd3          	fmv.w.x	fs7,zero
    800000d2:	f0000c53          	fmv.w.x	fs8,zero
    800000d6:	f0000cd3          	fmv.w.x	fs9,zero
    800000da:	f0000d53          	fmv.w.x	fs10,zero
    800000de:	f0000dd3          	fmv.w.x	fs11,zero
    800000e2:	f0000e53          	fmv.w.x	ft8,zero
    800000e6:	f0000ed3          	fmv.w.x	ft9,zero
    800000ea:	f0000f53          	fmv.w.x	ft10,zero
    800000ee:	f0000fd3          	fmv.w.x	ft11,zero
    800000f2:	00000297          	auipc	t0,0x0
    800000f6:	03e28293          	addi	t0,t0,62 # 80000130 <trap_entry>
    800000fa:	30529073          	csrw	mtvec,t0
    800000fe:	00010197          	auipc	gp,0x10
    80000102:	7e218193          	addi	gp,gp,2018 # 800108e0 <__global_pointer$>
    80000106:	03011217          	auipc	tp,0x3011
    8000010a:	17920213          	addi	tp,tp,377 # 8301127f <_end+0x3f>
    8000010e:	fc027213          	andi	tp,tp,-64
    80000112:	f1402573          	csrr	a0,mhartid
    80000116:	4585                	li	a1,1
    80000118:	00b57063          	bgeu	a0,a1,80000118 <_start+0x118>
    8000011c:	01151613          	slli	a2,a0,0x11
    80000120:	9232                	add	tp,tp,a2
    80000122:	00150113          	addi	sp,a0,1
    80000126:	0146                	slli	sp,sp,0x11
    80000128:	9112                	add	sp,sp,tp
    8000012a:	0370206f          	j	80002960 <_init>
    8000012e:	0001                	nop

0000000080000130 <trap_entry>:
    80000130:	716d                	addi	sp,sp,-272
    80000132:	e406                	sd	ra,8(sp)
    80000134:	e80a                	sd	sp,16(sp)
    80000136:	ec0e                	sd	gp,24(sp)
    80000138:	f012                	sd	tp,32(sp)
    8000013a:	f416                	sd	t0,40(sp)
    8000013c:	f81a                	sd	t1,48(sp)
    8000013e:	fc1e                	sd	t2,56(sp)
    80000140:	e0a2                	sd	s0,64(sp)
    80000142:	e4a6                	sd	s1,72(sp)
    80000144:	e8aa                	sd	a0,80(sp)
    80000146:	ecae                	sd	a1,88(sp)
    80000148:	f0b2                	sd	a2,96(sp)
    8000014a:	f4b6                	sd	a3,104(sp)
    8000014c:	f8ba                	sd	a4,112(sp)
    8000014e:	fcbe                	sd	a5,120(sp)
    80000150:	e142                	sd	a6,128(sp)
    80000152:	e546                	sd	a7,136(sp)
    80000154:	e94a                	sd	s2,144(sp)
    80000156:	ed4e                	sd	s3,152(sp)
    80000158:	f152                	sd	s4,160(sp)
    8000015a:	f556                	sd	s5,168(sp)
    8000015c:	f95a                	sd	s6,176(sp)
    8000015e:	fd5e                	sd	s7,184(sp)
    80000160:	e1e2                	sd	s8,192(sp)
    80000162:	e5e6                	sd	s9,200(sp)
    80000164:	e9ea                	sd	s10,208(sp)
    80000166:	edee                	sd	s11,216(sp)
    80000168:	f1f2                	sd	t3,224(sp)
    8000016a:	f5f6                	sd	t4,232(sp)
    8000016c:	f9fa                	sd	t5,240(sp)
    8000016e:	fdfe                	sd	t6,248(sp)
    80000170:	34202573          	csrr	a0,mcause
    80000174:	341025f3          	csrr	a1,mepc
    80000178:	860a                	mv	a2,sp
    8000017a:	62e020ef          	jal	ra,800027a8 <handle_trap>
    8000017e:	34151073          	csrw	mepc,a0
    80000182:	6289                	lui	t0,0x2
    80000184:	8002829b          	addiw	t0,t0,-2048 # 1800 <_tbss_end+0x17bc>
    80000188:	3002a073          	csrs	mstatus,t0
    8000018c:	60a2                	ld	ra,8(sp)
    8000018e:	6142                	ld	sp,16(sp)
    80000190:	61e2                	ld	gp,24(sp)
    80000192:	7202                	ld	tp,32(sp)
    80000194:	72a2                	ld	t0,40(sp)
    80000196:	7342                	ld	t1,48(sp)
    80000198:	73e2                	ld	t2,56(sp)
    8000019a:	6406                	ld	s0,64(sp)
    8000019c:	64a6                	ld	s1,72(sp)
    8000019e:	6546                	ld	a0,80(sp)
    800001a0:	65e6                	ld	a1,88(sp)
    800001a2:	7606                	ld	a2,96(sp)
    800001a4:	76a6                	ld	a3,104(sp)
    800001a6:	7746                	ld	a4,112(sp)
    800001a8:	77e6                	ld	a5,120(sp)
    800001aa:	680a                	ld	a6,128(sp)
    800001ac:	68aa                	ld	a7,136(sp)
    800001ae:	694a                	ld	s2,144(sp)
    800001b0:	69ea                	ld	s3,152(sp)
    800001b2:	7a0a                	ld	s4,160(sp)
    800001b4:	7aaa                	ld	s5,168(sp)
    800001b6:	7b4a                	ld	s6,176(sp)
    800001b8:	7bea                	ld	s7,184(sp)
    800001ba:	6c0e                	ld	s8,192(sp)
    800001bc:	6cae                	ld	s9,200(sp)
    800001be:	6d4e                	ld	s10,208(sp)
    800001c0:	6dee                	ld	s11,216(sp)
    800001c2:	7e0e                	ld	t3,224(sp)
    800001c4:	7eae                	ld	t4,232(sp)
    800001c6:	7f4e                	ld	t5,240(sp)
    800001c8:	7fee                	ld	t6,248(sp)
    800001ca:	6151                	addi	sp,sp,272
    800001cc:	30200073          	mret

Disassembly of section .text:

0000000080002048 <init_array>:
    80002048:	1141                	addi	sp,sp,-16
    8000204a:	e022                	sd	s0,0(sp)
    8000204c:	8532                	mv	a0,a2
    8000204e:	8432                	mv	s0,a2
    80002050:	78c5                	lui	a7,0xffff1
    80002052:	663d                	lui	a2,0xf
    80002054:	65c1                	lui	a1,0x10
    80002056:	6851                	lui	a6,0x14
    80002058:	e406                	sd	ra,8(sp)
    8000205a:	7c060613          	addi	a2,a2,1984 # f7c0 <_tbss_end+0xf77c>
    8000205e:	0000e797          	auipc	a5,0xe
    80002062:	0f27a707          	flw	fa4,242(a5) # 80010150 <__global_locale+0x218>
    80002066:	8408889b          	addiw	a7,a7,-1984 # ffffffffffff0840 <_end+0xffffffff7cfdf600>
    8000206a:	15fd                	addi	a1,a1,-1 # ffff <_tbss_end+0xffbb>
    8000206c:	60080813          	addi	a6,a6,1536 # 14600 <_tbss_end+0x145bc>
    80002070:	00c887bb          	addw	a5,a7,a2
    80002074:	872a                	mv	a4,a0
    80002076:	00b7f6b3          	and	a3,a5,a1
    8000207a:	d006f7d3          	fcvt.s.w	fa5,a3
    8000207e:	0711                	addi	a4,a4,4
    80002080:	3df7879b          	addiw	a5,a5,991
    80002084:	10e7f7d3          	fmul.s	fa5,fa5,fa4
    80002088:	fef72e27          	fsw	fa5,-4(a4)
    8000208c:	fec795e3          	bne	a5,a2,80002076 <init_array+0x2e>
    80002090:	1397861b          	addiw	a2,a5,313
    80002094:	10050513          	addi	a0,a0,256
    80002098:	fd061ce3          	bne	a2,a6,80002070 <init_array+0x28>
    8000209c:	400c                	lw	a1,0(s0)
    8000209e:	0000b517          	auipc	a0,0xb
    800020a2:	61250513          	addi	a0,a0,1554 # 8000d6b0 <_conv_stat+0x52>
    800020a6:	7c6000ef          	jal	ra,8000286c <printf>
    800020aa:	404c                	lw	a1,4(s0)
    800020ac:	0000b517          	auipc	a0,0xb
    800020b0:	60450513          	addi	a0,a0,1540 # 8000d6b0 <_conv_stat+0x52>
    800020b4:	7b8000ef          	jal	ra,8000286c <printf>
    800020b8:	440c                	lw	a1,8(s0)
    800020ba:	0000b517          	auipc	a0,0xb
    800020be:	5f650513          	addi	a0,a0,1526 # 8000d6b0 <_conv_stat+0x52>
    800020c2:	7aa000ef          	jal	ra,8000286c <printf>
    800020c6:	6402                	ld	s0,0(sp)
    800020c8:	60a2                	ld	ra,8(sp)
    800020ca:	0000b517          	auipc	a0,0xb
    800020ce:	60650513          	addi	a0,a0,1542 # 8000d6d0 <_conv_stat+0x72>
    800020d2:	0141                	addi	sp,sp,16
    800020d4:	af61                	j	8000286c <printf>

00000000800020d6 <cpu_kernel_deriche>:
    800020d6:	6811                	lui	a6,0x4
    800020d8:	85aa                	mv	a1,a0
    800020da:	10080813          	addi	a6,a6,256 # 4100 <_tbss_end+0x40bc>
    800020de:	8536                	mv	a0,a3
    800020e0:	982e                	add	a6,a6,a1
    800020e2:	10058693          	addi	a3,a1,256
    800020e6:	0000e797          	auipc	a5,0xe
    800020ea:	0727a507          	flw	fa0,114(a5) # 80010158 <__global_locale+0x220>
    800020ee:	0000e797          	auipc	a5,0xe
    800020f2:	06e7a107          	flw	ft2,110(a5) # 8001015c <__global_locale+0x224>
    800020f6:	0000e797          	auipc	a5,0xe
    800020fa:	06a7a087          	flw	ft1,106(a5) # 80010160 <__global_locale+0x228>
    800020fe:	0000e797          	auipc	a5,0xe
    80002102:	0667a007          	flw	ft0,102(a5) # 80010164 <__global_locale+0x22c>
    80002106:	f0000653          	fmv.w.x	fa2,zero
    8000210a:	f0068793          	addi	a5,a3,-256
    8000210e:	8732                	mv	a4,a2
    80002110:	20c606d3          	fmv.s	fa3,fa2
    80002114:	20c607d3          	fmv.s	fa5,fa2
    80002118:	10a6f5d3          	fmul.s	fa1,fa3,fa0
    8000211c:	0007a707          	flw	fa4,0(a5)
    80002120:	0711                	addi	a4,a4,4
    80002122:	0791                	addi	a5,a5,4
    80002124:	58277743          	fmadd.s	fa4,fa4,ft2,fa1
    80002128:	7017f7c3          	fmadd.s	fa5,fa5,ft1,fa4
    8000212c:	780677c3          	fmadd.s	fa5,fa2,ft0,fa5
    80002130:	20d68653          	fmv.s	fa2,fa3
    80002134:	fef72e27          	fsw	fa5,-4(a4)
    80002138:	20f786d3          	fmv.s	fa3,fa5
    8000213c:	ffc7a787          	flw	fa5,-4(a5)
    80002140:	fcd79ce3          	bne	a5,a3,80002118 <cpu_kernel_deriche+0x42>
    80002144:	10078693          	addi	a3,a5,256
    80002148:	10060613          	addi	a2,a2,256
    8000214c:	fb069de3          	bne	a3,a6,80002106 <cpu_kernel_deriche+0x30>
    80002150:	6791                	lui	a5,0x4
    80002152:	17f1                	addi	a5,a5,-4 # 3ffc <_tbss_end+0x3fb8>
    80002154:	ffc50613          	addi	a2,a0,-4
    80002158:	0fc58593          	addi	a1,a1,252
    8000215c:	953e                	add	a0,a0,a5
    8000215e:	0000e797          	auipc	a5,0xe
    80002162:	00a7a107          	flw	ft2,10(a5) # 80010168 <__global_locale+0x230>
    80002166:	0000e797          	auipc	a5,0xe
    8000216a:	0067a087          	flw	ft1,6(a5) # 8001016c <__global_locale+0x234>
    8000216e:	f00005d3          	fmv.w.x	fa1,zero
    80002172:	86b2                	mv	a3,a2
    80002174:	10060613          	addi	a2,a2,256
    80002178:	20b586d3          	fmv.s	fa3,fa1
    8000217c:	20b58653          	fmv.s	fa2,fa1
    80002180:	20b58753          	fmv.s	fa4,fa1
    80002184:	872e                	mv	a4,a1
    80002186:	87b2                	mv	a5,a2
    80002188:	10a6f7d3          	fmul.s	fa5,fa3,fa0
    8000218c:	17f1                	addi	a5,a5,-4
    8000218e:	1771                	addi	a4,a4,-4
    80002190:	782777c3          	fmadd.s	fa5,fa4,ft2,fa5
    80002194:	781677c3          	fmadd.s	fa5,fa2,ft1,fa5
    80002198:	20e70653          	fmv.s	fa2,fa4
    8000219c:	7805f7c3          	fmadd.s	fa5,fa1,ft0,fa5
    800021a0:	20d685d3          	fmv.s	fa1,fa3
    800021a4:	00f7a227          	fsw	fa5,4(a5)
    800021a8:	20f786d3          	fmv.s	fa3,fa5
    800021ac:	00472707          	flw	fa4,4(a4)
    800021b0:	fcd79ce3          	bne	a5,a3,80002188 <cpu_kernel_deriche+0xb2>
    800021b4:	10058593          	addi	a1,a1,256
    800021b8:	fac51be3          	bne	a0,a2,8000216e <cpu_kernel_deriche+0x98>
    800021bc:	8082                	ret

00000000800021be <kernel_deriche>:
    800021be:	c3010113          	addi	sp,sp,-976
    800021c2:	3c813423          	sd	s0,968(sp)
    800021c6:	3c913023          	sd	s1,960(sp)
    800021ca:	3b213c23          	sd	s2,952(sp)
    800021ce:	3b313823          	sd	s3,944(sp)
    800021d2:	3b413423          	sd	s4,936(sp)
    800021d6:	3b513023          	sd	s5,928(sp)
    800021da:	39613c23          	sd	s6,920(sp)
    800021de:	39713823          	sd	s7,912(sp)
    800021e2:	39813423          	sd	s8,904(sp)
    800021e6:	8b818413          	addi	s0,gp,-1864 # 80010198 <_task_id>
    800021ea:	00044883          	lbu	a7,0(s0)
    800021ee:	00400fb7          	lui	t6,0x400
    800021f2:	00200f37          	lui	t5,0x200
    800021f6:	00100eb7          	lui	t4,0x100
    800021fa:	4285                	li	t0,1
    800021fc:	64bd                	lui	s1,0xf
    800021fe:	0fb5                	addi	t6,t6,13 # 40000d <_tbss_end+0x3fffc9>
    80002200:	0f1d                	addi	t5,t5,7 # 200007 <_tbss_end+0x1fffc3>
    80002202:	0e85                	addi	t4,t4,1 # 100001 <_tbss_end+0xfffbd>
    80002204:	02629a93          	slli	s5,t0,0x26
    80002208:	8932                	mv	s2,a2
    8000220a:	8346                	mv	t1,a7
    8000220c:	4e01                	li	t3,0
    8000220e:	0000ec17          	auipc	s8,0xe
    80002212:	ed2c3c03          	ld	s8,-302(s8) # 800100e0 <__global_locale+0x1a8>
    80002216:	0000c997          	auipc	s3,0xc
    8000221a:	9c298993          	addi	s3,s3,-1598 # 8000dbd8 <_conv_stat+0x57a>
    8000221e:	0000eb97          	auipc	s7,0xe
    80002222:	ecabbb83          	ld	s7,-310(s7) # 800100e8 <__global_locale+0x1b0>
    80002226:	0000eb17          	auipc	s6,0xe
    8000222a:	ecab3b03          	ld	s6,-310(s6) # 800100f0 <__global_locale+0x1b8>
    8000222e:	12f6                	slli	t0,t0,0x3d
    80002230:	04048493          	addi	s1,s1,64 # f040 <_tbss_end+0xeffc>
    80002234:	0fb6                	slli	t6,t6,0xd
    80002236:	0f3a                	slli	t5,t5,0xe
    80002238:	0ebe                	slli	t4,t4,0xf
    8000223a:	6a09                	lui	s4,0x2
    8000223c:	03831813          	slli	a6,t1,0x38
    80002240:	01c505b3          	add	a1,a0,t3
    80002244:	01886633          	or	a2,a6,s8
    80002248:	02c5b00b          	.word	0x02c5b00b
    8000224c:	0000c797          	auipc	a5,0xc
    80002250:	80c78793          	addi	a5,a5,-2036 # 8000da58 <_conv_stat+0x3fa>
    80002254:	1038                	addi	a4,sp,40
    80002256:	0007b383          	ld	t2,0(a5)
    8000225a:	6790                	ld	a2,8(a5)
    8000225c:	02078793          	addi	a5,a5,32
    80002260:	00773023          	sd	t2,0(a4)
    80002264:	e710                	sd	a2,8(a4)
    80002266:	ff07b603          	ld	a2,-16(a5)
    8000226a:	ff87b383          	ld	t2,-8(a5)
    8000226e:	02070713          	addi	a4,a4,32
    80002272:	fec73823          	sd	a2,-16(a4)
    80002276:	fe773c23          	sd	t2,-8(a4)
    8000227a:	fd379ee3          	bne	a5,s3,80002256 <kernel_deriche+0x98>
    8000227e:	102c                	addi	a1,sp,40
    80002280:	01786633          	or	a2,a6,s7
    80002284:	02c5b00b          	.word	0x02c5b00b
    80002288:	4581                	li	a1,0
    8000228a:	01586633          	or	a2,a6,s5
    8000228e:	06c5b00b          	.word	0x06c5b00b
    80002292:	85a6                	mv	a1,s1
    80002294:	00586633          	or	a2,a6,t0
    80002298:	08c5b00b          	.word	0x08c5b00b
    8000229c:	100c                	addi	a1,sp,32
    8000229e:	01f86633          	or	a2,a6,t6
    800022a2:	04c5b00b          	.word	0x04c5b00b
    800022a6:	086c                	addi	a1,sp,28
    800022a8:	01e86633          	or	a2,a6,t5
    800022ac:	04c5b00b          	.word	0x04c5b00b
    800022b0:	104c                	addi	a1,sp,36
    800022b2:	01d86633          	or	a2,a6,t4
    800022b6:	04c5b00b          	.word	0x04c5b00b
    800022ba:	01c905b3          	add	a1,s2,t3
    800022be:	01686633          	or	a2,a6,s6
    800022c2:	04c5b00b          	.word	0x04c5b00b
    800022c6:	2305                	addiw	t1,t1,1
    800022c8:	0ff37313          	zext.b	t1,t1
    800022cc:	014e0463          	beq	t3,s4,800022d4 <kernel_deriche+0x116>
    800022d0:	6e09                	lui	t3,0x2
    800022d2:	b7ad                	j	8000223c <kernel_deriche+0x7e>
    800022d4:	004003b7          	lui	t2,0x400
    800022d8:	002002b7          	lui	t0,0x200
    800022dc:	00100fb7          	lui	t6,0x100
    800022e0:	00080f37          	lui	t5,0x80
    800022e4:	2889                	addiw	a7,a7,2
    800022e6:	200019b7          	lui	s3,0x20001
    800022ea:	02700913          	li	s2,39
    800022ee:	4485                	li	s1,1
    800022f0:	0385                	addi	t2,t2,1 # 400001 <_tbss_end+0x3fffbd>
    800022f2:	0285                	addi	t0,t0,1 # 200001 <_tbss_end+0x1fffbd>
    800022f4:	0f85                	addi	t6,t6,1 # 100001 <_tbss_end+0xfffbd>
    800022f6:	0f05                	addi	t5,t5,1 # 80001 <_tbss_end+0x7ffbd>
    800022f8:	0ff8f893          	zext.b	a7,a7
    800022fc:	4e81                	li	t4,0
    800022fe:	0000ca17          	auipc	s4,0xc
    80002302:	a9aa0a13          	addi	s4,s4,-1382 # 8000dd98 <_conv_stat+0x73a>
    80002306:	0000eb97          	auipc	s7,0xe
    8000230a:	df2bbb83          	ld	s7,-526(s7) # 800100f8 <__global_locale+0x1c0>
    8000230e:	0000eb17          	auipc	s6,0xe
    80002312:	df2b3b03          	ld	s6,-526(s6) # 80010100 <__global_locale+0x1c8>
    80002316:	1986                	slli	s3,s3,0x21
    80002318:	1906                	slli	s2,s2,0x21
    8000231a:	14f6                	slli	s1,s1,0x3d
    8000231c:	03b6                	slli	t2,t2,0xd
    8000231e:	02ba                	slli	t0,t0,0xe
    80002320:	0fbe                	slli	t6,t6,0xf
    80002322:	0f42                	slli	t5,t5,0x10
    80002324:	6a89                	lui	s5,0x2
    80002326:	03889813          	slli	a6,a7,0x38
    8000232a:	01d505b3          	add	a1,a0,t4
    8000232e:	01386633          	or	a2,a6,s3
    80002332:	02c5b00b          	.word	0x02c5b00b
    80002336:	0000c797          	auipc	a5,0xc
    8000233a:	8a278793          	addi	a5,a5,-1886 # 8000dbd8 <_conv_stat+0x57a>
    8000233e:	1338                	addi	a4,sp,424
    80002340:	6390                	ld	a2,0(a5)
    80002342:	0087b303          	ld	t1,8(a5)
    80002346:	6b8c                	ld	a1,16(a5)
    80002348:	e310                	sd	a2,0(a4)
    8000234a:	6f90                	ld	a2,24(a5)
    8000234c:	00673423          	sd	t1,8(a4)
    80002350:	eb0c                	sd	a1,16(a4)
    80002352:	ef10                	sd	a2,24(a4)
    80002354:	02078793          	addi	a5,a5,32
    80002358:	02070713          	addi	a4,a4,32
    8000235c:	ff4792e3          	bne	a5,s4,80002340 <kernel_deriche+0x182>
    80002360:	638c                	ld	a1,0(a5)
    80002362:	6790                	ld	a2,8(a5)
    80002364:	4b9c                	lw	a5,16(a5)
    80002366:	e30c                	sd	a1,0(a4)
    80002368:	e710                	sd	a2,8(a4)
    8000236a:	cb1c                	sw	a5,16(a4)
    8000236c:	132c                	addi	a1,sp,424
    8000236e:	01786633          	or	a2,a6,s7
    80002372:	02c5b00b          	.word	0x02c5b00b
    80002376:	4581                	li	a1,0
    80002378:	01286633          	or	a2,a6,s2
    8000237c:	06c5b00b          	.word	0x06c5b00b
    80002380:	21f00593          	li	a1,543
    80002384:	00986633          	or	a2,a6,s1
    80002388:	08c5b00b          	.word	0x08c5b00b
    8000238c:	080c                	addi	a1,sp,16
    8000238e:	00786633          	or	a2,a6,t2
    80002392:	04c5b00b          	.word	0x04c5b00b
    80002396:	006c                	addi	a1,sp,12
    80002398:	00586633          	or	a2,a6,t0
    8000239c:	04c5b00b          	.word	0x04c5b00b
    800023a0:	084c                	addi	a1,sp,20
    800023a2:	01f86633          	or	a2,a6,t6
    800023a6:	04c5b00b          	.word	0x04c5b00b
    800023aa:	01d685b3          	add	a1,a3,t4
    800023ae:	01686633          	or	a2,a6,s6
    800023b2:	04c5b00b          	.word	0x04c5b00b
    800023b6:	082c                	addi	a1,sp,24
    800023b8:	01e86633          	or	a2,a6,t5
    800023bc:	04c5b00b          	.word	0x04c5b00b
    800023c0:	2885                	addiw	a7,a7,1
    800023c2:	0ff8f893          	zext.b	a7,a7
    800023c6:	01140023          	sb	a7,0(s0)
    800023ca:	015e8463          	beq	t4,s5,800023d2 <kernel_deriche+0x214>
    800023ce:	8ef2                	mv	t4,t3
    800023d0:	bf99                	j	80002326 <kernel_deriche+0x168>
    800023d2:	3c813403          	ld	s0,968(sp)
    800023d6:	3c013483          	ld	s1,960(sp)
    800023da:	3b813903          	ld	s2,952(sp)
    800023de:	3b013983          	ld	s3,944(sp)
    800023e2:	3a813a03          	ld	s4,936(sp)
    800023e6:	3a013a83          	ld	s5,928(sp)
    800023ea:	39813b03          	ld	s6,920(sp)
    800023ee:	39013b83          	ld	s7,912(sp)
    800023f2:	38813c03          	ld	s8,904(sp)
    800023f6:	3d010113          	addi	sp,sp,976
    800023fa:	8082                	ret

00000000800023fc <vprintfmt>:
    800023fc:	7149                	addi	sp,sp,-368
    800023fe:	f2a2                	sd	s0,352(sp)
    80002400:	eea6                	sd	s1,344(sp)
    80002402:	eaca                	sd	s2,336(sp)
    80002404:	e2d2                	sd	s4,320(sp)
    80002406:	fe56                	sd	s5,312(sp)
    80002408:	fa5a                	sd	s6,304(sp)
    8000240a:	f65e                	sd	s7,296(sp)
    8000240c:	f686                	sd	ra,360(sp)
    8000240e:	e6ce                	sd	s3,328(sp)
    80002410:	f262                	sd	s8,288(sp)
    80002412:	ee66                	sd	s9,280(sp)
    80002414:	ea6a                	sd	s10,272(sp)
    80002416:	e66e                	sd	s11,264(sp)
    80002418:	892a                	mv	s2,a0
    8000241a:	84ae                	mv	s1,a1
    8000241c:	8432                	mv	s0,a2
    8000241e:	8ab6                	mv	s5,a3
    80002420:	02500a13          	li	s4,37
    80002424:	05500b93          	li	s7,85
    80002428:	0000cb17          	auipc	s6,0xc
    8000242c:	984b0b13          	addi	s6,s6,-1660 # 8000ddac <_conv_stat+0x74e>
    80002430:	a029                	j	8000243a <vprintfmt+0x3e>
    80002432:	cd1d                	beqz	a0,80002470 <vprintfmt+0x74>
    80002434:	85a6                	mv	a1,s1
    80002436:	0405                	addi	s0,s0,1
    80002438:	9902                	jalr	s2
    8000243a:	00044503          	lbu	a0,0(s0)
    8000243e:	ff451ae3          	bne	a0,s4,80002432 <vprintfmt+0x36>
    80002442:	00144683          	lbu	a3,1(s0)
    80002446:	00140993          	addi	s3,s0,1
    8000244a:	874e                	mv	a4,s3
    8000244c:	02000c93          	li	s9,32
    80002450:	5c7d                	li	s8,-1
    80002452:	5dfd                	li	s11,-1
    80002454:	4601                	li	a2,0
    80002456:	fdd6879b          	addiw	a5,a3,-35
    8000245a:	0ff7f793          	zext.b	a5,a5
    8000245e:	00170413          	addi	s0,a4,1
    80002462:	04fbe263          	bltu	s7,a5,800024a6 <vprintfmt+0xaa>
    80002466:	078a                	slli	a5,a5,0x2
    80002468:	97da                	add	a5,a5,s6
    8000246a:	439c                	lw	a5,0(a5)
    8000246c:	97da                	add	a5,a5,s6
    8000246e:	8782                	jr	a5
    80002470:	70b6                	ld	ra,360(sp)
    80002472:	7416                	ld	s0,352(sp)
    80002474:	64f6                	ld	s1,344(sp)
    80002476:	6956                	ld	s2,336(sp)
    80002478:	69b6                	ld	s3,328(sp)
    8000247a:	6a16                	ld	s4,320(sp)
    8000247c:	7af2                	ld	s5,312(sp)
    8000247e:	7b52                	ld	s6,304(sp)
    80002480:	7bb2                	ld	s7,296(sp)
    80002482:	7c12                	ld	s8,288(sp)
    80002484:	6cf2                	ld	s9,280(sp)
    80002486:	6d52                	ld	s10,272(sp)
    80002488:	6db2                	ld	s11,264(sp)
    8000248a:	6175                	addi	sp,sp,368
    8000248c:	8082                	ret
    8000248e:	8cb6                	mv	s9,a3
    80002490:	00174683          	lbu	a3,1(a4)
    80002494:	8722                	mv	a4,s0
    80002496:	00170413          	addi	s0,a4,1
    8000249a:	fdd6879b          	addiw	a5,a3,-35
    8000249e:	0ff7f793          	zext.b	a5,a5
    800024a2:	fcfbf2e3          	bgeu	s7,a5,80002466 <vprintfmt+0x6a>
    800024a6:	85a6                	mv	a1,s1
    800024a8:	02500513          	li	a0,37
    800024ac:	9902                	jalr	s2
    800024ae:	844e                	mv	s0,s3
    800024b0:	b769                	j	8000243a <vprintfmt+0x3e>
    800024b2:	fd068c1b          	addiw	s8,a3,-48
    800024b6:	00174683          	lbu	a3,1(a4)
    800024ba:	47a5                	li	a5,9
    800024bc:	fd06871b          	addiw	a4,a3,-48
    800024c0:	0006859b          	sext.w	a1,a3
    800024c4:	20e7e863          	bltu	a5,a4,800026d4 <vprintfmt+0x2d8>
    800024c8:	8722                	mv	a4,s0
    800024ca:	4825                	li	a6,9
    800024cc:	00174683          	lbu	a3,1(a4)
    800024d0:	002c179b          	slliw	a5,s8,0x2
    800024d4:	018787bb          	addw	a5,a5,s8
    800024d8:	0017979b          	slliw	a5,a5,0x1
    800024dc:	9fad                	addw	a5,a5,a1
    800024de:	fd06851b          	addiw	a0,a3,-48
    800024e2:	0705                	addi	a4,a4,1
    800024e4:	fd078c1b          	addiw	s8,a5,-48
    800024e8:	0006859b          	sext.w	a1,a3
    800024ec:	fea870e3          	bgeu	a6,a0,800024cc <vprintfmt+0xd0>
    800024f0:	f60dd3e3          	bgez	s11,80002456 <vprintfmt+0x5a>
    800024f4:	8de2                	mv	s11,s8
    800024f6:	5c7d                	li	s8,-1
    800024f8:	bfb9                	j	80002456 <vprintfmt+0x5a>
    800024fa:	00174683          	lbu	a3,1(a4)
    800024fe:	8722                	mv	a4,s0
    80002500:	bf99                	j	80002456 <vprintfmt+0x5a>
    80002502:	85a6                	mv	a1,s1
    80002504:	02500513          	li	a0,37
    80002508:	9902                	jalr	s2
    8000250a:	bf05                	j	8000243a <vprintfmt+0x3e>
    8000250c:	000aac03          	lw	s8,0(s5) # 2000 <_tbss_end+0x1fbc>
    80002510:	00174683          	lbu	a3,1(a4)
    80002514:	0aa1                	addi	s5,s5,8
    80002516:	8722                	mv	a4,s0
    80002518:	bfe1                	j	800024f0 <vprintfmt+0xf4>
    8000251a:	03000513          	li	a0,48
    8000251e:	85a6                	mv	a1,s1
    80002520:	9902                	jalr	s2
    80002522:	85a6                	mv	a1,s1
    80002524:	07800513          	li	a0,120
    80002528:	9902                	jalr	s2
    8000252a:	46c1                	li	a3,16
    8000252c:	008a8713          	addi	a4,s5,8
    80002530:	000ab783          	ld	a5,0(s5)
    80002534:	8aba                	mv	s5,a4
    80002536:	02d7f5b3          	remu	a1,a5,a3
    8000253a:	000c899b          	sext.w	s3,s9
    8000253e:	0050                	addi	a2,sp,4
    80002540:	4705                	li	a4,1
    80002542:	c02e                	sw	a1,0(sp)
    80002544:	16d7e663          	bltu	a5,a3,800026b0 <vprintfmt+0x2b4>
    80002548:	02d7d7b3          	divu	a5,a5,a3
    8000254c:	0611                	addi	a2,a2,4
    8000254e:	8c3a                	mv	s8,a4
    80002550:	2705                	addiw	a4,a4,1
    80002552:	02d7f5b3          	remu	a1,a5,a3
    80002556:	feb62e23          	sw	a1,-4(a2)
    8000255a:	fed7f7e3          	bgeu	a5,a3,80002548 <vprintfmt+0x14c>
    8000255e:	fffd8c9b          	addiw	s9,s11,-1
    80002562:	fff70d1b          	addiw	s10,a4,-1
    80002566:	01b75863          	bge	a4,s11,80002576 <vprintfmt+0x17a>
    8000256a:	3cfd                	addiw	s9,s9,-1
    8000256c:	85a6                	mv	a1,s1
    8000256e:	854e                	mv	a0,s3
    80002570:	9902                	jalr	s2
    80002572:	ffac9ce3          	bne	s9,s10,8000256a <vprintfmt+0x16e>
    80002576:	0c0a                	slli	s8,s8,0x2
    80002578:	018109b3          	add	s3,sp,s8
    8000257c:	ffc10c93          	addi	s9,sp,-4
    80002580:	4c25                	li	s8,9
    80002582:	0009a783          	lw	a5,0(s3) # 20001000 <__malloc_len+0x1d001000>
    80002586:	05700513          	li	a0,87
    8000258a:	00fc6463          	bltu	s8,a5,80002592 <vprintfmt+0x196>
    8000258e:	03000513          	li	a0,48
    80002592:	19f1                	addi	s3,s3,-4
    80002594:	85a6                	mv	a1,s1
    80002596:	9d3d                	addw	a0,a0,a5
    80002598:	9902                	jalr	s2
    8000259a:	ff3c94e3          	bne	s9,s3,80002582 <vprintfmt+0x186>
    8000259e:	bd71                	j	8000243a <vprintfmt+0x3e>
    800025a0:	4785                	li	a5,1
    800025a2:	008a8c13          	addi	s8,s5,8
    800025a6:	00c7c463          	blt	a5,a2,800025ae <vprintfmt+0x1b2>
    800025aa:	10060563          	beqz	a2,800026b4 <vprintfmt+0x2b8>
    800025ae:	000ab983          	ld	s3,0(s5)
    800025b2:	1009c863          	bltz	s3,800026c2 <vprintfmt+0x2c6>
    800025b6:	87ce                	mv	a5,s3
    800025b8:	8ae2                	mv	s5,s8
    800025ba:	46a9                	li	a3,10
    800025bc:	bfad                	j	80002536 <vprintfmt+0x13a>
    800025be:	00174683          	lbu	a3,1(a4)
    800025c2:	2605                	addiw	a2,a2,1
    800025c4:	8722                	mv	a4,s0
    800025c6:	bd41                	j	80002456 <vprintfmt+0x5a>
    800025c8:	46c1                	li	a3,16
    800025ca:	4785                	li	a5,1
    800025cc:	008a8713          	addi	a4,s5,8
    800025d0:	f6c7c0e3          	blt	a5,a2,80002530 <vprintfmt+0x134>
    800025d4:	fe31                	bnez	a2,80002530 <vprintfmt+0x134>
    800025d6:	000ae783          	lwu	a5,0(s5)
    800025da:	8aba                	mv	s5,a4
    800025dc:	bfa9                	j	80002536 <vprintfmt+0x13a>
    800025de:	000abd03          	ld	s10,0(s5)
    800025e2:	0aa1                	addi	s5,s5,8
    800025e4:	040d0263          	beqz	s10,80002628 <vprintfmt+0x22c>
    800025e8:	09b05d63          	blez	s11,80002682 <vprintfmt+0x286>
    800025ec:	02d00793          	li	a5,45
    800025f0:	04fc9e63          	bne	s9,a5,8000264c <vprintfmt+0x250>
    800025f4:	000d4503          	lbu	a0,0(s10)
    800025f8:	c105                	beqz	a0,80002618 <vprintfmt+0x21c>
    800025fa:	59fd                	li	s3,-1
    800025fc:	000c4563          	bltz	s8,80002606 <vprintfmt+0x20a>
    80002600:	3c7d                	addiw	s8,s8,-1
    80002602:	013c0963          	beq	s8,s3,80002614 <vprintfmt+0x218>
    80002606:	85a6                	mv	a1,s1
    80002608:	0d05                	addi	s10,s10,1
    8000260a:	9902                	jalr	s2
    8000260c:	000d4503          	lbu	a0,0(s10)
    80002610:	3dfd                	addiw	s11,s11,-1
    80002612:	f56d                	bnez	a0,800025fc <vprintfmt+0x200>
    80002614:	e3b053e3          	blez	s11,8000243a <vprintfmt+0x3e>
    80002618:	3dfd                	addiw	s11,s11,-1
    8000261a:	85a6                	mv	a1,s1
    8000261c:	02000513          	li	a0,32
    80002620:	9902                	jalr	s2
    80002622:	fe0d9be3          	bnez	s11,80002618 <vprintfmt+0x21c>
    80002626:	bd11                	j	8000243a <vprintfmt+0x3e>
    80002628:	0000bd17          	auipc	s10,0xb
    8000262c:	220d0d13          	addi	s10,s10,544 # 8000d848 <_conv_stat+0x1ea>
    80002630:	02800513          	li	a0,40
    80002634:	fdb053e3          	blez	s11,800025fa <vprintfmt+0x1fe>
    80002638:	02d00793          	li	a5,45
    8000263c:	0000bd17          	auipc	s10,0xb
    80002640:	20cd0d13          	addi	s10,s10,524 # 8000d848 <_conv_stat+0x1ea>
    80002644:	02800513          	li	a0,40
    80002648:	fafc89e3          	beq	s9,a5,800025fa <vprintfmt+0x1fe>
    8000264c:	000d861b          	sext.w	a2,s11
    80002650:	87ea                	mv	a5,s10
    80002652:	018d06b3          	add	a3,s10,s8
    80002656:	000c1663          	bnez	s8,80002662 <vprintfmt+0x266>
    8000265a:	a829                	j	80002674 <vprintfmt+0x278>
    8000265c:	0785                	addi	a5,a5,1
    8000265e:	00d78563          	beq	a5,a3,80002668 <vprintfmt+0x26c>
    80002662:	0007c703          	lbu	a4,0(a5)
    80002666:	fb7d                	bnez	a4,8000265c <vprintfmt+0x260>
    80002668:	41a787b3          	sub	a5,a5,s10
    8000266c:	40f60dbb          	subw	s11,a2,a5
    80002670:	01b05963          	blez	s11,80002682 <vprintfmt+0x286>
    80002674:	2c81                	sext.w	s9,s9
    80002676:	3dfd                	addiw	s11,s11,-1
    80002678:	85a6                	mv	a1,s1
    8000267a:	8566                	mv	a0,s9
    8000267c:	9902                	jalr	s2
    8000267e:	fe0d9ce3          	bnez	s11,80002676 <vprintfmt+0x27a>
    80002682:	000d4503          	lbu	a0,0(s10)
    80002686:	da050ae3          	beqz	a0,8000243a <vprintfmt+0x3e>
    8000268a:	59fd                	li	s3,-1
    8000268c:	bf85                	j	800025fc <vprintfmt+0x200>
    8000268e:	fffdc793          	not	a5,s11
    80002692:	97fd                	srai	a5,a5,0x3f
    80002694:	00fdf7b3          	and	a5,s11,a5
    80002698:	00174683          	lbu	a3,1(a4)
    8000269c:	00078d9b          	sext.w	s11,a5
    800026a0:	8722                	mv	a4,s0
    800026a2:	bb55                	j	80002456 <vprintfmt+0x5a>
    800026a4:	000aa503          	lw	a0,0(s5)
    800026a8:	85a6                	mv	a1,s1
    800026aa:	0aa1                	addi	s5,s5,8
    800026ac:	9902                	jalr	s2
    800026ae:	b371                	j	8000243a <vprintfmt+0x3e>
    800026b0:	4c01                	li	s8,0
    800026b2:	b575                	j	8000255e <vprintfmt+0x162>
    800026b4:	000aa983          	lw	s3,0(s5)
    800026b8:	bded                	j	800025b2 <vprintfmt+0x1b6>
    800026ba:	46a9                	li	a3,10
    800026bc:	b739                	j	800025ca <vprintfmt+0x1ce>
    800026be:	46a1                	li	a3,8
    800026c0:	b729                	j	800025ca <vprintfmt+0x1ce>
    800026c2:	85a6                	mv	a1,s1
    800026c4:	02d00513          	li	a0,45
    800026c8:	9902                	jalr	s2
    800026ca:	8ae2                	mv	s5,s8
    800026cc:	413007b3          	neg	a5,s3
    800026d0:	46a9                	li	a3,10
    800026d2:	b595                	j	80002536 <vprintfmt+0x13a>
    800026d4:	8722                	mv	a4,s0
    800026d6:	bd29                	j	800024f0 <vprintfmt+0xf4>

00000000800026d8 <sprintf_putch.0>:
    800026d8:	619c                	ld	a5,0(a1)
    800026da:	00a78023          	sb	a0,0(a5)
    800026de:	619c                	ld	a5,0(a1)
    800026e0:	0785                	addi	a5,a5,1
    800026e2:	e19c                	sd	a5,0(a1)
    800026e4:	8082                	ret

00000000800026e6 <putchar>:
    800026e6:	04022803          	lw	a6,64(tp) # 40 <buflen.1>
    800026ea:	00020793          	mv	a5,tp
    800026ee:	97c2                	add	a5,a5,a6
    800026f0:	7159                	addi	sp,sp,-112
    800026f2:	0018069b          	addiw	a3,a6,1
    800026f6:	04d22023          	sw	a3,64(tp) # 40 <buflen.1>
    800026fa:	00a78023          	sb	a0,0(a5)
    800026fe:	03f10713          	addi	a4,sp,63
    80002702:	47a9                	li	a5,10
    80002704:	fc077713          	andi	a4,a4,-64
    80002708:	00f50963          	beq	a0,a5,8000271a <putchar+0x34>
    8000270c:	04000793          	li	a5,64
    80002710:	00f68563          	beq	a3,a5,8000271a <putchar+0x34>
    80002714:	4501                	li	a0,0
    80002716:	6165                	addi	sp,sp,112
    80002718:	8082                	ret
    8000271a:	04000793          	li	a5,64
    8000271e:	e31c                	sd	a5,0(a4)
    80002720:	4785                	li	a5,1
    80002722:	e71c                	sd	a5,8(a4)
    80002724:	00020613          	mv	a2,tp
    80002728:	eb10                	sd	a2,16(a4)
    8000272a:	ef14                	sd	a3,24(a4)
    8000272c:	0ff0000f          	fence
    80002730:	00000697          	auipc	a3,0x0
    80002734:	91068693          	addi	a3,a3,-1776 # 80002040 <fromhost>
    80002738:	00000797          	auipc	a5,0x0
    8000273c:	8ce7b423          	sd	a4,-1848(a5) # 80002000 <tohost>
    80002740:	629c                	ld	a5,0(a3)
    80002742:	dffd                	beqz	a5,80002740 <putchar+0x5a>
    80002744:	00000797          	auipc	a5,0x0
    80002748:	8e07be23          	sd	zero,-1796(a5) # 80002040 <fromhost>
    8000274c:	0ff0000f          	fence
    80002750:	04022023          	sw	zero,64(tp) # 40 <buflen.1>
    80002754:	631c                	ld	a5,0(a4)
    80002756:	4501                	li	a0,0
    80002758:	6165                	addi	sp,sp,112
    8000275a:	8082                	ret

000000008000275c <setStats>:
    8000275c:	b0002773          	csrr	a4,mcycle
    80002760:	8f818793          	addi	a5,gp,-1800 # 800101d8 <counters>
    80002764:	c511                	beqz	a0,80002770 <setStats+0x14>
    80002766:	e398                	sd	a4,0(a5)
    80002768:	b0202773          	csrr	a4,minstret
    8000276c:	e798                	sd	a4,8(a5)
    8000276e:	8082                	ret
    80002770:	6394                	ld	a3,0(a5)
    80002772:	0000b617          	auipc	a2,0xb
    80002776:	0de60613          	addi	a2,a2,222 # 8000d850 <_conv_stat+0x1f2>
    8000277a:	eb90                	sd	a2,16(a5)
    8000277c:	8f15                	sub	a4,a4,a3
    8000277e:	e398                	sd	a4,0(a5)
    80002780:	b0202773          	csrr	a4,minstret
    80002784:	6794                	ld	a3,8(a5)
    80002786:	0000b617          	auipc	a2,0xb
    8000278a:	0d260613          	addi	a2,a2,210 # 8000d858 <_conv_stat+0x1fa>
    8000278e:	ef90                	sd	a2,24(a5)
    80002790:	8f15                	sub	a4,a4,a3
    80002792:	e798                	sd	a4,8(a5)
    80002794:	8082                	ret

0000000080002796 <tohost_exit>:
    80002796:	00151793          	slli	a5,a0,0x1
    8000279a:	0017e793          	ori	a5,a5,1
    8000279e:	00000717          	auipc	a4,0x0
    800027a2:	86f73123          	sd	a5,-1950(a4) # 80002000 <tohost>
    800027a6:	a001                	j	800027a6 <tohost_exit+0x10>

00000000800027a8 <handle_trap>:
    800027a8:	6785                	lui	a5,0x1
    800027aa:	a7378793          	addi	a5,a5,-1421 # a73 <_tbss_end+0xa2f>
    800027ae:	00000717          	auipc	a4,0x0
    800027b2:	84f73923          	sd	a5,-1966(a4) # 80002000 <tohost>
    800027b6:	a001                	j	800027b6 <handle_trap+0xe>

00000000800027b8 <exit>:
    800027b8:	1141                	addi	sp,sp,-16
    800027ba:	e406                	sd	ra,8(sp)
    800027bc:	fdbff0ef          	jal	ra,80002796 <tohost_exit>

00000000800027c0 <abort>:
    800027c0:	10d00793          	li	a5,269
    800027c4:	00000717          	auipc	a4,0x0
    800027c8:	82f73e23          	sd	a5,-1988(a4) # 80002000 <tohost>
    800027cc:	a001                	j	800027cc <abort+0xc>

00000000800027ce <printstr>:
    800027ce:	00054783          	lbu	a5,0(a0)
    800027d2:	7159                	addi	sp,sp,-112
    800027d4:	03f10693          	addi	a3,sp,63
    800027d8:	fc06f693          	andi	a3,a3,-64
    800027dc:	c3b9                	beqz	a5,80002822 <printstr+0x54>
    800027de:	87aa                	mv	a5,a0
    800027e0:	0017c703          	lbu	a4,1(a5)
    800027e4:	0785                	addi	a5,a5,1
    800027e6:	ff6d                	bnez	a4,800027e0 <printstr+0x12>
    800027e8:	8f89                	sub	a5,a5,a0
    800027ea:	04000713          	li	a4,64
    800027ee:	e298                	sd	a4,0(a3)
    800027f0:	4705                	li	a4,1
    800027f2:	e698                	sd	a4,8(a3)
    800027f4:	ea88                	sd	a0,16(a3)
    800027f6:	ee9c                	sd	a5,24(a3)
    800027f8:	0ff0000f          	fence
    800027fc:	00000717          	auipc	a4,0x0
    80002800:	84470713          	addi	a4,a4,-1980 # 80002040 <fromhost>
    80002804:	fffff797          	auipc	a5,0xfffff
    80002808:	7ed7be23          	sd	a3,2044(a5) # 80002000 <tohost>
    8000280c:	631c                	ld	a5,0(a4)
    8000280e:	dffd                	beqz	a5,8000280c <printstr+0x3e>
    80002810:	00000797          	auipc	a5,0x0
    80002814:	8207b823          	sd	zero,-2000(a5) # 80002040 <fromhost>
    80002818:	0ff0000f          	fence
    8000281c:	629c                	ld	a5,0(a3)
    8000281e:	6165                	addi	sp,sp,112
    80002820:	8082                	ret
    80002822:	4781                	li	a5,0
    80002824:	b7d9                	j	800027ea <printstr+0x1c>

0000000080002826 <thread_entry>:
    80002826:	e101                	bnez	a0,80002826 <thread_entry>
    80002828:	8082                	ret

000000008000282a <printhex>:
    8000282a:	7179                	addi	sp,sp,-48
    8000282c:	87aa                	mv	a5,a0
    8000282e:	f406                	sd	ra,40(sp)
    80002830:	0028                	addi	a0,sp,8
    80002832:	01710713          	addi	a4,sp,23
    80002836:	4825                	li	a6,9
    80002838:	a011                	j	8000283c <printhex+0x12>
    8000283a:	8736                	mv	a4,a3
    8000283c:	00f7f613          	andi	a2,a5,15
    80002840:	86b2                	mv	a3,a2
    80002842:	05700593          	li	a1,87
    80002846:	00c86463          	bltu	a6,a2,8000284e <printhex+0x24>
    8000284a:	03000593          	li	a1,48
    8000284e:	9ead                	addw	a3,a3,a1
    80002850:	00d70023          	sb	a3,0(a4)
    80002854:	8391                	srli	a5,a5,0x4
    80002856:	fff70693          	addi	a3,a4,-1
    8000285a:	fee510e3          	bne	a0,a4,8000283a <printhex+0x10>
    8000285e:	00010c23          	sb	zero,24(sp)
    80002862:	f6dff0ef          	jal	ra,800027ce <printstr>
    80002866:	70a2                	ld	ra,40(sp)
    80002868:	6145                	addi	sp,sp,48
    8000286a:	8082                	ret

000000008000286c <printf>:
    8000286c:	711d                	addi	sp,sp,-96
    8000286e:	02810313          	addi	t1,sp,40
    80002872:	8e2a                	mv	t3,a0
    80002874:	f42e                	sd	a1,40(sp)
    80002876:	f832                	sd	a2,48(sp)
    80002878:	fc36                	sd	a3,56(sp)
    8000287a:	00000517          	auipc	a0,0x0
    8000287e:	e6c50513          	addi	a0,a0,-404 # 800026e6 <putchar>
    80002882:	869a                	mv	a3,t1
    80002884:	8672                	mv	a2,t3
    80002886:	4581                	li	a1,0
    80002888:	ec06                	sd	ra,24(sp)
    8000288a:	e0ba                	sd	a4,64(sp)
    8000288c:	e4be                	sd	a5,72(sp)
    8000288e:	e8c2                	sd	a6,80(sp)
    80002890:	ecc6                	sd	a7,88(sp)
    80002892:	e41a                	sd	t1,8(sp)
    80002894:	b69ff0ef          	jal	ra,800023fc <vprintfmt>
    80002898:	60e2                	ld	ra,24(sp)
    8000289a:	4501                	li	a0,0
    8000289c:	6125                	addi	sp,sp,96
    8000289e:	8082                	ret

00000000800028a0 <sprintf>:
    800028a0:	711d                	addi	sp,sp,-96
    800028a2:	03010313          	addi	t1,sp,48
    800028a6:	f022                	sd	s0,32(sp)
    800028a8:	e42a                	sd	a0,8(sp)
    800028aa:	f832                	sd	a2,48(sp)
    800028ac:	fc36                	sd	a3,56(sp)
    800028ae:	842a                	mv	s0,a0
    800028b0:	862e                	mv	a2,a1
    800028b2:	00000517          	auipc	a0,0x0
    800028b6:	e2650513          	addi	a0,a0,-474 # 800026d8 <sprintf_putch.0>
    800028ba:	002c                	addi	a1,sp,8
    800028bc:	869a                	mv	a3,t1
    800028be:	f406                	sd	ra,40(sp)
    800028c0:	e4be                	sd	a5,72(sp)
    800028c2:	e0ba                	sd	a4,64(sp)
    800028c4:	e8c2                	sd	a6,80(sp)
    800028c6:	ecc6                	sd	a7,88(sp)
    800028c8:	ec1a                	sd	t1,24(sp)
    800028ca:	b33ff0ef          	jal	ra,800023fc <vprintfmt>
    800028ce:	67a2                	ld	a5,8(sp)
    800028d0:	00078023          	sb	zero,0(a5)
    800028d4:	6522                	ld	a0,8(sp)
    800028d6:	70a2                	ld	ra,40(sp)
    800028d8:	9d01                	subw	a0,a0,s0
    800028da:	7402                	ld	s0,32(sp)
    800028dc:	6125                	addi	sp,sp,96
    800028de:	8082                	ret

00000000800028e0 <memcpy>:
    800028e0:	00b567b3          	or	a5,a0,a1
    800028e4:	8fd1                	or	a5,a5,a2
    800028e6:	8b9d                	andi	a5,a5,7
    800028e8:	00c506b3          	add	a3,a0,a2
    800028ec:	cf91                	beqz	a5,80002908 <memcpy+0x28>
    800028ee:	962e                	add	a2,a2,a1
    800028f0:	87aa                	mv	a5,a0
    800028f2:	02d57663          	bgeu	a0,a3,8000291e <memcpy+0x3e>
    800028f6:	0005c703          	lbu	a4,0(a1)
    800028fa:	0585                	addi	a1,a1,1
    800028fc:	0785                	addi	a5,a5,1
    800028fe:	fee78fa3          	sb	a4,-1(a5)
    80002902:	feb61ae3          	bne	a2,a1,800028f6 <memcpy+0x16>
    80002906:	8082                	ret
    80002908:	fed57fe3          	bgeu	a0,a3,80002906 <memcpy+0x26>
    8000290c:	87aa                	mv	a5,a0
    8000290e:	6198                	ld	a4,0(a1)
    80002910:	07a1                	addi	a5,a5,8
    80002912:	05a1                	addi	a1,a1,8
    80002914:	fee7bc23          	sd	a4,-8(a5)
    80002918:	fed7ebe3          	bltu	a5,a3,8000290e <memcpy+0x2e>
    8000291c:	8082                	ret
    8000291e:	8082                	ret

0000000080002920 <memset>:
    80002920:	00c567b3          	or	a5,a0,a2
    80002924:	8b9d                	andi	a5,a5,7
    80002926:	962a                	add	a2,a2,a0
    80002928:	0ff5f713          	zext.b	a4,a1
    8000292c:	cb91                	beqz	a5,80002940 <memset+0x20>
    8000292e:	87aa                	mv	a5,a0
    80002930:	02c57763          	bgeu	a0,a2,8000295e <memset+0x3e>
    80002934:	0785                	addi	a5,a5,1
    80002936:	fee78fa3          	sb	a4,-1(a5)
    8000293a:	fec79de3          	bne	a5,a2,80002934 <memset+0x14>
    8000293e:	8082                	ret
    80002940:	0000d797          	auipc	a5,0xd
    80002944:	7c87b783          	ld	a5,1992(a5) # 80010108 <__global_locale+0x1d0>
    80002948:	02f70733          	mul	a4,a4,a5
    8000294c:	fec579e3          	bgeu	a0,a2,8000293e <memset+0x1e>
    80002950:	87aa                	mv	a5,a0
    80002952:	07a1                	addi	a5,a5,8
    80002954:	fee7bc23          	sd	a4,-8(a5)
    80002958:	fec7ede3          	bltu	a5,a2,80002952 <memset+0x32>
    8000295c:	8082                	ret
    8000295e:	8082                	ret

0000000080002960 <_init>:
    80002960:	7171                	addi	sp,sp,-176
    80002962:	f122                	sd	s0,160(sp)
    80002964:	ed26                	sd	s1,152(sp)
    80002966:	0000c417          	auipc	s0,0xc
    8000296a:	65243403          	ld	s0,1618(s0) # 8000efb8 <_GLOBAL_OFFSET_TABLE_+0x8>
    8000296e:	0000c497          	auipc	s1,0xc
    80002972:	6524b483          	ld	s1,1618(s1) # 8000efc0 <_GLOBAL_OFFSET_TABLE_+0x10>
    80002976:	e54e                	sd	s3,136(sp)
    80002978:	e152                	sd	s4,128(sp)
    8000297a:	409404b3          	sub	s1,s0,s1
    8000297e:	8626                	mv	a2,s1
    80002980:	89aa                	mv	s3,a0
    80002982:	8a2e                	mv	s4,a1
    80002984:	8512                	mv	a0,tp
    80002986:	96018593          	addi	a1,gp,-1696 # 80010240 <__malloc_start>
    8000298a:	f506                	sd	ra,168(sp)
    8000298c:	e94a                	sd	s2,144(sp)
    8000298e:	fcd6                	sd	s5,120(sp)
    80002990:	8a92                	mv	s5,tp
    80002992:	f4fff0ef          	jal	ra,800028e0 <memcpy>
    80002996:	0000c617          	auipc	a2,0xc
    8000299a:	63263603          	ld	a2,1586(a2) # 8000efc8 <_GLOBAL_OFFSET_TABLE_+0x18>
    8000299e:	4581                	li	a1,0
    800029a0:	009a8533          	add	a0,s5,s1
    800029a4:	8e01                	sub	a2,a2,s0
    800029a6:	f7bff0ef          	jal	ra,80002920 <memset>
    800029aa:	85d2                	mv	a1,s4
    800029ac:	854e                	mv	a0,s3
    800029ae:	e79ff0ef          	jal	ra,80002826 <thread_entry>
    800029b2:	4581                	li	a1,0
    800029b4:	4501                	li	a0,0
    800029b6:	5ce020ef          	jal	ra,80004f84 <main>
    800029ba:	8f818493          	addi	s1,gp,-1800 # 800101d8 <counters>
    800029be:	6094                	ld	a3,0(s1)
    800029c0:	03f10913          	addi	s2,sp,63
    800029c4:	fc097913          	andi	s2,s2,-64
    800029c8:	842a                	mv	s0,a0
    800029ca:	e695                	bnez	a3,800029f6 <_init+0x96>
    800029cc:	6494                	ld	a3,8(s1)
    800029ce:	e681                	bnez	a3,800029d6 <_init+0x76>
    800029d0:	8522                	mv	a0,s0
    800029d2:	dc5ff0ef          	jal	ra,80002796 <tohost_exit>
    800029d6:	89ca                	mv	s3,s2
    800029d8:	6c90                	ld	a2,24(s1)
    800029da:	854e                	mv	a0,s3
    800029dc:	0000b597          	auipc	a1,0xb
    800029e0:	ea458593          	addi	a1,a1,-348 # 8000d880 <_conv_stat+0x222>
    800029e4:	ebdff0ef          	jal	ra,800028a0 <sprintf>
    800029e8:	99aa                	add	s3,s3,a0
    800029ea:	ff3903e3          	beq	s2,s3,800029d0 <_init+0x70>
    800029ee:	854a                	mv	a0,s2
    800029f0:	ddfff0ef          	jal	ra,800027ce <printstr>
    800029f4:	bff1                	j	800029d0 <_init+0x70>
    800029f6:	6890                	ld	a2,16(s1)
    800029f8:	0000b597          	auipc	a1,0xb
    800029fc:	e8858593          	addi	a1,a1,-376 # 8000d880 <_conv_stat+0x222>
    80002a00:	854a                	mv	a0,s2
    80002a02:	e9fff0ef          	jal	ra,800028a0 <sprintf>
    80002a06:	6494                	ld	a3,8(s1)
    80002a08:	00a909b3          	add	s3,s2,a0
    80002a0c:	def9                	beqz	a3,800029ea <_init+0x8a>
    80002a0e:	b7e9                	j	800029d8 <_init+0x78>

0000000080002a10 <strlen>:
    80002a10:	00054783          	lbu	a5,0(a0)
    80002a14:	cb89                	beqz	a5,80002a26 <strlen+0x16>
    80002a16:	87aa                	mv	a5,a0
    80002a18:	0017c703          	lbu	a4,1(a5)
    80002a1c:	0785                	addi	a5,a5,1
    80002a1e:	ff6d                	bnez	a4,80002a18 <strlen+0x8>
    80002a20:	40a78533          	sub	a0,a5,a0
    80002a24:	8082                	ret
    80002a26:	4501                	li	a0,0
    80002a28:	8082                	ret

0000000080002a2a <strnlen>:
    80002a2a:	00b506b3          	add	a3,a0,a1
    80002a2e:	87aa                	mv	a5,a0
    80002a30:	e589                	bnez	a1,80002a3a <strnlen+0x10>
    80002a32:	a829                	j	80002a4c <strnlen+0x22>
    80002a34:	0785                	addi	a5,a5,1
    80002a36:	00f68863          	beq	a3,a5,80002a46 <strnlen+0x1c>
    80002a3a:	0007c703          	lbu	a4,0(a5)
    80002a3e:	fb7d                	bnez	a4,80002a34 <strnlen+0xa>
    80002a40:	40a78533          	sub	a0,a5,a0
    80002a44:	8082                	ret
    80002a46:	40a68533          	sub	a0,a3,a0
    80002a4a:	8082                	ret
    80002a4c:	4501                	li	a0,0
    80002a4e:	8082                	ret

0000000080002a50 <strcmp>:
    80002a50:	00054783          	lbu	a5,0(a0)
    80002a54:	0585                	addi	a1,a1,1
    80002a56:	0505                	addi	a0,a0,1
    80002a58:	fff5c703          	lbu	a4,-1(a1)
    80002a5c:	c799                	beqz	a5,80002a6a <strcmp+0x1a>
    80002a5e:	fee789e3          	beq	a5,a4,80002a50 <strcmp>
    80002a62:	0007851b          	sext.w	a0,a5
    80002a66:	9d19                	subw	a0,a0,a4
    80002a68:	8082                	ret
    80002a6a:	4501                	li	a0,0
    80002a6c:	bfed                	j	80002a66 <strcmp+0x16>

0000000080002a6e <strcpy>:
    80002a6e:	87aa                	mv	a5,a0
    80002a70:	0005c703          	lbu	a4,0(a1)
    80002a74:	0785                	addi	a5,a5,1
    80002a76:	0585                	addi	a1,a1,1
    80002a78:	fee78fa3          	sb	a4,-1(a5)
    80002a7c:	fb75                	bnez	a4,80002a70 <strcpy+0x2>
    80002a7e:	8082                	ret

0000000080002a80 <atol>:
    80002a80:	00054703          	lbu	a4,0(a0)
    80002a84:	02000693          	li	a3,32
    80002a88:	87aa                	mv	a5,a0
    80002a8a:	00d71763          	bne	a4,a3,80002a98 <atol+0x18>
    80002a8e:	0017c703          	lbu	a4,1(a5)
    80002a92:	0785                	addi	a5,a5,1
    80002a94:	fed70de3          	beq	a4,a3,80002a8e <atol+0xe>
    80002a98:	02d00693          	li	a3,45
    80002a9c:	04d70263          	beq	a4,a3,80002ae0 <atol+0x60>
    80002aa0:	02b00693          	li	a3,43
    80002aa4:	02d70763          	beq	a4,a3,80002ad2 <atol+0x52>
    80002aa8:	0007c683          	lbu	a3,0(a5)
    80002aac:	4581                	li	a1,0
    80002aae:	c69d                	beqz	a3,80002adc <atol+0x5c>
    80002ab0:	4501                	li	a0,0
    80002ab2:	0785                	addi	a5,a5,1
    80002ab4:	00251713          	slli	a4,a0,0x2
    80002ab8:	fd06861b          	addiw	a2,a3,-48
    80002abc:	0007c683          	lbu	a3,0(a5)
    80002ac0:	972a                	add	a4,a4,a0
    80002ac2:	0706                	slli	a4,a4,0x1
    80002ac4:	00e60533          	add	a0,a2,a4
    80002ac8:	f6ed                	bnez	a3,80002ab2 <atol+0x32>
    80002aca:	c991                	beqz	a1,80002ade <atol+0x5e>
    80002acc:	40a00533          	neg	a0,a0
    80002ad0:	8082                	ret
    80002ad2:	0017c683          	lbu	a3,1(a5)
    80002ad6:	4581                	li	a1,0
    80002ad8:	0785                	addi	a5,a5,1
    80002ada:	faf9                	bnez	a3,80002ab0 <atol+0x30>
    80002adc:	4501                	li	a0,0
    80002ade:	8082                	ret
    80002ae0:	0017c683          	lbu	a3,1(a5)
    80002ae4:	4585                	li	a1,1
    80002ae6:	0785                	addi	a5,a5,1
    80002ae8:	f6e1                	bnez	a3,80002ab0 <atol+0x30>
    80002aea:	4501                	li	a0,0
    80002aec:	bfcd                	j	80002ade <atol+0x5e>

0000000080002aee <_ZSt13__adjust_heapIPflfN9__gnu_cxx5__ops15_Iter_less_iterEEvT_T0_S5_T1_T2_.isra.0>:
    80002aee:	fff60793          	addi	a5,a2,-1
    80002af2:	03f7d893          	srli	a7,a5,0x3f
    80002af6:	98be                	add	a7,a7,a5
    80002af8:	4018d893          	srai	a7,a7,0x1
    80002afc:	00167313          	andi	t1,a2,1
    80002b00:	0915d563          	bge	a1,a7,80002b8a <_ZSt13__adjust_heapIPflfN9__gnu_cxx5__ops15_Iter_less_iterEEvT_T0_S5_T1_T2_.isra.0+0x9c>
    80002b04:	86ae                	mv	a3,a1
    80002b06:	00168793          	addi	a5,a3,1
    80002b0a:	00379713          	slli	a4,a5,0x3
    80002b0e:	972a                	add	a4,a4,a0
    80002b10:	00072787          	flw	fa5,0(a4)
    80002b14:	ffc72707          	flw	fa4,-4(a4)
    80002b18:	068a                	slli	a3,a3,0x2
    80002b1a:	00d50833          	add	a6,a0,a3
    80002b1e:	a0e796d3          	flt.s	a3,fa5,fa4
    80002b22:	0786                	slli	a5,a5,0x1
    80002b24:	c699                	beqz	a3,80002b32 <_ZSt13__adjust_heapIPflfN9__gnu_cxx5__ops15_Iter_less_iterEEvT_T0_S5_T1_T2_.isra.0+0x44>
    80002b26:	17fd                	addi	a5,a5,-1
    80002b28:	00279713          	slli	a4,a5,0x2
    80002b2c:	972a                	add	a4,a4,a0
    80002b2e:	00072787          	flw	fa5,0(a4)
    80002b32:	00f82027          	fsw	fa5,0(a6)
    80002b36:	86be                	mv	a3,a5
    80002b38:	fd17c7e3          	blt	a5,a7,80002b06 <_ZSt13__adjust_heapIPflfN9__gnu_cxx5__ops15_Iter_less_iterEEvT_T0_S5_T1_T2_.isra.0+0x18>
    80002b3c:	04030d63          	beqz	t1,80002b96 <_ZSt13__adjust_heapIPflfN9__gnu_cxx5__ops15_Iter_less_iterEEvT_T0_S5_T1_T2_.isra.0+0xa8>
    80002b40:	fff78693          	addi	a3,a5,-1
    80002b44:	03f6d613          	srli	a2,a3,0x3f
    80002b48:	9636                	add	a2,a2,a3
    80002b4a:	8605                	srai	a2,a2,0x1
    80002b4c:	00f5cb63          	blt	a1,a5,80002b62 <_ZSt13__adjust_heapIPflfN9__gnu_cxx5__ops15_Iter_less_iterEEvT_T0_S5_T1_T2_.isra.0+0x74>
    80002b50:	a815                	j	80002b84 <_ZSt13__adjust_heapIPflfN9__gnu_cxx5__ops15_Iter_less_iterEEvT_T0_S5_T1_T2_.isra.0+0x96>
    80002b52:	00f72027          	fsw	fa5,0(a4)
    80002b56:	87b2                	mv	a5,a2
    80002b58:	4016d713          	srai	a4,a3,0x1
    80002b5c:	06c5d363          	bge	a1,a2,80002bc2 <_ZSt13__adjust_heapIPflfN9__gnu_cxx5__ops15_Iter_less_iterEEvT_T0_S5_T1_T2_.isra.0+0xd4>
    80002b60:	863a                	mv	a2,a4
    80002b62:	00261813          	slli	a6,a2,0x2
    80002b66:	982a                	add	a6,a6,a0
    80002b68:	00082787          	flw	fa5,0(a6)
    80002b6c:	fff60693          	addi	a3,a2,-1
    80002b70:	03f6d713          	srli	a4,a3,0x3f
    80002b74:	a0a798d3          	flt.s	a7,fa5,fa0
    80002b78:	078a                	slli	a5,a5,0x2
    80002b7a:	96ba                	add	a3,a3,a4
    80002b7c:	00f50733          	add	a4,a0,a5
    80002b80:	fc0899e3          	bnez	a7,80002b52 <_ZSt13__adjust_heapIPflfN9__gnu_cxx5__ops15_Iter_less_iterEEvT_T0_S5_T1_T2_.isra.0+0x64>
    80002b84:	00a72027          	fsw	fa0,0(a4)
    80002b88:	8082                	ret
    80002b8a:	00259713          	slli	a4,a1,0x2
    80002b8e:	972a                	add	a4,a4,a0
    80002b90:	fe031ae3          	bnez	t1,80002b84 <_ZSt13__adjust_heapIPflfN9__gnu_cxx5__ops15_Iter_less_iterEEvT_T0_S5_T1_T2_.isra.0+0x96>
    80002b94:	87ae                	mv	a5,a1
    80002b96:	1679                	addi	a2,a2,-2
    80002b98:	03f65693          	srli	a3,a2,0x3f
    80002b9c:	96b2                	add	a3,a3,a2
    80002b9e:	8685                	srai	a3,a3,0x1
    80002ba0:	fad790e3          	bne	a5,a3,80002b40 <_ZSt13__adjust_heapIPflfN9__gnu_cxx5__ops15_Iter_less_iterEEvT_T0_S5_T1_T2_.isra.0+0x52>
    80002ba4:	0785                	addi	a5,a5,1
    80002ba6:	00379693          	slli	a3,a5,0x3
    80002baa:	96aa                	add	a3,a3,a0
    80002bac:	ffc6a787          	flw	fa5,-4(a3)
    80002bb0:	0786                	slli	a5,a5,0x1
    80002bb2:	17fd                	addi	a5,a5,-1
    80002bb4:	00279693          	slli	a3,a5,0x2
    80002bb8:	00f72027          	fsw	fa5,0(a4)
    80002bbc:	00d50733          	add	a4,a0,a3
    80002bc0:	b741                	j	80002b40 <_ZSt13__adjust_heapIPflfN9__gnu_cxx5__ops15_Iter_less_iterEEvT_T0_S5_T1_T2_.isra.0+0x52>
    80002bc2:	8742                	mv	a4,a6
    80002bc4:	00a72027          	fsw	fa0,0(a4)
    80002bc8:	8082                	ret

0000000080002bca <_ZSt13__adjust_heapIPdldN9__gnu_cxx5__ops15_Iter_less_iterEEvT_T0_S5_T1_T2_.isra.0>:
    80002bca:	fff60793          	addi	a5,a2,-1
    80002bce:	03f7d893          	srli	a7,a5,0x3f
    80002bd2:	98be                	add	a7,a7,a5
    80002bd4:	4018d893          	srai	a7,a7,0x1
    80002bd8:	00167313          	andi	t1,a2,1
    80002bdc:	0915d163          	bge	a1,a7,80002c5e <_ZSt13__adjust_heapIPdldN9__gnu_cxx5__ops15_Iter_less_iterEEvT_T0_S5_T1_T2_.isra.0+0x94>
    80002be0:	86ae                	mv	a3,a1
    80002be2:	00168793          	addi	a5,a3,1
    80002be6:	00479713          	slli	a4,a5,0x4
    80002bea:	972a                	add	a4,a4,a0
    80002bec:	231c                	fld	fa5,0(a4)
    80002bee:	ff873707          	fld	fa4,-8(a4)
    80002bf2:	068e                	slli	a3,a3,0x3
    80002bf4:	00d50833          	add	a6,a0,a3
    80002bf8:	a2e796d3          	flt.d	a3,fa5,fa4
    80002bfc:	0786                	slli	a5,a5,0x1
    80002bfe:	c691                	beqz	a3,80002c0a <_ZSt13__adjust_heapIPdldN9__gnu_cxx5__ops15_Iter_less_iterEEvT_T0_S5_T1_T2_.isra.0+0x40>
    80002c00:	17fd                	addi	a5,a5,-1
    80002c02:	00379713          	slli	a4,a5,0x3
    80002c06:	972a                	add	a4,a4,a0
    80002c08:	231c                	fld	fa5,0(a4)
    80002c0a:	00f83027          	fsd	fa5,0(a6)
    80002c0e:	86be                	mv	a3,a5
    80002c10:	fd17c9e3          	blt	a5,a7,80002be2 <_ZSt13__adjust_heapIPdldN9__gnu_cxx5__ops15_Iter_less_iterEEvT_T0_S5_T1_T2_.isra.0+0x18>
    80002c14:	04030b63          	beqz	t1,80002c6a <_ZSt13__adjust_heapIPdldN9__gnu_cxx5__ops15_Iter_less_iterEEvT_T0_S5_T1_T2_.isra.0+0xa0>
    80002c18:	fff78693          	addi	a3,a5,-1
    80002c1c:	03f6d613          	srli	a2,a3,0x3f
    80002c20:	9636                	add	a2,a2,a3
    80002c22:	8605                	srai	a2,a2,0x1
    80002c24:	00f5ca63          	blt	a1,a5,80002c38 <_ZSt13__adjust_heapIPdldN9__gnu_cxx5__ops15_Iter_less_iterEEvT_T0_S5_T1_T2_.isra.0+0x6e>
    80002c28:	a80d                	j	80002c5a <_ZSt13__adjust_heapIPdldN9__gnu_cxx5__ops15_Iter_less_iterEEvT_T0_S5_T1_T2_.isra.0+0x90>
    80002c2a:	a31c                	fsd	fa5,0(a4)
    80002c2c:	87b2                	mv	a5,a2
    80002c2e:	4016d713          	srai	a4,a3,0x1
    80002c32:	06c5d163          	bge	a1,a2,80002c94 <_ZSt13__adjust_heapIPdldN9__gnu_cxx5__ops15_Iter_less_iterEEvT_T0_S5_T1_T2_.isra.0+0xca>
    80002c36:	863a                	mv	a2,a4
    80002c38:	00361813          	slli	a6,a2,0x3
    80002c3c:	982a                	add	a6,a6,a0
    80002c3e:	00083787          	fld	fa5,0(a6)
    80002c42:	fff60693          	addi	a3,a2,-1
    80002c46:	03f6d713          	srli	a4,a3,0x3f
    80002c4a:	a2a798d3          	flt.d	a7,fa5,fa0
    80002c4e:	078e                	slli	a5,a5,0x3
    80002c50:	96ba                	add	a3,a3,a4
    80002c52:	00f50733          	add	a4,a0,a5
    80002c56:	fc089ae3          	bnez	a7,80002c2a <_ZSt13__adjust_heapIPdldN9__gnu_cxx5__ops15_Iter_less_iterEEvT_T0_S5_T1_T2_.isra.0+0x60>
    80002c5a:	a308                	fsd	fa0,0(a4)
    80002c5c:	8082                	ret
    80002c5e:	00359713          	slli	a4,a1,0x3
    80002c62:	972a                	add	a4,a4,a0
    80002c64:	fe031be3          	bnez	t1,80002c5a <_ZSt13__adjust_heapIPdldN9__gnu_cxx5__ops15_Iter_less_iterEEvT_T0_S5_T1_T2_.isra.0+0x90>
    80002c68:	87ae                	mv	a5,a1
    80002c6a:	1679                	addi	a2,a2,-2
    80002c6c:	03f65693          	srli	a3,a2,0x3f
    80002c70:	96b2                	add	a3,a3,a2
    80002c72:	8685                	srai	a3,a3,0x1
    80002c74:	fad792e3          	bne	a5,a3,80002c18 <_ZSt13__adjust_heapIPdldN9__gnu_cxx5__ops15_Iter_less_iterEEvT_T0_S5_T1_T2_.isra.0+0x4e>
    80002c78:	0785                	addi	a5,a5,1
    80002c7a:	00479693          	slli	a3,a5,0x4
    80002c7e:	96aa                	add	a3,a3,a0
    80002c80:	ff86b787          	fld	fa5,-8(a3)
    80002c84:	0786                	slli	a5,a5,0x1
    80002c86:	17fd                	addi	a5,a5,-1
    80002c88:	00379693          	slli	a3,a5,0x3
    80002c8c:	a31c                	fsd	fa5,0(a4)
    80002c8e:	00d50733          	add	a4,a0,a3
    80002c92:	b759                	j	80002c18 <_ZSt13__adjust_heapIPdldN9__gnu_cxx5__ops15_Iter_less_iterEEvT_T0_S5_T1_T2_.isra.0+0x4e>
    80002c94:	8742                	mv	a4,a6
    80002c96:	a308                	fsd	fa0,0(a4)
    80002c98:	8082                	ret

0000000080002c9a <_ZSt13__adjust_heapIPlllN9__gnu_cxx5__ops15_Iter_less_iterEEvT_T0_S5_T1_T2_.isra.0>:
    80002c9a:	fff60793          	addi	a5,a2,-1
    80002c9e:	03f7de13          	srli	t3,a5,0x3f
    80002ca2:	9e3e                	add	t3,t3,a5
    80002ca4:	401e5e13          	srai	t3,t3,0x1
    80002ca8:	00167e93          	andi	t4,a2,1
    80002cac:	09c5d363          	bge	a1,t3,80002d32 <_ZSt13__adjust_heapIPlllN9__gnu_cxx5__ops15_Iter_less_iterEEvT_T0_S5_T1_T2_.isra.0+0x98>
    80002cb0:	872e                	mv	a4,a1
    80002cb2:	00170793          	addi	a5,a4,1
    80002cb6:	00479813          	slli	a6,a5,0x4
    80002cba:	01050f33          	add	t5,a0,a6
    80002cbe:	000f3803          	ld	a6,0(t5)
    80002cc2:	ff8f3303          	ld	t1,-8(t5)
    80002cc6:	070e                	slli	a4,a4,0x3
    80002cc8:	00e508b3          	add	a7,a0,a4
    80002ccc:	0786                	slli	a5,a5,0x1
    80002cce:	00685963          	bge	a6,t1,80002ce0 <_ZSt13__adjust_heapIPlllN9__gnu_cxx5__ops15_Iter_less_iterEEvT_T0_S5_T1_T2_.isra.0+0x46>
    80002cd2:	17fd                	addi	a5,a5,-1
    80002cd4:	00379813          	slli	a6,a5,0x3
    80002cd8:	01050f33          	add	t5,a0,a6
    80002cdc:	000f3803          	ld	a6,0(t5)
    80002ce0:	0108b023          	sd	a6,0(a7)
    80002ce4:	873e                	mv	a4,a5
    80002ce6:	fdc7c6e3          	blt	a5,t3,80002cb2 <_ZSt13__adjust_heapIPlllN9__gnu_cxx5__ops15_Iter_less_iterEEvT_T0_S5_T1_T2_.isra.0+0x18>
    80002cea:	040e8b63          	beqz	t4,80002d40 <_ZSt13__adjust_heapIPlllN9__gnu_cxx5__ops15_Iter_less_iterEEvT_T0_S5_T1_T2_.isra.0+0xa6>
    80002cee:	fff78713          	addi	a4,a5,-1
    80002cf2:	03f75613          	srli	a2,a4,0x3f
    80002cf6:	963a                	add	a2,a2,a4
    80002cf8:	8605                	srai	a2,a2,0x1
    80002cfa:	00f5ca63          	blt	a1,a5,80002d0e <_ZSt13__adjust_heapIPlllN9__gnu_cxx5__ops15_Iter_less_iterEEvT_T0_S5_T1_T2_.isra.0+0x74>
    80002cfe:	a03d                	j	80002d2c <_ZSt13__adjust_heapIPlllN9__gnu_cxx5__ops15_Iter_less_iterEEvT_T0_S5_T1_T2_.isra.0+0x92>
    80002d00:	006f3023          	sd	t1,0(t5)
    80002d04:	8705                	srai	a4,a4,0x1
    80002d06:	87b2                	mv	a5,a2
    80002d08:	06c5d263          	bge	a1,a2,80002d6c <_ZSt13__adjust_heapIPlllN9__gnu_cxx5__ops15_Iter_less_iterEEvT_T0_S5_T1_T2_.isra.0+0xd2>
    80002d0c:	863a                	mv	a2,a4
    80002d0e:	00361813          	slli	a6,a2,0x3
    80002d12:	982a                	add	a6,a6,a0
    80002d14:	00083303          	ld	t1,0(a6)
    80002d18:	fff60893          	addi	a7,a2,-1
    80002d1c:	03f8d713          	srli	a4,a7,0x3f
    80002d20:	078e                	slli	a5,a5,0x3
    80002d22:	9746                	add	a4,a4,a7
    80002d24:	00f50f33          	add	t5,a0,a5
    80002d28:	fcd34ce3          	blt	t1,a3,80002d00 <_ZSt13__adjust_heapIPlllN9__gnu_cxx5__ops15_Iter_less_iterEEvT_T0_S5_T1_T2_.isra.0+0x66>
    80002d2c:	00df3023          	sd	a3,0(t5)
    80002d30:	8082                	ret
    80002d32:	00359813          	slli	a6,a1,0x3
    80002d36:	01050f33          	add	t5,a0,a6
    80002d3a:	fe0e99e3          	bnez	t4,80002d2c <_ZSt13__adjust_heapIPlllN9__gnu_cxx5__ops15_Iter_less_iterEEvT_T0_S5_T1_T2_.isra.0+0x92>
    80002d3e:	87ae                	mv	a5,a1
    80002d40:	1679                	addi	a2,a2,-2
    80002d42:	03f65713          	srli	a4,a2,0x3f
    80002d46:	9732                	add	a4,a4,a2
    80002d48:	8705                	srai	a4,a4,0x1
    80002d4a:	faf712e3          	bne	a4,a5,80002cee <_ZSt13__adjust_heapIPlllN9__gnu_cxx5__ops15_Iter_less_iterEEvT_T0_S5_T1_T2_.isra.0+0x54>
    80002d4e:	0785                	addi	a5,a5,1
    80002d50:	00479713          	slli	a4,a5,0x4
    80002d54:	972a                	add	a4,a4,a0
    80002d56:	ff873603          	ld	a2,-8(a4)
    80002d5a:	0786                	slli	a5,a5,0x1
    80002d5c:	17fd                	addi	a5,a5,-1
    80002d5e:	00379713          	slli	a4,a5,0x3
    80002d62:	00cf3023          	sd	a2,0(t5)
    80002d66:	00e50f33          	add	t5,a0,a4
    80002d6a:	b751                	j	80002cee <_ZSt13__adjust_heapIPlllN9__gnu_cxx5__ops15_Iter_less_iterEEvT_T0_S5_T1_T2_.isra.0+0x54>
    80002d6c:	8f42                	mv	t5,a6
    80002d6e:	00df3023          	sd	a3,0(t5)
    80002d72:	8082                	ret

0000000080002d74 <_ZSt16__insertion_sortIPfN9__gnu_cxx5__ops15_Iter_less_iterEEvT_S4_T0_.isra.0>:
    80002d74:	08b50163          	beq	a0,a1,80002df6 <_ZSt16__insertion_sortIPfN9__gnu_cxx5__ops15_Iter_less_iterEEvT_S4_T0_.isra.0+0x82>
    80002d78:	7139                	addi	sp,sp,-64
    80002d7a:	f822                	sd	s0,48(sp)
    80002d7c:	f426                	sd	s1,40(sp)
    80002d7e:	f04a                	sd	s2,32(sp)
    80002d80:	fc06                	sd	ra,56(sp)
    80002d82:	ec4e                	sd	s3,24(sp)
    80002d84:	a422                	fsd	fs0,8(sp)
    80002d86:	00450413          	addi	s0,a0,4
    80002d8a:	84aa                	mv	s1,a0
    80002d8c:	892e                	mv	s2,a1
    80002d8e:	02858963          	beq	a1,s0,80002dc0 <_ZSt16__insertion_sortIPfN9__gnu_cxx5__ops15_Iter_less_iterEEvT_S4_T0_.isra.0+0x4c>
    80002d92:	4991                	li	s3,4
    80002d94:	00042407          	flw	fs0,0(s0)
    80002d98:	0004a787          	flw	fa5,0(s1)
    80002d9c:	86a2                	mv	a3,s0
    80002d9e:	a0f417d3          	flt.s	a5,fs0,fa5
    80002da2:	c79d                	beqz	a5,80002dd0 <_ZSt16__insertion_sortIPfN9__gnu_cxx5__ops15_Iter_less_iterEEvT_S4_T0_.isra.0+0x5c>
    80002da4:	00848963          	beq	s1,s0,80002db6 <_ZSt16__insertion_sortIPfN9__gnu_cxx5__ops15_Iter_less_iterEEvT_S4_T0_.isra.0+0x42>
    80002da8:	40940633          	sub	a2,s0,s1
    80002dac:	85a6                	mv	a1,s1
    80002dae:	01348533          	add	a0,s1,s3
    80002db2:	72f020ef          	jal	ra,80005ce0 <memmove>
    80002db6:	0084a027          	fsw	fs0,0(s1)
    80002dba:	0411                	addi	s0,s0,4
    80002dbc:	fc891ce3          	bne	s2,s0,80002d94 <_ZSt16__insertion_sortIPfN9__gnu_cxx5__ops15_Iter_less_iterEEvT_S4_T0_.isra.0+0x20>
    80002dc0:	70e2                	ld	ra,56(sp)
    80002dc2:	7442                	ld	s0,48(sp)
    80002dc4:	74a2                	ld	s1,40(sp)
    80002dc6:	7902                	ld	s2,32(sp)
    80002dc8:	69e2                	ld	s3,24(sp)
    80002dca:	2422                	fld	fs0,8(sp)
    80002dcc:	6121                	addi	sp,sp,64
    80002dce:	8082                	ret
    80002dd0:	ffc42787          	flw	fa5,-4(s0)
    80002dd4:	ffc40793          	addi	a5,s0,-4
    80002dd8:	a0f41753          	flt.s	a4,fs0,fa5
    80002ddc:	cb11                	beqz	a4,80002df0 <_ZSt16__insertion_sortIPfN9__gnu_cxx5__ops15_Iter_less_iterEEvT_S4_T0_.isra.0+0x7c>
    80002dde:	00f7a227          	fsw	fa5,4(a5)
    80002de2:	ffc7a787          	flw	fa5,-4(a5)
    80002de6:	86be                	mv	a3,a5
    80002de8:	17f1                	addi	a5,a5,-4
    80002dea:	a0f41753          	flt.s	a4,fs0,fa5
    80002dee:	fb65                	bnez	a4,80002dde <_ZSt16__insertion_sortIPfN9__gnu_cxx5__ops15_Iter_less_iterEEvT_S4_T0_.isra.0+0x6a>
    80002df0:	0086a027          	fsw	fs0,0(a3)
    80002df4:	b7d9                	j	80002dba <_ZSt16__insertion_sortIPfN9__gnu_cxx5__ops15_Iter_less_iterEEvT_S4_T0_.isra.0+0x46>
    80002df6:	8082                	ret

0000000080002df8 <_ZSt16__insertion_sortIPdN9__gnu_cxx5__ops15_Iter_less_iterEEvT_S4_T0_.isra.0>:
    80002df8:	06b50c63          	beq	a0,a1,80002e70 <_ZSt16__insertion_sortIPdN9__gnu_cxx5__ops15_Iter_less_iterEEvT_S4_T0_.isra.0+0x78>
    80002dfc:	7139                	addi	sp,sp,-64
    80002dfe:	f822                	sd	s0,48(sp)
    80002e00:	f426                	sd	s1,40(sp)
    80002e02:	f04a                	sd	s2,32(sp)
    80002e04:	fc06                	sd	ra,56(sp)
    80002e06:	ec4e                	sd	s3,24(sp)
    80002e08:	a422                	fsd	fs0,8(sp)
    80002e0a:	00850413          	addi	s0,a0,8
    80002e0e:	84aa                	mv	s1,a0
    80002e10:	892e                	mv	s2,a1
    80002e12:	02858663          	beq	a1,s0,80002e3e <_ZSt16__insertion_sortIPdN9__gnu_cxx5__ops15_Iter_less_iterEEvT_S4_T0_.isra.0+0x46>
    80002e16:	49a1                	li	s3,8
    80002e18:	2000                	fld	fs0,0(s0)
    80002e1a:	209c                	fld	fa5,0(s1)
    80002e1c:	86a2                	mv	a3,s0
    80002e1e:	a2f417d3          	flt.d	a5,fs0,fa5
    80002e22:	c795                	beqz	a5,80002e4e <_ZSt16__insertion_sortIPdN9__gnu_cxx5__ops15_Iter_less_iterEEvT_S4_T0_.isra.0+0x56>
    80002e24:	00848963          	beq	s1,s0,80002e36 <_ZSt16__insertion_sortIPdN9__gnu_cxx5__ops15_Iter_less_iterEEvT_S4_T0_.isra.0+0x3e>
    80002e28:	40940633          	sub	a2,s0,s1
    80002e2c:	85a6                	mv	a1,s1
    80002e2e:	01348533          	add	a0,s1,s3
    80002e32:	6af020ef          	jal	ra,80005ce0 <memmove>
    80002e36:	a080                	fsd	fs0,0(s1)
    80002e38:	0421                	addi	s0,s0,8
    80002e3a:	fc891fe3          	bne	s2,s0,80002e18 <_ZSt16__insertion_sortIPdN9__gnu_cxx5__ops15_Iter_less_iterEEvT_S4_T0_.isra.0+0x20>
    80002e3e:	70e2                	ld	ra,56(sp)
    80002e40:	7442                	ld	s0,48(sp)
    80002e42:	74a2                	ld	s1,40(sp)
    80002e44:	7902                	ld	s2,32(sp)
    80002e46:	69e2                	ld	s3,24(sp)
    80002e48:	2422                	fld	fs0,8(sp)
    80002e4a:	6121                	addi	sp,sp,64
    80002e4c:	8082                	ret
    80002e4e:	ff843787          	fld	fa5,-8(s0)
    80002e52:	ff840793          	addi	a5,s0,-8
    80002e56:	a2f41753          	flt.d	a4,fs0,fa5
    80002e5a:	cb09                	beqz	a4,80002e6c <_ZSt16__insertion_sortIPdN9__gnu_cxx5__ops15_Iter_less_iterEEvT_S4_T0_.isra.0+0x74>
    80002e5c:	a79c                	fsd	fa5,8(a5)
    80002e5e:	ff87b787          	fld	fa5,-8(a5)
    80002e62:	86be                	mv	a3,a5
    80002e64:	17e1                	addi	a5,a5,-8
    80002e66:	a2f41753          	flt.d	a4,fs0,fa5
    80002e6a:	fb6d                	bnez	a4,80002e5c <_ZSt16__insertion_sortIPdN9__gnu_cxx5__ops15_Iter_less_iterEEvT_S4_T0_.isra.0+0x64>
    80002e6c:	a280                	fsd	fs0,0(a3)
    80002e6e:	b7e9                	j	80002e38 <_ZSt16__insertion_sortIPdN9__gnu_cxx5__ops15_Iter_less_iterEEvT_S4_T0_.isra.0+0x40>
    80002e70:	8082                	ret

0000000080002e72 <_ZSt16__insertion_sortIPlN9__gnu_cxx5__ops15_Iter_less_iterEEvT_S4_T0_.isra.0>:
    80002e72:	06b50b63          	beq	a0,a1,80002ee8 <_ZSt16__insertion_sortIPlN9__gnu_cxx5__ops15_Iter_less_iterEEvT_S4_T0_.isra.0+0x76>
    80002e76:	7179                	addi	sp,sp,-48
    80002e78:	f022                	sd	s0,32(sp)
    80002e7a:	e84a                	sd	s2,16(sp)
    80002e7c:	e44e                	sd	s3,8(sp)
    80002e7e:	f406                	sd	ra,40(sp)
    80002e80:	ec26                	sd	s1,24(sp)
    80002e82:	e052                	sd	s4,0(sp)
    80002e84:	00850413          	addi	s0,a0,8
    80002e88:	892a                	mv	s2,a0
    80002e8a:	89ae                	mv	s3,a1
    80002e8c:	02858763          	beq	a1,s0,80002eba <_ZSt16__insertion_sortIPlN9__gnu_cxx5__ops15_Iter_less_iterEEvT_S4_T0_.isra.0+0x48>
    80002e90:	4a21                	li	s4,8
    80002e92:	6004                	ld	s1,0(s0)
    80002e94:	00093783          	ld	a5,0(s2)
    80002e98:	86a2                	mv	a3,s0
    80002e9a:	02f4d863          	bge	s1,a5,80002eca <_ZSt16__insertion_sortIPlN9__gnu_cxx5__ops15_Iter_less_iterEEvT_S4_T0_.isra.0+0x58>
    80002e9e:	00890963          	beq	s2,s0,80002eb0 <_ZSt16__insertion_sortIPlN9__gnu_cxx5__ops15_Iter_less_iterEEvT_S4_T0_.isra.0+0x3e>
    80002ea2:	41240633          	sub	a2,s0,s2
    80002ea6:	85ca                	mv	a1,s2
    80002ea8:	01490533          	add	a0,s2,s4
    80002eac:	635020ef          	jal	ra,80005ce0 <memmove>
    80002eb0:	00993023          	sd	s1,0(s2)
    80002eb4:	0421                	addi	s0,s0,8
    80002eb6:	fc899ee3          	bne	s3,s0,80002e92 <_ZSt16__insertion_sortIPlN9__gnu_cxx5__ops15_Iter_less_iterEEvT_S4_T0_.isra.0+0x20>
    80002eba:	70a2                	ld	ra,40(sp)
    80002ebc:	7402                	ld	s0,32(sp)
    80002ebe:	64e2                	ld	s1,24(sp)
    80002ec0:	6942                	ld	s2,16(sp)
    80002ec2:	69a2                	ld	s3,8(sp)
    80002ec4:	6a02                	ld	s4,0(sp)
    80002ec6:	6145                	addi	sp,sp,48
    80002ec8:	8082                	ret
    80002eca:	ff843703          	ld	a4,-8(s0)
    80002ece:	ff840793          	addi	a5,s0,-8
    80002ed2:	00e4d963          	bge	s1,a4,80002ee4 <_ZSt16__insertion_sortIPlN9__gnu_cxx5__ops15_Iter_less_iterEEvT_S4_T0_.isra.0+0x72>
    80002ed6:	e798                	sd	a4,8(a5)
    80002ed8:	ff87b703          	ld	a4,-8(a5)
    80002edc:	86be                	mv	a3,a5
    80002ede:	17e1                	addi	a5,a5,-8
    80002ee0:	fee4cbe3          	blt	s1,a4,80002ed6 <_ZSt16__insertion_sortIPlN9__gnu_cxx5__ops15_Iter_less_iterEEvT_S4_T0_.isra.0+0x64>
    80002ee4:	e284                	sd	s1,0(a3)
    80002ee6:	b7f9                	j	80002eb4 <_ZSt16__insertion_sortIPlN9__gnu_cxx5__ops15_Iter_less_iterEEvT_S4_T0_.isra.0+0x42>
    80002ee8:	8082                	ret

0000000080002eea <_ZSt16__introsort_loopIPflN9__gnu_cxx5__ops15_Iter_less_iterEEvT_S4_T0_T1_.isra.0>:
    80002eea:	40a587b3          	sub	a5,a1,a0
    80002eee:	04000713          	li	a4,64
    80002ef2:	14f75663          	bge	a4,a5,8000303e <_ZSt16__introsort_loopIPflN9__gnu_cxx5__ops15_Iter_less_iterEEvT_S4_T0_T1_.isra.0+0x154>
    80002ef6:	7179                	addi	sp,sp,-48
    80002ef8:	ec26                	sd	s1,24(sp)
    80002efa:	e84a                	sd	s2,16(sp)
    80002efc:	e44e                	sd	s3,8(sp)
    80002efe:	e052                	sd	s4,0(sp)
    80002f00:	f406                	sd	ra,40(sp)
    80002f02:	f022                	sd	s0,32(sp)
    80002f04:	84aa                	mv	s1,a0
    80002f06:	8a32                	mv	s4,a2
    80002f08:	00450993          	addi	s3,a0,4
    80002f0c:	04000913          	li	s2,64
    80002f10:	c679                	beqz	a2,80002fde <_ZSt16__introsort_loopIPflN9__gnu_cxx5__ops15_Iter_less_iterEEvT_S4_T0_T1_.isra.0+0xf4>
    80002f12:	878d                	srai	a5,a5,0x3
    80002f14:	078a                	slli	a5,a5,0x2
    80002f16:	97a6                	add	a5,a5,s1
    80002f18:	0044a787          	flw	fa5,4(s1)
    80002f1c:	0007a687          	flw	fa3,0(a5)
    80002f20:	ffc5a607          	flw	fa2,-4(a1)
    80002f24:	0004a707          	flw	fa4,0(s1)
    80002f28:	a0d79753          	flt.s	a4,fa5,fa3
    80002f2c:	1a7d                	addi	s4,s4,-1
    80002f2e:	c325                	beqz	a4,80002f8e <_ZSt16__introsort_loopIPflN9__gnu_cxx5__ops15_Iter_less_iterEEvT_S4_T0_T1_.isra.0+0xa4>
    80002f30:	a0c69753          	flt.s	a4,fa3,fa2
    80002f34:	eb51                	bnez	a4,80002fc8 <_ZSt16__introsort_loopIPflN9__gnu_cxx5__ops15_Iter_less_iterEEvT_S4_T0_T1_.isra.0+0xde>
    80002f36:	a0c797d3          	flt.s	a5,fa5,fa2
    80002f3a:	e3a5                	bnez	a5,80002f9a <_ZSt16__introsort_loopIPflN9__gnu_cxx5__ops15_Iter_less_iterEEvT_S4_T0_T1_.isra.0+0xb0>
    80002f3c:	00f4a027          	fsw	fa5,0(s1)
    80002f40:	00e4a227          	fsw	fa4,4(s1)
    80002f44:	ffc5a687          	flw	fa3,-4(a1)
    80002f48:	87ae                	mv	a5,a1
    80002f4a:	844e                	mv	s0,s3
    80002f4c:	a0f71753          	flt.s	a4,fa4,fa5
    80002f50:	c719                	beqz	a4,80002f5e <_ZSt16__introsort_loopIPflN9__gnu_cxx5__ops15_Iter_less_iterEEvT_S4_T0_T1_.isra.0+0x74>
    80002f52:	00442707          	flw	fa4,4(s0)
    80002f56:	0411                	addi	s0,s0,4
    80002f58:	a0f71753          	flt.s	a4,fa4,fa5
    80002f5c:	fb7d                	bnez	a4,80002f52 <_ZSt16__introsort_loopIPflN9__gnu_cxx5__ops15_Iter_less_iterEEvT_S4_T0_T1_.isra.0+0x68>
    80002f5e:	a0d79753          	flt.s	a4,fa5,fa3
    80002f62:	17f1                	addi	a5,a5,-4
    80002f64:	c719                	beqz	a4,80002f72 <_ZSt16__introsort_loopIPflN9__gnu_cxx5__ops15_Iter_less_iterEEvT_S4_T0_T1_.isra.0+0x88>
    80002f66:	ffc7a687          	flw	fa3,-4(a5)
    80002f6a:	17f1                	addi	a5,a5,-4
    80002f6c:	a0d79753          	flt.s	a4,fa5,fa3
    80002f70:	fb7d                	bnez	a4,80002f66 <_ZSt16__introsort_loopIPflN9__gnu_cxx5__ops15_Iter_less_iterEEvT_S4_T0_T1_.isra.0+0x7c>
    80002f72:	02f47f63          	bgeu	s0,a5,80002fb0 <_ZSt16__introsort_loopIPflN9__gnu_cxx5__ops15_Iter_less_iterEEvT_S4_T0_T1_.isra.0+0xc6>
    80002f76:	00d42027          	fsw	fa3,0(s0)
    80002f7a:	00e7a027          	fsw	fa4,0(a5)
    80002f7e:	00442707          	flw	fa4,4(s0)
    80002f82:	0004a787          	flw	fa5,0(s1)
    80002f86:	ffc7a687          	flw	fa3,-4(a5)
    80002f8a:	0411                	addi	s0,s0,4
    80002f8c:	b7c1                	j	80002f4c <_ZSt16__introsort_loopIPflN9__gnu_cxx5__ops15_Iter_less_iterEEvT_S4_T0_T1_.isra.0+0x62>
    80002f8e:	a0c79753          	flt.s	a4,fa5,fa2
    80002f92:	f74d                	bnez	a4,80002f3c <_ZSt16__introsort_loopIPflN9__gnu_cxx5__ops15_Iter_less_iterEEvT_S4_T0_T1_.isra.0+0x52>
    80002f94:	a0c69753          	flt.s	a4,fa3,fa2
    80002f98:	cb05                	beqz	a4,80002fc8 <_ZSt16__introsort_loopIPflN9__gnu_cxx5__ops15_Iter_less_iterEEvT_S4_T0_T1_.isra.0+0xde>
    80002f9a:	00c4a027          	fsw	fa2,0(s1)
    80002f9e:	fee5ae27          	fsw	fa4,-4(a1)
    80002fa2:	20e706d3          	fmv.s	fa3,fa4
    80002fa6:	0004a787          	flw	fa5,0(s1)
    80002faa:	0044a707          	flw	fa4,4(s1)
    80002fae:	bf69                	j	80002f48 <_ZSt16__introsort_loopIPflN9__gnu_cxx5__ops15_Iter_less_iterEEvT_S4_T0_T1_.isra.0+0x5e>
    80002fb0:	8652                	mv	a2,s4
    80002fb2:	8522                	mv	a0,s0
    80002fb4:	f37ff0ef          	jal	ra,80002eea <_ZSt16__introsort_loopIPflN9__gnu_cxx5__ops15_Iter_less_iterEEvT_S4_T0_T1_.isra.0>
    80002fb8:	409407b3          	sub	a5,s0,s1
    80002fbc:	06f95963          	bge	s2,a5,8000302e <_ZSt16__introsort_loopIPflN9__gnu_cxx5__ops15_Iter_less_iterEEvT_S4_T0_T1_.isra.0+0x144>
    80002fc0:	020a0063          	beqz	s4,80002fe0 <_ZSt16__introsort_loopIPflN9__gnu_cxx5__ops15_Iter_less_iterEEvT_S4_T0_T1_.isra.0+0xf6>
    80002fc4:	85a2                	mv	a1,s0
    80002fc6:	b7b1                	j	80002f12 <_ZSt16__introsort_loopIPflN9__gnu_cxx5__ops15_Iter_less_iterEEvT_S4_T0_T1_.isra.0+0x28>
    80002fc8:	00d4a027          	fsw	fa3,0(s1)
    80002fcc:	00e7a027          	fsw	fa4,0(a5)
    80002fd0:	0044a707          	flw	fa4,4(s1)
    80002fd4:	0004a787          	flw	fa5,0(s1)
    80002fd8:	ffc5a687          	flw	fa3,-4(a1)
    80002fdc:	b7b5                	j	80002f48 <_ZSt16__introsort_loopIPflN9__gnu_cxx5__ops15_Iter_less_iterEEvT_S4_T0_T1_.isra.0+0x5e>
    80002fde:	842e                	mv	s0,a1
    80002fe0:	4027d913          	srai	s2,a5,0x2
    80002fe4:	ffe90993          	addi	s3,s2,-2
    80002fe8:	4019d993          	srai	s3,s3,0x1
    80002fec:	00299a13          	slli	s4,s3,0x2
    80002ff0:	9a26                	add	s4,s4,s1
    80002ff2:	a011                	j	80002ff6 <_ZSt16__introsort_loopIPflN9__gnu_cxx5__ops15_Iter_less_iterEEvT_S4_T0_T1_.isra.0+0x10c>
    80002ff4:	19fd                	addi	s3,s3,-1
    80002ff6:	000a2507          	flw	fa0,0(s4)
    80002ffa:	85ce                	mv	a1,s3
    80002ffc:	864a                	mv	a2,s2
    80002ffe:	8526                	mv	a0,s1
    80003000:	aefff0ef          	jal	ra,80002aee <_ZSt13__adjust_heapIPflfN9__gnu_cxx5__ops15_Iter_less_iterEEvT_T0_S5_T1_T2_.isra.0>
    80003004:	1a71                	addi	s4,s4,-4
    80003006:	fe0997e3          	bnez	s3,80002ff4 <_ZSt16__introsort_loopIPflN9__gnu_cxx5__ops15_Iter_less_iterEEvT_S4_T0_T1_.isra.0+0x10a>
    8000300a:	4991                	li	s3,4
    8000300c:	0004a787          	flw	fa5,0(s1)
    80003010:	ffc42507          	flw	fa0,-4(s0)
    80003014:	1471                	addi	s0,s0,-4
    80003016:	40940933          	sub	s2,s0,s1
    8000301a:	40295613          	srai	a2,s2,0x2
    8000301e:	4581                	li	a1,0
    80003020:	8526                	mv	a0,s1
    80003022:	00f42027          	fsw	fa5,0(s0)
    80003026:	ac9ff0ef          	jal	ra,80002aee <_ZSt13__adjust_heapIPflfN9__gnu_cxx5__ops15_Iter_less_iterEEvT_T0_S5_T1_T2_.isra.0>
    8000302a:	ff29c1e3          	blt	s3,s2,8000300c <_ZSt16__introsort_loopIPflN9__gnu_cxx5__ops15_Iter_less_iterEEvT_S4_T0_T1_.isra.0+0x122>
    8000302e:	70a2                	ld	ra,40(sp)
    80003030:	7402                	ld	s0,32(sp)
    80003032:	64e2                	ld	s1,24(sp)
    80003034:	6942                	ld	s2,16(sp)
    80003036:	69a2                	ld	s3,8(sp)
    80003038:	6a02                	ld	s4,0(sp)
    8000303a:	6145                	addi	sp,sp,48
    8000303c:	8082                	ret
    8000303e:	8082                	ret

0000000080003040 <_ZSt16__introsort_loopIPdlN9__gnu_cxx5__ops15_Iter_less_iterEEvT_S4_T0_T1_.isra.0>:
    80003040:	40a587b3          	sub	a5,a1,a0
    80003044:	08000713          	li	a4,128
    80003048:	12f75363          	bge	a4,a5,8000316e <_ZSt16__introsort_loopIPdlN9__gnu_cxx5__ops15_Iter_less_iterEEvT_S4_T0_T1_.isra.0+0x12e>
    8000304c:	7179                	addi	sp,sp,-48
    8000304e:	ec26                	sd	s1,24(sp)
    80003050:	e84a                	sd	s2,16(sp)
    80003052:	e44e                	sd	s3,8(sp)
    80003054:	e052                	sd	s4,0(sp)
    80003056:	f406                	sd	ra,40(sp)
    80003058:	f022                	sd	s0,32(sp)
    8000305a:	84aa                	mv	s1,a0
    8000305c:	8a32                	mv	s4,a2
    8000305e:	00850993          	addi	s3,a0,8
    80003062:	08000913          	li	s2,128
    80003066:	c655                	beqz	a2,80003112 <_ZSt16__introsort_loopIPdlN9__gnu_cxx5__ops15_Iter_less_iterEEvT_S4_T0_T1_.isra.0+0xd2>
    80003068:	8791                	srai	a5,a5,0x4
    8000306a:	078e                	slli	a5,a5,0x3
    8000306c:	97a6                	add	a5,a5,s1
    8000306e:	249c                	fld	fa5,8(s1)
    80003070:	2394                	fld	fa3,0(a5)
    80003072:	ff85b607          	fld	fa2,-8(a1)
    80003076:	2098                	fld	fa4,0(s1)
    80003078:	a2d79753          	flt.d	a4,fa5,fa3
    8000307c:	1a7d                	addi	s4,s4,-1
    8000307e:	cb29                	beqz	a4,800030d0 <_ZSt16__introsort_loopIPdlN9__gnu_cxx5__ops15_Iter_less_iterEEvT_S4_T0_T1_.isra.0+0x90>
    80003080:	a2c69753          	flt.d	a4,fa3,fa2
    80003084:	e341                	bnez	a4,80003104 <_ZSt16__introsort_loopIPdlN9__gnu_cxx5__ops15_Iter_less_iterEEvT_S4_T0_T1_.isra.0+0xc4>
    80003086:	a2c797d3          	flt.d	a5,fa5,fa2
    8000308a:	eba9                	bnez	a5,800030dc <_ZSt16__introsort_loopIPdlN9__gnu_cxx5__ops15_Iter_less_iterEEvT_S4_T0_T1_.isra.0+0x9c>
    8000308c:	a09c                	fsd	fa5,0(s1)
    8000308e:	a498                	fsd	fa4,8(s1)
    80003090:	ff85b687          	fld	fa3,-8(a1)
    80003094:	87ae                	mv	a5,a1
    80003096:	844e                	mv	s0,s3
    80003098:	a2f71753          	flt.d	a4,fa4,fa5
    8000309c:	c711                	beqz	a4,800030a8 <_ZSt16__introsort_loopIPdlN9__gnu_cxx5__ops15_Iter_less_iterEEvT_S4_T0_T1_.isra.0+0x68>
    8000309e:	2418                	fld	fa4,8(s0)
    800030a0:	0421                	addi	s0,s0,8
    800030a2:	a2f71753          	flt.d	a4,fa4,fa5
    800030a6:	ff65                	bnez	a4,8000309e <_ZSt16__introsort_loopIPdlN9__gnu_cxx5__ops15_Iter_less_iterEEvT_S4_T0_T1_.isra.0+0x5e>
    800030a8:	a2d79753          	flt.d	a4,fa5,fa3
    800030ac:	17e1                	addi	a5,a5,-8
    800030ae:	c719                	beqz	a4,800030bc <_ZSt16__introsort_loopIPdlN9__gnu_cxx5__ops15_Iter_less_iterEEvT_S4_T0_T1_.isra.0+0x7c>
    800030b0:	ff87b687          	fld	fa3,-8(a5)
    800030b4:	17e1                	addi	a5,a5,-8
    800030b6:	a2d79753          	flt.d	a4,fa5,fa3
    800030ba:	fb7d                	bnez	a4,800030b0 <_ZSt16__introsort_loopIPdlN9__gnu_cxx5__ops15_Iter_less_iterEEvT_S4_T0_T1_.isra.0+0x70>
    800030bc:	02f47863          	bgeu	s0,a5,800030ec <_ZSt16__introsort_loopIPdlN9__gnu_cxx5__ops15_Iter_less_iterEEvT_S4_T0_T1_.isra.0+0xac>
    800030c0:	a014                	fsd	fa3,0(s0)
    800030c2:	a398                	fsd	fa4,0(a5)
    800030c4:	2418                	fld	fa4,8(s0)
    800030c6:	209c                	fld	fa5,0(s1)
    800030c8:	ff87b687          	fld	fa3,-8(a5)
    800030cc:	0421                	addi	s0,s0,8
    800030ce:	b7e9                	j	80003098 <_ZSt16__introsort_loopIPdlN9__gnu_cxx5__ops15_Iter_less_iterEEvT_S4_T0_T1_.isra.0+0x58>
    800030d0:	a2c79753          	flt.d	a4,fa5,fa2
    800030d4:	ff45                	bnez	a4,8000308c <_ZSt16__introsort_loopIPdlN9__gnu_cxx5__ops15_Iter_less_iterEEvT_S4_T0_T1_.isra.0+0x4c>
    800030d6:	a2c69753          	flt.d	a4,fa3,fa2
    800030da:	c70d                	beqz	a4,80003104 <_ZSt16__introsort_loopIPdlN9__gnu_cxx5__ops15_Iter_less_iterEEvT_S4_T0_T1_.isra.0+0xc4>
    800030dc:	a090                	fsd	fa2,0(s1)
    800030de:	fee5bc27          	fsd	fa4,-8(a1)
    800030e2:	22e706d3          	fmv.d	fa3,fa4
    800030e6:	209c                	fld	fa5,0(s1)
    800030e8:	2498                	fld	fa4,8(s1)
    800030ea:	b76d                	j	80003094 <_ZSt16__introsort_loopIPdlN9__gnu_cxx5__ops15_Iter_less_iterEEvT_S4_T0_T1_.isra.0+0x54>
    800030ec:	8652                	mv	a2,s4
    800030ee:	8522                	mv	a0,s0
    800030f0:	f51ff0ef          	jal	ra,80003040 <_ZSt16__introsort_loopIPdlN9__gnu_cxx5__ops15_Iter_less_iterEEvT_S4_T0_T1_.isra.0>
    800030f4:	409407b3          	sub	a5,s0,s1
    800030f8:	06f95363          	bge	s2,a5,8000315e <_ZSt16__introsort_loopIPdlN9__gnu_cxx5__ops15_Iter_less_iterEEvT_S4_T0_T1_.isra.0+0x11e>
    800030fc:	000a0c63          	beqz	s4,80003114 <_ZSt16__introsort_loopIPdlN9__gnu_cxx5__ops15_Iter_less_iterEEvT_S4_T0_T1_.isra.0+0xd4>
    80003100:	85a2                	mv	a1,s0
    80003102:	b79d                	j	80003068 <_ZSt16__introsort_loopIPdlN9__gnu_cxx5__ops15_Iter_less_iterEEvT_S4_T0_T1_.isra.0+0x28>
    80003104:	a094                	fsd	fa3,0(s1)
    80003106:	a398                	fsd	fa4,0(a5)
    80003108:	2498                	fld	fa4,8(s1)
    8000310a:	209c                	fld	fa5,0(s1)
    8000310c:	ff85b687          	fld	fa3,-8(a1)
    80003110:	b751                	j	80003094 <_ZSt16__introsort_loopIPdlN9__gnu_cxx5__ops15_Iter_less_iterEEvT_S4_T0_T1_.isra.0+0x54>
    80003112:	842e                	mv	s0,a1
    80003114:	4037d913          	srai	s2,a5,0x3
    80003118:	ffe90993          	addi	s3,s2,-2
    8000311c:	4019d993          	srai	s3,s3,0x1
    80003120:	00399a13          	slli	s4,s3,0x3
    80003124:	9a26                	add	s4,s4,s1
    80003126:	a011                	j	8000312a <_ZSt16__introsort_loopIPdlN9__gnu_cxx5__ops15_Iter_less_iterEEvT_S4_T0_T1_.isra.0+0xea>
    80003128:	19fd                	addi	s3,s3,-1
    8000312a:	000a3507          	fld	fa0,0(s4)
    8000312e:	85ce                	mv	a1,s3
    80003130:	864a                	mv	a2,s2
    80003132:	8526                	mv	a0,s1
    80003134:	a97ff0ef          	jal	ra,80002bca <_ZSt13__adjust_heapIPdldN9__gnu_cxx5__ops15_Iter_less_iterEEvT_T0_S5_T1_T2_.isra.0>
    80003138:	1a61                	addi	s4,s4,-8
    8000313a:	fe0997e3          	bnez	s3,80003128 <_ZSt16__introsort_loopIPdlN9__gnu_cxx5__ops15_Iter_less_iterEEvT_S4_T0_T1_.isra.0+0xe8>
    8000313e:	49a1                	li	s3,8
    80003140:	209c                	fld	fa5,0(s1)
    80003142:	ff843507          	fld	fa0,-8(s0)
    80003146:	1461                	addi	s0,s0,-8
    80003148:	40940933          	sub	s2,s0,s1
    8000314c:	40395613          	srai	a2,s2,0x3
    80003150:	4581                	li	a1,0
    80003152:	8526                	mv	a0,s1
    80003154:	a01c                	fsd	fa5,0(s0)
    80003156:	a75ff0ef          	jal	ra,80002bca <_ZSt13__adjust_heapIPdldN9__gnu_cxx5__ops15_Iter_less_iterEEvT_T0_S5_T1_T2_.isra.0>
    8000315a:	ff29c3e3          	blt	s3,s2,80003140 <_ZSt16__introsort_loopIPdlN9__gnu_cxx5__ops15_Iter_less_iterEEvT_S4_T0_T1_.isra.0+0x100>
    8000315e:	70a2                	ld	ra,40(sp)
    80003160:	7402                	ld	s0,32(sp)
    80003162:	64e2                	ld	s1,24(sp)
    80003164:	6942                	ld	s2,16(sp)
    80003166:	69a2                	ld	s3,8(sp)
    80003168:	6a02                	ld	s4,0(sp)
    8000316a:	6145                	addi	sp,sp,48
    8000316c:	8082                	ret
    8000316e:	8082                	ret

0000000080003170 <_ZSt16__introsort_loopIPllN9__gnu_cxx5__ops15_Iter_less_iterEEvT_S4_T0_T1_.isra.0>:
    80003170:	40a587b3          	sub	a5,a1,a0
    80003174:	08000713          	li	a4,128
    80003178:	10f75663          	bge	a4,a5,80003284 <_ZSt16__introsort_loopIPllN9__gnu_cxx5__ops15_Iter_less_iterEEvT_S4_T0_T1_.isra.0+0x114>
    8000317c:	7179                	addi	sp,sp,-48
    8000317e:	ec26                	sd	s1,24(sp)
    80003180:	e84a                	sd	s2,16(sp)
    80003182:	e44e                	sd	s3,8(sp)
    80003184:	e052                	sd	s4,0(sp)
    80003186:	f406                	sd	ra,40(sp)
    80003188:	f022                	sd	s0,32(sp)
    8000318a:	84aa                	mv	s1,a0
    8000318c:	8a32                	mv	s4,a2
    8000318e:	00850993          	addi	s3,a0,8
    80003192:	08000913          	li	s2,128
    80003196:	ca49                	beqz	a2,80003228 <_ZSt16__introsort_loopIPllN9__gnu_cxx5__ops15_Iter_less_iterEEvT_S4_T0_T1_.isra.0+0xb8>
    80003198:	8791                	srai	a5,a5,0x4
    8000319a:	078e                	slli	a5,a5,0x3
    8000319c:	97a6                	add	a5,a5,s1
    8000319e:	6498                	ld	a4,8(s1)
    800031a0:	6390                	ld	a2,0(a5)
    800031a2:	ff85b503          	ld	a0,-8(a1)
    800031a6:	6094                	ld	a3,0(s1)
    800031a8:	1a7d                	addi	s4,s4,-1
    800031aa:	04c75163          	bge	a4,a2,800031ec <_ZSt16__introsort_loopIPllN9__gnu_cxx5__ops15_Iter_less_iterEEvT_S4_T0_T1_.isra.0+0x7c>
    800031ae:	06a64663          	blt	a2,a0,8000321a <_ZSt16__introsort_loopIPllN9__gnu_cxx5__ops15_Iter_less_iterEEvT_S4_T0_T1_.isra.0+0xaa>
    800031b2:	04a74163          	blt	a4,a0,800031f4 <_ZSt16__introsort_loopIPllN9__gnu_cxx5__ops15_Iter_less_iterEEvT_S4_T0_T1_.isra.0+0x84>
    800031b6:	e098                	sd	a4,0(s1)
    800031b8:	e494                	sd	a3,8(s1)
    800031ba:	ff85b803          	ld	a6,-8(a1)
    800031be:	87ae                	mv	a5,a1
    800031c0:	844e                	mv	s0,s3
    800031c2:	00e6d763          	bge	a3,a4,800031d0 <_ZSt16__introsort_loopIPllN9__gnu_cxx5__ops15_Iter_less_iterEEvT_S4_T0_T1_.isra.0+0x60>
    800031c6:	6414                	ld	a3,8(s0)
    800031c8:	0421                	addi	s0,s0,8
    800031ca:	bfe5                	j	800031c2 <_ZSt16__introsort_loopIPllN9__gnu_cxx5__ops15_Iter_less_iterEEvT_S4_T0_T1_.isra.0+0x52>
    800031cc:	ff87b803          	ld	a6,-8(a5)
    800031d0:	17e1                	addi	a5,a5,-8
    800031d2:	ff074de3          	blt	a4,a6,800031cc <_ZSt16__introsort_loopIPllN9__gnu_cxx5__ops15_Iter_less_iterEEvT_S4_T0_T1_.isra.0+0x5c>
    800031d6:	02f47663          	bgeu	s0,a5,80003202 <_ZSt16__introsort_loopIPllN9__gnu_cxx5__ops15_Iter_less_iterEEvT_S4_T0_T1_.isra.0+0x92>
    800031da:	01043023          	sd	a6,0(s0)
    800031de:	e394                	sd	a3,0(a5)
    800031e0:	6414                	ld	a3,8(s0)
    800031e2:	6098                	ld	a4,0(s1)
    800031e4:	ff87b803          	ld	a6,-8(a5)
    800031e8:	0421                	addi	s0,s0,8
    800031ea:	bfe1                	j	800031c2 <_ZSt16__introsort_loopIPllN9__gnu_cxx5__ops15_Iter_less_iterEEvT_S4_T0_T1_.isra.0+0x52>
    800031ec:	fca745e3          	blt	a4,a0,800031b6 <_ZSt16__introsort_loopIPllN9__gnu_cxx5__ops15_Iter_less_iterEEvT_S4_T0_T1_.isra.0+0x46>
    800031f0:	02a65563          	bge	a2,a0,8000321a <_ZSt16__introsort_loopIPllN9__gnu_cxx5__ops15_Iter_less_iterEEvT_S4_T0_T1_.isra.0+0xaa>
    800031f4:	e088                	sd	a0,0(s1)
    800031f6:	fed5bc23          	sd	a3,-8(a1)
    800031fa:	8836                	mv	a6,a3
    800031fc:	6098                	ld	a4,0(s1)
    800031fe:	6494                	ld	a3,8(s1)
    80003200:	bf7d                	j	800031be <_ZSt16__introsort_loopIPllN9__gnu_cxx5__ops15_Iter_less_iterEEvT_S4_T0_T1_.isra.0+0x4e>
    80003202:	8652                	mv	a2,s4
    80003204:	8522                	mv	a0,s0
    80003206:	f6bff0ef          	jal	ra,80003170 <_ZSt16__introsort_loopIPllN9__gnu_cxx5__ops15_Iter_less_iterEEvT_S4_T0_T1_.isra.0>
    8000320a:	409407b3          	sub	a5,s0,s1
    8000320e:	06f95363          	bge	s2,a5,80003274 <_ZSt16__introsort_loopIPllN9__gnu_cxx5__ops15_Iter_less_iterEEvT_S4_T0_T1_.isra.0+0x104>
    80003212:	000a0c63          	beqz	s4,8000322a <_ZSt16__introsort_loopIPllN9__gnu_cxx5__ops15_Iter_less_iterEEvT_S4_T0_T1_.isra.0+0xba>
    80003216:	85a2                	mv	a1,s0
    80003218:	b741                	j	80003198 <_ZSt16__introsort_loopIPllN9__gnu_cxx5__ops15_Iter_less_iterEEvT_S4_T0_T1_.isra.0+0x28>
    8000321a:	e090                	sd	a2,0(s1)
    8000321c:	e394                	sd	a3,0(a5)
    8000321e:	6494                	ld	a3,8(s1)
    80003220:	6098                	ld	a4,0(s1)
    80003222:	ff85b803          	ld	a6,-8(a1)
    80003226:	bf61                	j	800031be <_ZSt16__introsort_loopIPllN9__gnu_cxx5__ops15_Iter_less_iterEEvT_S4_T0_T1_.isra.0+0x4e>
    80003228:	842e                	mv	s0,a1
    8000322a:	4037d913          	srai	s2,a5,0x3
    8000322e:	ffe90993          	addi	s3,s2,-2
    80003232:	4019d993          	srai	s3,s3,0x1
    80003236:	00399a13          	slli	s4,s3,0x3
    8000323a:	9a26                	add	s4,s4,s1
    8000323c:	a011                	j	80003240 <_ZSt16__introsort_loopIPllN9__gnu_cxx5__ops15_Iter_less_iterEEvT_S4_T0_T1_.isra.0+0xd0>
    8000323e:	19fd                	addi	s3,s3,-1
    80003240:	000a3683          	ld	a3,0(s4)
    80003244:	85ce                	mv	a1,s3
    80003246:	864a                	mv	a2,s2
    80003248:	8526                	mv	a0,s1
    8000324a:	a51ff0ef          	jal	ra,80002c9a <_ZSt13__adjust_heapIPlllN9__gnu_cxx5__ops15_Iter_less_iterEEvT_T0_S5_T1_T2_.isra.0>
    8000324e:	1a61                	addi	s4,s4,-8
    80003250:	fe0997e3          	bnez	s3,8000323e <_ZSt16__introsort_loopIPllN9__gnu_cxx5__ops15_Iter_less_iterEEvT_S4_T0_T1_.isra.0+0xce>
    80003254:	49a1                	li	s3,8
    80003256:	609c                	ld	a5,0(s1)
    80003258:	ff843683          	ld	a3,-8(s0)
    8000325c:	1461                	addi	s0,s0,-8
    8000325e:	40940933          	sub	s2,s0,s1
    80003262:	40395613          	srai	a2,s2,0x3
    80003266:	4581                	li	a1,0
    80003268:	8526                	mv	a0,s1
    8000326a:	e01c                	sd	a5,0(s0)
    8000326c:	a2fff0ef          	jal	ra,80002c9a <_ZSt13__adjust_heapIPlllN9__gnu_cxx5__ops15_Iter_less_iterEEvT_T0_S5_T1_T2_.isra.0>
    80003270:	ff29c3e3          	blt	s3,s2,80003256 <_ZSt16__introsort_loopIPllN9__gnu_cxx5__ops15_Iter_less_iterEEvT_S4_T0_T1_.isra.0+0xe6>
    80003274:	70a2                	ld	ra,40(sp)
    80003276:	7402                	ld	s0,32(sp)
    80003278:	64e2                	ld	s1,24(sp)
    8000327a:	6942                	ld	s2,16(sp)
    8000327c:	69a2                	ld	s3,8(sp)
    8000327e:	6a02                	ld	s4,0(sp)
    80003280:	6145                	addi	sp,sp,48
    80003282:	8082                	ret
    80003284:	8082                	ret

0000000080003286 <printI64>:
    80003286:	8a01b783          	ld	a5,-1888(gp) # 80010180 <_impure_ptr>
    8000328a:	862a                	mv	a2,a0
    8000328c:	6b88                	ld	a0,16(a5)
    8000328e:	0000a597          	auipc	a1,0xa
    80003292:	60258593          	addi	a1,a1,1538 # 8000d890 <_conv_stat+0x232>
    80003296:	17a0206f          	j	80005410 <fprintf>

000000008000329a <printU64>:
    8000329a:	8a01b783          	ld	a5,-1888(gp) # 80010180 <_impure_ptr>
    8000329e:	862a                	mv	a2,a0
    800032a0:	6b88                	ld	a0,16(a5)
    800032a2:	0000a597          	auipc	a1,0xa
    800032a6:	5f658593          	addi	a1,a1,1526 # 8000d898 <_conv_stat+0x23a>
    800032aa:	1660206f          	j	80005410 <fprintf>

00000000800032ae <printF32>:
    800032ae:	420507d3          	fcvt.d.s	fa5,fa0
    800032b2:	8a01b783          	ld	a5,-1888(gp) # 80010180 <_impure_ptr>
    800032b6:	6b88                	ld	a0,16(a5)
    800032b8:	e2078653          	fmv.x.d	a2,fa5
    800032bc:	0000a597          	auipc	a1,0xa
    800032c0:	5e458593          	addi	a1,a1,1508 # 8000d8a0 <_conv_stat+0x242>
    800032c4:	14c0206f          	j	80005410 <fprintf>

00000000800032c8 <printF64>:
    800032c8:	8a01b783          	ld	a5,-1888(gp) # 80010180 <_impure_ptr>
    800032cc:	6b88                	ld	a0,16(a5)
    800032ce:	e2050653          	fmv.x.d	a2,fa0
    800032d2:	0000a597          	auipc	a1,0xa
    800032d6:	5d658593          	addi	a1,a1,1494 # 8000d8a8 <_conv_stat+0x24a>
    800032da:	1360206f          	j	80005410 <fprintf>

00000000800032de <printOpen>:
    800032de:	8a01b783          	ld	a5,-1888(gp) # 80010180 <_impure_ptr>
    800032e2:	6b94                	ld	a3,16(a5)
    800032e4:	4609                	li	a2,2
    800032e6:	4585                	li	a1,1
    800032e8:	0000a517          	auipc	a0,0xa
    800032ec:	5c850513          	addi	a0,a0,1480 # 8000d8b0 <_conv_stat+0x252>
    800032f0:	2300206f          	j	80005520 <fwrite>

00000000800032f4 <printClose>:
    800032f4:	8a01b783          	ld	a5,-1888(gp) # 80010180 <_impure_ptr>
    800032f8:	6b94                	ld	a3,16(a5)
    800032fa:	4609                	li	a2,2
    800032fc:	4585                	li	a1,1
    800032fe:	0000a517          	auipc	a0,0xa
    80003302:	5ba50513          	addi	a0,a0,1466 # 8000d8b8 <_conv_stat+0x25a>
    80003306:	21a0206f          	j	80005520 <fwrite>

000000008000330a <printComma>:
    8000330a:	8a01b783          	ld	a5,-1888(gp) # 80010180 <_impure_ptr>
    8000330e:	6b94                	ld	a3,16(a5)
    80003310:	4609                	li	a2,2
    80003312:	4585                	li	a1,1
    80003314:	0000a517          	auipc	a0,0xa
    80003318:	5ac50513          	addi	a0,a0,1452 # 8000d8c0 <_conv_stat+0x262>
    8000331c:	2040206f          	j	80005520 <fwrite>

0000000080003320 <printNewline>:
    80003320:	8a01b783          	ld	a5,-1888(gp) # 80010180 <_impure_ptr>
    80003324:	6b8c                	ld	a1,16(a5)
    80003326:	4529                	li	a0,10
    80003328:	1440206f          	j	8000546c <fputc>

000000008000332c <memrefCopy>:
    8000332c:	7175                	addi	sp,sp,-144
    8000332e:	e122                	sd	s0,128(sp)
    80003330:	f4ce                	sd	s3,104(sp)
    80003332:	ecd6                	sd	s5,88(sp)
    80003334:	e0e2                	sd	s8,64(sp)
    80003336:	f46e                	sd	s11,40(sp)
    80003338:	e506                	sd	ra,136(sp)
    8000333a:	fca6                	sd	s1,120(sp)
    8000333c:	f8ca                	sd	s2,112(sp)
    8000333e:	f0d2                	sd	s4,96(sp)
    80003340:	e8da                	sd	s6,80(sp)
    80003342:	e4de                	sd	s7,72(sp)
    80003344:	fc66                	sd	s9,56(sp)
    80003346:	f86a                	sd	s10,48(sp)
    80003348:	0900                	addi	s0,sp,144
    8000334a:	0085bc03          	ld	s8,8(a1)
    8000334e:	0005bd83          	ld	s11,0(a1)
    80003352:	8aaa                	mv	s5,a0
    80003354:	008c3983          	ld	s3,8(s8)
    80003358:	010c3883          	ld	a7,16(s8)
    8000335c:	040d8b63          	beqz	s11,800033b2 <memrefCopy+0x86>
    80003360:	661c                	ld	a5,8(a2)
    80003362:	00063f83          	ld	t6,0(a2)
    80003366:	0c61                	addi	s8,s8,24
    80003368:	0087b903          	ld	s2,8(a5)
    8000336c:	0107bf03          	ld	t5,16(a5)
    80003370:	003d9613          	slli	a2,s11,0x3
    80003374:	4c81                	li	s9,0
    80003376:	160f9b63          	bnez	t6,800034ec <memrefCopy+0x1c0>
    8000337a:	05b05863          	blez	s11,800033ca <memrefCopy+0x9e>
    8000337e:	87e2                	mv	a5,s8
    80003380:	4701                	li	a4,0
    80003382:	a019                	j	80003388 <memrefCopy+0x5c>
    80003384:	07b70e63          	beq	a4,s11,80003400 <memrefCopy+0xd4>
    80003388:	6394                	ld	a3,0(a5)
    8000338a:	0705                	addi	a4,a4,1
    8000338c:	07a1                	addi	a5,a5,8
    8000338e:	fafd                	bnez	a3,80003384 <memrefCopy+0x58>
    80003390:	f7040113          	addi	sp,s0,-144
    80003394:	60aa                	ld	ra,136(sp)
    80003396:	640a                	ld	s0,128(sp)
    80003398:	74e6                	ld	s1,120(sp)
    8000339a:	7946                	ld	s2,112(sp)
    8000339c:	79a6                	ld	s3,104(sp)
    8000339e:	7a06                	ld	s4,96(sp)
    800033a0:	6ae6                	ld	s5,88(sp)
    800033a2:	6b46                	ld	s6,80(sp)
    800033a4:	6ba6                	ld	s7,72(sp)
    800033a6:	6c06                	ld	s8,64(sp)
    800033a8:	7ce2                	ld	s9,56(sp)
    800033aa:	7d42                	ld	s10,48(sp)
    800033ac:	7da2                	ld	s11,40(sp)
    800033ae:	6149                	addi	sp,sp,144
    800033b0:	8082                	ret
    800033b2:	00863c83          	ld	s9,8(a2)
    800033b6:	621c                	ld	a5,0(a2)
    800033b8:	008cb903          	ld	s2,8(s9)
    800033bc:	010cbf03          	ld	t5,16(s9)
    800033c0:	12078963          	beqz	a5,800034f2 <memrefCopy+0x1c6>
    800033c4:	0ce1                	addi	s9,s9,24
    800033c6:	4601                	li	a2,0
    800033c8:	4c01                	li	s8,0
    800033ca:	031a88b3          	mul	a7,s5,a7
    800033ce:	035f0f33          	mul	t5,t5,s5
    800033d2:	011987b3          	add	a5,s3,a7
    800033d6:	f8f43023          	sd	a5,-128(s0)
    800033da:	01e907b3          	add	a5,s2,t5
    800033de:	f6f43c23          	sd	a5,-136(s0)
    800033e2:	100d8c63          	beqz	s11,800034fa <memrefCopy+0x1ce>
    800033e6:	00f60793          	addi	a5,a2,15
    800033ea:	9bc1                	andi	a5,a5,-16
    800033ec:	40f10133          	sub	sp,sp,a5
    800033f0:	848a                	mv	s1,sp
    800033f2:	40f10133          	sub	sp,sp,a5
    800033f6:	8a0a                	mv	s4,sp
    800033f8:	40f10133          	sub	sp,sp,a5
    800033fc:	8d0a                	mv	s10,sp
    800033fe:	a0a5                	j	80003466 <memrefCopy+0x13a>
    80003400:	00f60793          	addi	a5,a2,15
    80003404:	9bc1                	andi	a5,a5,-16
    80003406:	40f10133          	sub	sp,sp,a5
    8000340a:	848a                	mv	s1,sp
    8000340c:	40f10133          	sub	sp,sp,a5
    80003410:	8a0a                	mv	s4,sp
    80003412:	40f10133          	sub	sp,sp,a5
    80003416:	0f8e                	slli	t6,t6,0x3
    80003418:	8d0a                	mv	s10,sp
    8000341a:	4781                	li	a5,0
    8000341c:	00f606b3          	add	a3,a2,a5
    80003420:	00ff8733          	add	a4,t6,a5
    80003424:	96e2                	add	a3,a3,s8
    80003426:	9766                	add	a4,a4,s9
    80003428:	6294                	ld	a3,0(a3)
    8000342a:	6318                	ld	a4,0(a4)
    8000342c:	00f48833          	add	a6,s1,a5
    80003430:	035686b3          	mul	a3,a3,s5
    80003434:	00fa0533          	add	a0,s4,a5
    80003438:	00fd05b3          	add	a1,s10,a5
    8000343c:	00083023          	sd	zero,0(a6)
    80003440:	07a1                	addi	a5,a5,8
    80003442:	03570733          	mul	a4,a4,s5
    80003446:	e114                	sd	a3,0(a0)
    80003448:	e198                	sd	a4,0(a1)
    8000344a:	fcf619e3          	bne	a2,a5,8000341c <memrefCopy+0xf0>
    8000344e:	031a88b3          	mul	a7,s5,a7
    80003452:	03ea8f33          	mul	t5,s5,t5
    80003456:	011987b3          	add	a5,s3,a7
    8000345a:	f8f43023          	sd	a5,-128(s0)
    8000345e:	01e907b3          	add	a5,s2,t5
    80003462:	f6f43c23          	sd	a5,-136(s0)
    80003466:	fffd8993          	addi	s3,s11,-1
    8000346a:	94b2                	add	s1,s1,a2
    8000346c:	00399913          	slli	s2,s3,0x3
    80003470:	4b81                	li	s7,0
    80003472:	4b01                	li	s6,0
    80003474:	f8043703          	ld	a4,-128(s0)
    80003478:	f7843783          	ld	a5,-136(s0)
    8000347c:	975a                	add	a4,a4,s6
    8000347e:	97de                	add	a5,a5,s7
    80003480:	f8e43423          	sd	a4,-120(s0)
    80003484:	f8843583          	ld	a1,-120(s0)
    80003488:	853e                	mv	a0,a5
    8000348a:	8656                	mv	a2,s5
    8000348c:	c54ff0ef          	jal	ra,800028e0 <memcpy>
    80003490:	87aa                	mv	a5,a0
    80003492:	ffb059e3          	blez	s11,80003484 <memrefCopy+0x158>
    80003496:	87ca                	mv	a5,s2
    80003498:	86a6                	mv	a3,s1
    8000349a:	854e                	mv	a0,s3
    8000349c:	a839                	j	800034ba <memrefCopy+0x18e>
    8000349e:	000f3603          	ld	a2,0(t5)
    800034a2:	02e80833          	mul	a6,a6,a4
    800034a6:	0006b023          	sd	zero,0(a3)
    800034aa:	157d                	addi	a0,a0,-1
    800034ac:	17e1                	addi	a5,a5,-8
    800034ae:	02c585b3          	mul	a1,a1,a2
    800034b2:	410b0b33          	sub	s6,s6,a6
    800034b6:	40bb8bb3          	sub	s7,s7,a1
    800034ba:	ff86b703          	ld	a4,-8(a3)
    800034be:	00fa05b3          	add	a1,s4,a5
    800034c2:	00fd0633          	add	a2,s10,a5
    800034c6:	00fc08b3          	add	a7,s8,a5
    800034ca:	0005b803          	ld	a6,0(a1)
    800034ce:	620c                	ld	a1,0(a2)
    800034d0:	0008b603          	ld	a2,0(a7)
    800034d4:	0705                	addi	a4,a4,1
    800034d6:	fee6bc23          	sd	a4,-8(a3)
    800034da:	00fc8f33          	add	t5,s9,a5
    800034de:	9b42                	add	s6,s6,a6
    800034e0:	9bae                	add	s7,s7,a1
    800034e2:	f8c719e3          	bne	a4,a2,80003474 <memrefCopy+0x148>
    800034e6:	16e1                	addi	a3,a3,-8
    800034e8:	f95d                	bnez	a0,8000349e <memrefCopy+0x172>
    800034ea:	b55d                	j	80003390 <memrefCopy+0x64>
    800034ec:	01878c93          	addi	s9,a5,24
    800034f0:	b569                	j	8000337a <memrefCopy+0x4e>
    800034f2:	4601                	li	a2,0
    800034f4:	4c01                	li	s8,0
    800034f6:	4c81                	li	s9,0
    800034f8:	bdc9                	j	800033ca <memrefCopy+0x9e>
    800034fa:	f8043583          	ld	a1,-128(s0)
    800034fe:	f7843503          	ld	a0,-136(s0)
    80003502:	8656                	mv	a2,s5
    80003504:	bdcff0ef          	jal	ra,800028e0 <memcpy>
    80003508:	b561                	j	80003390 <memrefCopy+0x64>

000000008000350a <printFlops>:
    8000350a:	0000d797          	auipc	a5,0xd
    8000350e:	c067b787          	fld	fa5,-1018(a5) # 80010110 <__global_locale+0x1d8>
    80003512:	12f577d3          	fmul.d	fa5,fa0,fa5
    80003516:	8a01b783          	ld	a5,-1888(gp) # 80010180 <_impure_ptr>
    8000351a:	6f88                	ld	a0,24(a5)
    8000351c:	0000a597          	auipc	a1,0xa
    80003520:	3ac58593          	addi	a1,a1,940 # 8000d8c8 <_conv_stat+0x26a>
    80003524:	e2078653          	fmv.x.d	a2,fa5
    80003528:	6e90106f          	j	80005410 <fprintf>

000000008000352c <rtclock>:
    8000352c:	1101                	addi	sp,sp,-32
    8000352e:	4581                	li	a1,0
    80003530:	850a                	mv	a0,sp
    80003532:	ec06                	sd	ra,24(sp)
    80003534:	185020ef          	jal	ra,80005eb8 <gettimeofday>
    80003538:	e105                	bnez	a0,80003558 <rtclock+0x2c>
    8000353a:	0000d797          	auipc	a5,0xd
    8000353e:	bde7b707          	fld	fa4,-1058(a5) # 80010118 <__global_locale+0x1e0>
    80003542:	67a2                	ld	a5,8(sp)
    80003544:	60e2                	ld	ra,24(sp)
    80003546:	d227f553          	fcvt.d.l	fa0,a5
    8000354a:	6782                	ld	a5,0(sp)
    8000354c:	6105                	addi	sp,sp,32
    8000354e:	d227f7d3          	fcvt.d.l	fa5,a5
    80003552:	7ae57543          	fmadd.d	fa0,fa0,fa4,fa5
    80003556:	8082                	ret
    80003558:	8a01b783          	ld	a5,-1888(gp) # 80010180 <_impure_ptr>
    8000355c:	862a                	mv	a2,a0
    8000355e:	6f88                	ld	a0,24(a5)
    80003560:	0000a597          	auipc	a1,0xa
    80003564:	37858593          	addi	a1,a1,888 # 8000d8d8 <_conv_stat+0x27a>
    80003568:	6a9010ef          	jal	ra,80005410 <fprintf>
    8000356c:	b7f9                	j	8000353a <rtclock+0xe>

000000008000356e <mlirAlloc>:
    8000356e:	a659                	j	800038f4 <__wrap_malloc>

0000000080003570 <mlirAlignedAlloc>:
    80003570:	5d50106f          	j	80005344 <aligned_alloc>

0000000080003574 <mlirFree>:
    80003574:	1740206f          	j	800056e8 <free>

0000000080003578 <mlirAlignedFree>:
    80003578:	1700206f          	j	800056e8 <free>

000000008000357c <_mlir_ciface_stdSortI64>:
    8000357c:	1101                	addi	sp,sp,-32
    8000357e:	ec06                	sd	ra,24(sp)
    80003580:	e822                	sd	s0,16(sp)
    80003582:	e426                	sd	s1,8(sp)
    80003584:	e04a                	sd	s2,0(sp)
    80003586:	cdcd                	beqz	a1,80003640 <_mlir_ciface_stdSortI64+0xc4>
    80003588:	7198                	ld	a4,32(a1)
    8000358a:	4785                	li	a5,1
    8000358c:	08f71a63          	bne	a4,a5,80003620 <_mlir_ciface_stdSortI64+0xa4>
    80003590:	699c                	ld	a5,16(a1)
    80003592:	6584                	ld	s1,8(a1)
    80003594:	00351413          	slli	s0,a0,0x3
    80003598:	078e                	slli	a5,a5,0x3
    8000359a:	94be                	add	s1,s1,a5
    8000359c:	00848933          	add	s2,s1,s0
    800035a0:	05248c63          	beq	s1,s2,800035f8 <_mlir_ciface_stdSortI64+0x7c>
    800035a4:	40345513          	srai	a0,s0,0x3
    800035a8:	404000ef          	jal	ra,800039ac <__clzdi2>
    800035ac:	03f00613          	li	a2,63
    800035b0:	9e09                	subw	a2,a2,a0
    800035b2:	0606                	slli	a2,a2,0x1
    800035b4:	85ca                	mv	a1,s2
    800035b6:	8526                	mv	a0,s1
    800035b8:	bb9ff0ef          	jal	ra,80003170 <_ZSt16__introsort_loopIPllN9__gnu_cxx5__ops15_Iter_less_iterEEvT_S4_T0_T1_.isra.0>
    800035bc:	08000793          	li	a5,128
    800035c0:	0487d263          	bge	a5,s0,80003604 <_mlir_ciface_stdSortI64+0x88>
    800035c4:	08048413          	addi	s0,s1,128
    800035c8:	85a2                	mv	a1,s0
    800035ca:	8526                	mv	a0,s1
    800035cc:	8a7ff0ef          	jal	ra,80002e72 <_ZSt16__insertion_sortIPlN9__gnu_cxx5__ops15_Iter_less_iterEEvT_S4_T0_.isra.0>
    800035d0:	02890463          	beq	s2,s0,800035f8 <_mlir_ciface_stdSortI64+0x7c>
    800035d4:	6014                	ld	a3,0(s0)
    800035d6:	ff843703          	ld	a4,-8(s0)
    800035da:	ff840793          	addi	a5,s0,-8
    800035de:	02e6db63          	bge	a3,a4,80003614 <_mlir_ciface_stdSortI64+0x98>
    800035e2:	e798                	sd	a4,8(a5)
    800035e4:	ff87b703          	ld	a4,-8(a5)
    800035e8:	863e                	mv	a2,a5
    800035ea:	17e1                	addi	a5,a5,-8
    800035ec:	fee6cbe3          	blt	a3,a4,800035e2 <_mlir_ciface_stdSortI64+0x66>
    800035f0:	e214                	sd	a3,0(a2)
    800035f2:	0421                	addi	s0,s0,8
    800035f4:	fe8910e3          	bne	s2,s0,800035d4 <_mlir_ciface_stdSortI64+0x58>
    800035f8:	60e2                	ld	ra,24(sp)
    800035fa:	6442                	ld	s0,16(sp)
    800035fc:	64a2                	ld	s1,8(sp)
    800035fe:	6902                	ld	s2,0(sp)
    80003600:	6105                	addi	sp,sp,32
    80003602:	8082                	ret
    80003604:	6442                	ld	s0,16(sp)
    80003606:	60e2                	ld	ra,24(sp)
    80003608:	85ca                	mv	a1,s2
    8000360a:	8526                	mv	a0,s1
    8000360c:	6902                	ld	s2,0(sp)
    8000360e:	64a2                	ld	s1,8(sp)
    80003610:	6105                	addi	sp,sp,32
    80003612:	b085                	j	80002e72 <_ZSt16__insertion_sortIPlN9__gnu_cxx5__ops15_Iter_less_iterEEvT_S4_T0_.isra.0>
    80003614:	8622                	mv	a2,s0
    80003616:	e214                	sd	a3,0(a2)
    80003618:	0421                	addi	s0,s0,8
    8000361a:	fa891de3          	bne	s2,s0,800035d4 <_mlir_ciface_stdSortI64+0x58>
    8000361e:	bfe9                	j	800035f8 <_mlir_ciface_stdSortI64+0x7c>
    80003620:	0000a697          	auipc	a3,0xa
    80003624:	38868693          	addi	a3,a3,904 # 8000d9a8 <_conv_stat+0x34a>
    80003628:	0000a617          	auipc	a2,0xa
    8000362c:	2e860613          	addi	a2,a2,744 # 8000d910 <_conv_stat+0x2b2>
    80003630:	0b900593          	li	a1,185
    80003634:	0000a517          	auipc	a0,0xa
    80003638:	32450513          	addi	a0,a0,804 # 8000d958 <_conv_stat+0x2fa>
    8000363c:	51f010ef          	jal	ra,8000535a <__assert_func>
    80003640:	0000a697          	auipc	a3,0xa
    80003644:	2c868693          	addi	a3,a3,712 # 8000d908 <_conv_stat+0x2aa>
    80003648:	0000a617          	auipc	a2,0xa
    8000364c:	2c860613          	addi	a2,a2,712 # 8000d910 <_conv_stat+0x2b2>
    80003650:	0b900593          	li	a1,185
    80003654:	0000a517          	auipc	a0,0xa
    80003658:	30450513          	addi	a0,a0,772 # 8000d958 <_conv_stat+0x2fa>
    8000365c:	4ff010ef          	jal	ra,8000535a <__assert_func>

0000000080003660 <_mlir_ciface_stdSortF64>:
    80003660:	1101                	addi	sp,sp,-32
    80003662:	ec06                	sd	ra,24(sp)
    80003664:	e822                	sd	s0,16(sp)
    80003666:	e426                	sd	s1,8(sp)
    80003668:	e04a                	sd	s2,0(sp)
    8000366a:	c1e1                	beqz	a1,8000372a <_mlir_ciface_stdSortF64+0xca>
    8000366c:	7198                	ld	a4,32(a1)
    8000366e:	4785                	li	a5,1
    80003670:	08f71d63          	bne	a4,a5,8000370a <_mlir_ciface_stdSortF64+0xaa>
    80003674:	699c                	ld	a5,16(a1)
    80003676:	6584                	ld	s1,8(a1)
    80003678:	00351413          	slli	s0,a0,0x3
    8000367c:	078e                	slli	a5,a5,0x3
    8000367e:	94be                	add	s1,s1,a5
    80003680:	00848933          	add	s2,s1,s0
    80003684:	05248e63          	beq	s1,s2,800036e0 <_mlir_ciface_stdSortF64+0x80>
    80003688:	40345513          	srai	a0,s0,0x3
    8000368c:	320000ef          	jal	ra,800039ac <__clzdi2>
    80003690:	03f00613          	li	a2,63
    80003694:	9e09                	subw	a2,a2,a0
    80003696:	0606                	slli	a2,a2,0x1
    80003698:	85ca                	mv	a1,s2
    8000369a:	8526                	mv	a0,s1
    8000369c:	9a5ff0ef          	jal	ra,80003040 <_ZSt16__introsort_loopIPdlN9__gnu_cxx5__ops15_Iter_less_iterEEvT_S4_T0_T1_.isra.0>
    800036a0:	08000793          	li	a5,128
    800036a4:	0487d463          	bge	a5,s0,800036ec <_mlir_ciface_stdSortF64+0x8c>
    800036a8:	08048413          	addi	s0,s1,128
    800036ac:	85a2                	mv	a1,s0
    800036ae:	8526                	mv	a0,s1
    800036b0:	f48ff0ef          	jal	ra,80002df8 <_ZSt16__insertion_sortIPdN9__gnu_cxx5__ops15_Iter_less_iterEEvT_S4_T0_.isra.0>
    800036b4:	02890663          	beq	s2,s0,800036e0 <_mlir_ciface_stdSortF64+0x80>
    800036b8:	2018                	fld	fa4,0(s0)
    800036ba:	ff843787          	fld	fa5,-8(s0)
    800036be:	ff840793          	addi	a5,s0,-8
    800036c2:	a2f71753          	flt.d	a4,fa4,fa5
    800036c6:	cf05                	beqz	a4,800036fe <_mlir_ciface_stdSortF64+0x9e>
    800036c8:	a79c                	fsd	fa5,8(a5)
    800036ca:	ff87b787          	fld	fa5,-8(a5)
    800036ce:	86be                	mv	a3,a5
    800036d0:	17e1                	addi	a5,a5,-8
    800036d2:	a2f71753          	flt.d	a4,fa4,fa5
    800036d6:	fb6d                	bnez	a4,800036c8 <_mlir_ciface_stdSortF64+0x68>
    800036d8:	a298                	fsd	fa4,0(a3)
    800036da:	0421                	addi	s0,s0,8
    800036dc:	fc891ee3          	bne	s2,s0,800036b8 <_mlir_ciface_stdSortF64+0x58>
    800036e0:	60e2                	ld	ra,24(sp)
    800036e2:	6442                	ld	s0,16(sp)
    800036e4:	64a2                	ld	s1,8(sp)
    800036e6:	6902                	ld	s2,0(sp)
    800036e8:	6105                	addi	sp,sp,32
    800036ea:	8082                	ret
    800036ec:	6442                	ld	s0,16(sp)
    800036ee:	60e2                	ld	ra,24(sp)
    800036f0:	85ca                	mv	a1,s2
    800036f2:	8526                	mv	a0,s1
    800036f4:	6902                	ld	s2,0(sp)
    800036f6:	64a2                	ld	s1,8(sp)
    800036f8:	6105                	addi	sp,sp,32
    800036fa:	efeff06f          	j	80002df8 <_ZSt16__insertion_sortIPdN9__gnu_cxx5__ops15_Iter_less_iterEEvT_S4_T0_.isra.0>
    800036fe:	86a2                	mv	a3,s0
    80003700:	a298                	fsd	fa4,0(a3)
    80003702:	0421                	addi	s0,s0,8
    80003704:	fa891ae3          	bne	s2,s0,800036b8 <_mlir_ciface_stdSortF64+0x58>
    80003708:	bfe1                	j	800036e0 <_mlir_ciface_stdSortF64+0x80>
    8000370a:	0000a697          	auipc	a3,0xa
    8000370e:	29e68693          	addi	a3,a3,670 # 8000d9a8 <_conv_stat+0x34a>
    80003712:	0000a617          	auipc	a2,0xa
    80003716:	2ae60613          	addi	a2,a2,686 # 8000d9c0 <_conv_stat+0x362>
    8000371a:	0ba00593          	li	a1,186
    8000371e:	0000a517          	auipc	a0,0xa
    80003722:	23a50513          	addi	a0,a0,570 # 8000d958 <_conv_stat+0x2fa>
    80003726:	435010ef          	jal	ra,8000535a <__assert_func>
    8000372a:	0000a697          	auipc	a3,0xa
    8000372e:	1de68693          	addi	a3,a3,478 # 8000d908 <_conv_stat+0x2aa>
    80003732:	0000a617          	auipc	a2,0xa
    80003736:	28e60613          	addi	a2,a2,654 # 8000d9c0 <_conv_stat+0x362>
    8000373a:	0ba00593          	li	a1,186
    8000373e:	0000a517          	auipc	a0,0xa
    80003742:	21a50513          	addi	a0,a0,538 # 8000d958 <_conv_stat+0x2fa>
    80003746:	415010ef          	jal	ra,8000535a <__assert_func>

000000008000374a <_mlir_ciface_stdSortF32>:
    8000374a:	1101                	addi	sp,sp,-32
    8000374c:	ec06                	sd	ra,24(sp)
    8000374e:	e822                	sd	s0,16(sp)
    80003750:	e426                	sd	s1,8(sp)
    80003752:	e04a                	sd	s2,0(sp)
    80003754:	c5e1                	beqz	a1,8000381c <_mlir_ciface_stdSortF32+0xd2>
    80003756:	7198                	ld	a4,32(a1)
    80003758:	4785                	li	a5,1
    8000375a:	0af71163          	bne	a4,a5,800037fc <_mlir_ciface_stdSortF32+0xb2>
    8000375e:	699c                	ld	a5,16(a1)
    80003760:	6584                	ld	s1,8(a1)
    80003762:	00251413          	slli	s0,a0,0x2
    80003766:	078a                	slli	a5,a5,0x2
    80003768:	94be                	add	s1,s1,a5
    8000376a:	00848933          	add	s2,s1,s0
    8000376e:	07248163          	beq	s1,s2,800037d0 <_mlir_ciface_stdSortF32+0x86>
    80003772:	40245513          	srai	a0,s0,0x2
    80003776:	236000ef          	jal	ra,800039ac <__clzdi2>
    8000377a:	03f00613          	li	a2,63
    8000377e:	9e09                	subw	a2,a2,a0
    80003780:	0606                	slli	a2,a2,0x1
    80003782:	85ca                	mv	a1,s2
    80003784:	8526                	mv	a0,s1
    80003786:	f64ff0ef          	jal	ra,80002eea <_ZSt16__introsort_loopIPflN9__gnu_cxx5__ops15_Iter_less_iterEEvT_S4_T0_T1_.isra.0>
    8000378a:	04000793          	li	a5,64
    8000378e:	0487d763          	bge	a5,s0,800037dc <_mlir_ciface_stdSortF32+0x92>
    80003792:	04048413          	addi	s0,s1,64
    80003796:	85a2                	mv	a1,s0
    80003798:	8526                	mv	a0,s1
    8000379a:	ddaff0ef          	jal	ra,80002d74 <_ZSt16__insertion_sortIPfN9__gnu_cxx5__ops15_Iter_less_iterEEvT_S4_T0_.isra.0>
    8000379e:	02890963          	beq	s2,s0,800037d0 <_mlir_ciface_stdSortF32+0x86>
    800037a2:	00042707          	flw	fa4,0(s0)
    800037a6:	ffc42787          	flw	fa5,-4(s0)
    800037aa:	ffc40793          	addi	a5,s0,-4
    800037ae:	a0f71753          	flt.s	a4,fa4,fa5
    800037b2:	cf15                	beqz	a4,800037ee <_mlir_ciface_stdSortF32+0xa4>
    800037b4:	00f7a227          	fsw	fa5,4(a5)
    800037b8:	ffc7a787          	flw	fa5,-4(a5)
    800037bc:	86be                	mv	a3,a5
    800037be:	17f1                	addi	a5,a5,-4
    800037c0:	a0f71753          	flt.s	a4,fa4,fa5
    800037c4:	fb65                	bnez	a4,800037b4 <_mlir_ciface_stdSortF32+0x6a>
    800037c6:	00e6a027          	fsw	fa4,0(a3)
    800037ca:	0411                	addi	s0,s0,4
    800037cc:	fc891be3          	bne	s2,s0,800037a2 <_mlir_ciface_stdSortF32+0x58>
    800037d0:	60e2                	ld	ra,24(sp)
    800037d2:	6442                	ld	s0,16(sp)
    800037d4:	64a2                	ld	s1,8(sp)
    800037d6:	6902                	ld	s2,0(sp)
    800037d8:	6105                	addi	sp,sp,32
    800037da:	8082                	ret
    800037dc:	6442                	ld	s0,16(sp)
    800037de:	60e2                	ld	ra,24(sp)
    800037e0:	85ca                	mv	a1,s2
    800037e2:	8526                	mv	a0,s1
    800037e4:	6902                	ld	s2,0(sp)
    800037e6:	64a2                	ld	s1,8(sp)
    800037e8:	6105                	addi	sp,sp,32
    800037ea:	d8aff06f          	j	80002d74 <_ZSt16__insertion_sortIPfN9__gnu_cxx5__ops15_Iter_less_iterEEvT_S4_T0_.isra.0>
    800037ee:	86a2                	mv	a3,s0
    800037f0:	00e6a027          	fsw	fa4,0(a3)
    800037f4:	0411                	addi	s0,s0,4
    800037f6:	fa8916e3          	bne	s2,s0,800037a2 <_mlir_ciface_stdSortF32+0x58>
    800037fa:	bfd9                	j	800037d0 <_mlir_ciface_stdSortF32+0x86>
    800037fc:	0000a697          	auipc	a3,0xa
    80003800:	1ac68693          	addi	a3,a3,428 # 8000d9a8 <_conv_stat+0x34a>
    80003804:	0000a617          	auipc	a2,0xa
    80003808:	20460613          	addi	a2,a2,516 # 8000da08 <_conv_stat+0x3aa>
    8000380c:	0bb00593          	li	a1,187
    80003810:	0000a517          	auipc	a0,0xa
    80003814:	14850513          	addi	a0,a0,328 # 8000d958 <_conv_stat+0x2fa>
    80003818:	343010ef          	jal	ra,8000535a <__assert_func>
    8000381c:	0000a697          	auipc	a3,0xa
    80003820:	0ec68693          	addi	a3,a3,236 # 8000d908 <_conv_stat+0x2aa>
    80003824:	0000a617          	auipc	a2,0xa
    80003828:	1e460613          	addi	a2,a2,484 # 8000da08 <_conv_stat+0x3aa>
    8000382c:	0bb00593          	li	a1,187
    80003830:	0000a517          	auipc	a0,0xa
    80003834:	12850513          	addi	a0,a0,296 # 8000d958 <_conv_stat+0x2fa>
    80003838:	323010ef          	jal	ra,8000535a <__assert_func>

000000008000383c <_ZNSt24uniform_int_distributionImEclISt23mersenne_twister_engineIjLm32ELm624ELm397ELm31ELj2567483615ELm11ELj4294967295ELm7ELj2636928640ELm15ELj4022730752ELm18ELj1812433253EEEEmRT_RKNS0_10param_typeE.isra.0>:
    8000383c:	7179                	addi	sp,sp,-48
    8000383e:	57fd                	li	a5,-1
    80003840:	f022                	sd	s0,32(sp)
    80003842:	ec26                	sd	s1,24(sp)
    80003844:	e84a                	sd	s2,16(sp)
    80003846:	f406                	sd	ra,40(sp)
    80003848:	e44e                	sd	s3,8(sp)
    8000384a:	e052                	sd	s4,0(sp)
    8000384c:	40b60933          	sub	s2,a2,a1
    80003850:	9381                	srli	a5,a5,0x20
    80003852:	842e                	mv	s0,a1
    80003854:	84aa                	mv	s1,a0
    80003856:	04f96463          	bltu	s2,a5,8000389e <_ZNSt24uniform_int_distributionImEclISt23mersenne_twister_engineIjLm32ELm624ELm397ELm31ELj2567483615ELm11ELj4294967295ELm7ELj2636928640ELm15ELj4022730752ELm18ELj1812433253EEEEmRT_RKNS0_10param_typeE.isra.0+0x62>
    8000385a:	08f90563          	beq	s2,a5,800038e4 <_ZNSt24uniform_int_distributionImEclISt23mersenne_twister_engineIjLm32ELm624ELm397ELm31ELj2567483615ELm11ELj4294967295ELm7ELj2636928640ELm15ELj4022730752ELm18ELj1812433253EEEEmRT_RKNS0_10param_typeE.isra.0+0xa8>
    8000385e:	02095a13          	srli	s4,s2,0x20
    80003862:	8652                	mv	a2,s4
    80003864:	4581                	li	a1,0
    80003866:	8526                	mv	a0,s1
    80003868:	fd5ff0ef          	jal	ra,8000383c <_ZNSt24uniform_int_distributionImEclISt23mersenne_twister_engineIjLm32ELm624ELm397ELm31ELj2567483615ELm11ELj4294967295ELm7ELj2636928640ELm15ELj4022730752ELm18ELj1812433253EEEEmRT_RKNS0_10param_typeE.isra.0>
    8000386c:	89aa                	mv	s3,a0
    8000386e:	8526                	mv	a0,s1
    80003870:	269010ef          	jal	ra,800052d8 <_ZNSt23mersenne_twister_engineIjLm32ELm624ELm397ELm31ELj2567483615ELm11ELj4294967295ELm7ELj2636928640ELm15ELj4022730752ELm18ELj1812433253EEclEv>
    80003874:	02051713          	slli	a4,a0,0x20
    80003878:	02099693          	slli	a3,s3,0x20
    8000387c:	9301                	srli	a4,a4,0x20
    8000387e:	9736                	add	a4,a4,a3
    80003880:	853a                	mv	a0,a4
    80003882:	00d73733          	sltu	a4,a4,a3
    80003886:	fca96ee3          	bltu	s2,a0,80003862 <_ZNSt24uniform_int_distributionImEclISt23mersenne_twister_engineIjLm32ELm624ELm397ELm31ELj2567483615ELm11ELj4294967295ELm7ELj2636928640ELm15ELj4022730752ELm18ELj1812433253EEEEmRT_RKNS0_10param_typeE.isra.0+0x26>
    8000388a:	ff61                	bnez	a4,80003862 <_ZNSt24uniform_int_distributionImEclISt23mersenne_twister_engineIjLm32ELm624ELm397ELm31ELj2567483615ELm11ELj4294967295ELm7ELj2636928640ELm15ELj4022730752ELm18ELj1812433253EEEEmRT_RKNS0_10param_typeE.isra.0+0x26>
    8000388c:	70a2                	ld	ra,40(sp)
    8000388e:	9522                	add	a0,a0,s0
    80003890:	7402                	ld	s0,32(sp)
    80003892:	64e2                	ld	s1,24(sp)
    80003894:	6942                	ld	s2,16(sp)
    80003896:	69a2                	ld	s3,8(sp)
    80003898:	6a02                	ld	s4,0(sp)
    8000389a:	6145                	addi	sp,sp,48
    8000389c:	8082                	ret
    8000389e:	23b010ef          	jal	ra,800052d8 <_ZNSt23mersenne_twister_engineIjLm32ELm624ELm397ELm31ELj2567483615ELm11ELj4294967295ELm7ELj2636928640ELm15ELj4022730752ELm18ELj1812433253EEclEv>
    800038a2:	02051793          	slli	a5,a0,0x20
    800038a6:	0905                	addi	s2,s2,1
    800038a8:	9381                	srli	a5,a5,0x20
    800038aa:	032787b3          	mul	a5,a5,s2
    800038ae:	0009071b          	sext.w	a4,s2
    800038b2:	0007869b          	sext.w	a3,a5
    800038b6:	02e6f463          	bgeu	a3,a4,800038de <_ZNSt24uniform_int_distributionImEclISt23mersenne_twister_engineIjLm32ELm624ELm397ELm31ELj2567483615ELm11ELj4294967295ELm7ELj2636928640ELm15ELj4022730752ELm18ELj1812433253EEEEmRT_RKNS0_10param_typeE.isra.0+0xa2>
    800038ba:	40e009bb          	negw	s3,a4
    800038be:	02e9f9bb          	remuw	s3,s3,a4
    800038c2:	0136fe63          	bgeu	a3,s3,800038de <_ZNSt24uniform_int_distributionImEclISt23mersenne_twister_engineIjLm32ELm624ELm397ELm31ELj2567483615ELm11ELj4294967295ELm7ELj2636928640ELm15ELj4022730752ELm18ELj1812433253EEEEmRT_RKNS0_10param_typeE.isra.0+0xa2>
    800038c6:	8526                	mv	a0,s1
    800038c8:	211010ef          	jal	ra,800052d8 <_ZNSt23mersenne_twister_engineIjLm32ELm624ELm397ELm31ELj2567483615ELm11ELj4294967295ELm7ELj2636928640ELm15ELj4022730752ELm18ELj1812433253EEclEv>
    800038cc:	02051793          	slli	a5,a0,0x20
    800038d0:	9381                	srli	a5,a5,0x20
    800038d2:	032787b3          	mul	a5,a5,s2
    800038d6:	0007871b          	sext.w	a4,a5
    800038da:	ff3766e3          	bltu	a4,s3,800038c6 <_ZNSt24uniform_int_distributionImEclISt23mersenne_twister_engineIjLm32ELm624ELm397ELm31ELj2567483615ELm11ELj4294967295ELm7ELj2636928640ELm15ELj4022730752ELm18ELj1812433253EEEEmRT_RKNS0_10param_typeE.isra.0+0x8a>
    800038de:	0207d513          	srli	a0,a5,0x20
    800038e2:	b76d                	j	8000388c <_ZNSt24uniform_int_distributionImEclISt23mersenne_twister_engineIjLm32ELm624ELm397ELm31ELj2567483615ELm11ELj4294967295ELm7ELj2636928640ELm15ELj4022730752ELm18ELj1812433253EEEEmRT_RKNS0_10param_typeE.isra.0+0x50>
    800038e4:	1f5010ef          	jal	ra,800052d8 <_ZNSt23mersenne_twister_engineIjLm32ELm624ELm397ELm31ELj2567483615ELm11ELj4294967295ELm7ELj2636928640ELm15ELj4022730752ELm18ELj1812433253EEclEv>
    800038e8:	1502                	slli	a0,a0,0x20
    800038ea:	9101                	srli	a0,a0,0x20
    800038ec:	b745                	j	8000388c <_ZNSt24uniform_int_distributionImEclISt23mersenne_twister_engineIjLm32ELm624ELm397ELm31ELj2567483615ELm11ELj4294967295ELm7ELj2636928640ELm15ELj4022730752ELm18ELj1812433253EEEEmRT_RKNS0_10param_typeE.isra.0+0x50>

00000000800038ee <rtrand>:
    800038ee:	862e                	mv	a2,a1
    800038f0:	4581                	li	a1,0
    800038f2:	b7a9                	j	8000383c <_ZNSt24uniform_int_distributionImEclISt23mersenne_twister_engineIjLm32ELm624ELm397ELm31ELj2567483615ELm11ELj4294967295ELm7ELj2636928640ELm15ELj4022730752ELm18ELj1812433253EEEEmRT_RKNS0_10param_typeE.isra.0>

00000000800038f4 <__wrap_malloc>:
    800038f4:	1141                	addi	sp,sp,-16
    800038f6:	e422                	sd	s0,8(sp)
    800038f8:	0800                	addi	s0,sp,16
    800038fa:	479d                	li	a5,7
    800038fc:	4641                	li	a2,16
    800038fe:	00a7f763          	bgeu	a5,a0,8000390c <__wrap_malloc+0x18>
    80003902:	40a00633          	neg	a2,a0
    80003906:	8a1d                	andi	a2,a2,7
    80003908:	0521                	addi	a0,a0,8
    8000390a:	962a                	add	a2,a2,a0
    8000390c:	8c018593          	addi	a1,gp,-1856 # 800101a0 <__malloc_freelist>
    80003910:	619c                	ld	a5,0(a1)
    80003912:	cbc1                	beqz	a5,800039a2 <__wrap_malloc+0xae>
    80003914:	6394                	ld	a3,0(a5)
    80003916:	6798                	ld	a4,8(a5)
    80003918:	00c6fa63          	bgeu	a3,a2,8000392c <__wrap_malloc+0x38>
    8000391c:	c315                	beqz	a4,80003940 <__wrap_malloc+0x4c>
    8000391e:	00878593          	addi	a1,a5,8
    80003922:	87ba                	mv	a5,a4
    80003924:	6394                	ld	a3,0(a5)
    80003926:	6798                	ld	a4,8(a5)
    80003928:	fec6eae3          	bltu	a3,a2,8000391c <__wrap_malloc+0x28>
    8000392c:	01060513          	addi	a0,a2,16
    80003930:	02a6fe63          	bgeu	a3,a0,8000396c <__wrap_malloc+0x78>
    80003934:	6422                	ld	s0,8(sp)
    80003936:	e198                	sd	a4,0(a1)
    80003938:	00878513          	addi	a0,a5,8
    8000393c:	0141                	addi	sp,sp,16
    8000393e:	8082                	ret
    80003940:	89818813          	addi	a6,gp,-1896 # 80010178 <__malloc_end>
    80003944:	00083503          	ld	a0,0(a6)
    80003948:	00f68733          	add	a4,a3,a5
    8000394c:	02e50c63          	beq	a0,a4,80003984 <__wrap_malloc+0x90>
    80003950:	fe040793          	addi	a5,s0,-32
    80003954:	8f89                	sub	a5,a5,a0
    80003956:	02c7e363          	bltu	a5,a2,8000397c <__wrap_malloc+0x88>
    8000395a:	00c507b3          	add	a5,a0,a2
    8000395e:	00f83023          	sd	a5,0(a6)
    80003962:	6422                	ld	s0,8(sp)
    80003964:	e110                	sd	a2,0(a0)
    80003966:	0521                	addi	a0,a0,8
    80003968:	0141                	addi	sp,sp,16
    8000396a:	8082                	ret
    8000396c:	00c78533          	add	a0,a5,a2
    80003970:	e188                	sd	a0,0(a1)
    80003972:	8e91                	sub	a3,a3,a2
    80003974:	e114                	sd	a3,0(a0)
    80003976:	e518                	sd	a4,8(a0)
    80003978:	853e                	mv	a0,a5
    8000397a:	b7e5                	j	80003962 <__wrap_malloc+0x6e>
    8000397c:	6422                	ld	s0,8(sp)
    8000397e:	4501                	li	a0,0
    80003980:	0141                	addi	sp,sp,16
    80003982:	8082                	ret
    80003984:	40a40733          	sub	a4,s0,a0
    80003988:	1701                	addi	a4,a4,-32
    8000398a:	40d606b3          	sub	a3,a2,a3
    8000398e:	fed767e3          	bltu	a4,a3,8000397c <__wrap_malloc+0x88>
    80003992:	0005b023          	sd	zero,0(a1)
    80003996:	00c78733          	add	a4,a5,a2
    8000399a:	00e83023          	sd	a4,0(a6)
    8000399e:	853e                	mv	a0,a5
    800039a0:	b7c9                	j	80003962 <__wrap_malloc+0x6e>
    800039a2:	89818813          	addi	a6,gp,-1896 # 80010178 <__malloc_end>
    800039a6:	00083503          	ld	a0,0(a6)
    800039aa:	b75d                	j	80003950 <__wrap_malloc+0x5c>

00000000800039ac <__clzdi2>:
    800039ac:	03855793          	srli	a5,a0,0x38
    800039b0:	eb8d                	bnez	a5,800039e2 <__clzdi2+0x36>
    800039b2:	03800793          	li	a5,56
    800039b6:	17e1                	addi	a5,a5,-8
    800039b8:	c791                	beqz	a5,800039c4 <__clzdi2+0x18>
    800039ba:	00f55733          	srl	a4,a0,a5
    800039be:	0ff77713          	zext.b	a4,a4
    800039c2:	db75                	beqz	a4,800039b6 <__clzdi2+0xa>
    800039c4:	04000713          	li	a4,64
    800039c8:	8f1d                	sub	a4,a4,a5
    800039ca:	00f55533          	srl	a0,a0,a5
    800039ce:	0000a797          	auipc	a5,0xa
    800039d2:	53a78793          	addi	a5,a5,1338 # 8000df08 <__clz_tab>
    800039d6:	97aa                	add	a5,a5,a0
    800039d8:	0007c503          	lbu	a0,0(a5)
    800039dc:	40a7053b          	subw	a0,a4,a0
    800039e0:	8082                	ret
    800039e2:	03800793          	li	a5,56
    800039e6:	bff9                	j	800039c4 <__clzdi2+0x18>

00000000800039e8 <__eqtf2>:
    800039e8:	002027f3          	frrm	a5
    800039ec:	67a1                	lui	a5,0x8
    800039ee:	0305d813          	srli	a6,a1,0x30
    800039f2:	17fd                	addi	a5,a5,-1 # 7fff <_tbss_end+0x7fbb>
    800039f4:	5e7d                	li	t3,-1
    800039f6:	010e5713          	srli	a4,t3,0x10
    800039fa:	0306d313          	srli	t1,a3,0x30
    800039fe:	00f87833          	and	a6,a6,a5
    80003a02:	00e5f8b3          	and	a7,a1,a4
    80003a06:	00f37333          	and	t1,t1,a5
    80003a0a:	8f75                	and	a4,a4,a3
    80003a0c:	91fd                	srli	a1,a1,0x3f
    80003a0e:	92fd                	srli	a3,a3,0x3f
    80003a10:	00f81f63          	bne	a6,a5,80003a2e <__eqtf2+0x46>
    80003a14:	00a8e533          	or	a0,a7,a0
    80003a18:	e90d                	bnez	a0,80003a4a <__eqtf2+0x62>
    80003a1a:	4785                	li	a5,1
    80003a1c:	01031763          	bne	t1,a6,80003a2a <__eqtf2+0x42>
    80003a20:	8e59                	or	a2,a2,a4
    80003a22:	ea19                	bnez	a2,80003a38 <__eqtf2+0x50>
    80003a24:	8d95                	sub	a1,a1,a3
    80003a26:	00b037b3          	snez	a5,a1
    80003a2a:	853e                	mv	a0,a5
    80003a2c:	a805                	j	80003a5c <__eqtf2+0x74>
    80003a2e:	02f31863          	bne	t1,a5,80003a5e <__eqtf2+0x76>
    80003a32:	8e59                	or	a2,a2,a4
    80003a34:	4785                	li	a5,1
    80003a36:	da75                	beqz	a2,80003a2a <__eqtf2+0x42>
    80003a38:	57fd                	li	a5,-1
    80003a3a:	83c5                	srli	a5,a5,0x11
    80003a3c:	4505                	li	a0,1
    80003a3e:	00e7ef63          	bltu	a5,a4,80003a5c <__eqtf2+0x74>
    80003a42:	00186073          	csrsi	fflags,16
    80003a46:	4505                	li	a0,1
    80003a48:	8082                	ret
    80003a4a:	011e5e13          	srli	t3,t3,0x11
    80003a4e:	ff1e7ae3          	bgeu	t3,a7,80003a42 <__eqtf2+0x5a>
    80003a52:	4505                	li	a0,1
    80003a54:	01031463          	bne	t1,a6,80003a5c <__eqtf2+0x74>
    80003a58:	8e59                	or	a2,a2,a4
    80003a5a:	fe79                	bnez	a2,80003a38 <__eqtf2+0x50>
    80003a5c:	8082                	ret
    80003a5e:	4785                	li	a5,1
    80003a60:	fc6815e3          	bne	a6,t1,80003a2a <__eqtf2+0x42>
    80003a64:	fce893e3          	bne	a7,a4,80003a2a <__eqtf2+0x42>
    80003a68:	fcc511e3          	bne	a0,a2,80003a2a <__eqtf2+0x42>
    80003a6c:	00d58963          	beq	a1,a3,80003a7e <__eqtf2+0x96>
    80003a70:	fa081de3          	bnez	a6,80003a2a <__eqtf2+0x42>
    80003a74:	00a8e8b3          	or	a7,a7,a0
    80003a78:	011037b3          	snez	a5,a7
    80003a7c:	b77d                	j	80003a2a <__eqtf2+0x42>
    80003a7e:	4781                	li	a5,0
    80003a80:	b76d                	j	80003a2a <__eqtf2+0x42>

0000000080003a82 <__getf2>:
    80003a82:	832a                	mv	t1,a0
    80003a84:	002027f3          	frrm	a5
    80003a88:	6e21                	lui	t3,0x8
    80003a8a:	0305d893          	srli	a7,a1,0x30
    80003a8e:	1e7d                	addi	t3,t3,-1 # 7fff <_tbss_end+0x7fbb>
    80003a90:	577d                	li	a4,-1
    80003a92:	8341                	srli	a4,a4,0x10
    80003a94:	0306d793          	srli	a5,a3,0x30
    80003a98:	01c8f8b3          	and	a7,a7,t3
    80003a9c:	00e5f833          	and	a6,a1,a4
    80003aa0:	01c7f533          	and	a0,a5,t3
    80003aa4:	8f75                	and	a4,a4,a3
    80003aa6:	91fd                	srli	a1,a1,0x3f
    80003aa8:	92fd                	srli	a3,a3,0x3f
    80003aaa:	03c89263          	bne	a7,t3,80003ace <__getf2+0x4c>
    80003aae:	00686833          	or	a6,a6,t1
    80003ab2:	08081463          	bnez	a6,80003b3a <__getf2+0xb8>
    80003ab6:	01150663          	beq	a0,a7,80003ac2 <__getf2+0x40>
    80003aba:	4505                	li	a0,1
    80003abc:	cdb5                	beqz	a1,80003b38 <__getf2+0xb6>
    80003abe:	557d                	li	a0,-1
    80003ac0:	8082                	ret
    80003ac2:	8f51                	or	a4,a4,a2
    80003ac4:	eb3d                	bnez	a4,80003b3a <__getf2+0xb8>
    80003ac6:	fed59ae3          	bne	a1,a3,80003aba <__getf2+0x38>
    80003aca:	4501                	li	a0,0
    80003acc:	8082                	ret
    80003ace:	03c51463          	bne	a0,t3,80003af6 <__getf2+0x74>
    80003ad2:	8f51                	or	a4,a4,a2
    80003ad4:	e33d                	bnez	a4,80003b3a <__getf2+0xb8>
    80003ad6:	00088863          	beqz	a7,80003ae6 <__getf2+0x64>
    80003ada:	fed590e3          	bne	a1,a3,80003aba <__getf2+0x38>
    80003ade:	557d                	li	a0,-1
    80003ae0:	cda1                	beqz	a1,80003b38 <__getf2+0xb6>
    80003ae2:	852e                	mv	a0,a1
    80003ae4:	8082                	ret
    80003ae6:	00686833          	or	a6,a6,t1
    80003aea:	fe0818e3          	bnez	a6,80003ada <__getf2+0x58>
    80003aee:	557d                	li	a0,-1
    80003af0:	c6a1                	beqz	a3,80003b38 <__getf2+0xb6>
    80003af2:	8536                	mv	a0,a3
    80003af4:	8082                	ret
    80003af6:	02088363          	beqz	a7,80003b1c <__getf2+0x9a>
    80003afa:	d161                	beqz	a0,80003aba <__getf2+0x38>
    80003afc:	fad59fe3          	bne	a1,a3,80003aba <__getf2+0x38>
    80003b00:	fb154de3          	blt	a0,a7,80003aba <__getf2+0x38>
    80003b04:	fca8cde3          	blt	a7,a0,80003ade <__getf2+0x5c>
    80003b08:	fb0769e3          	bltu	a4,a6,80003aba <__getf2+0x38>
    80003b0c:	fce819e3          	bne	a6,a4,80003ade <__getf2+0x5c>
    80003b10:	fa6665e3          	bltu	a2,t1,80003aba <__getf2+0x38>
    80003b14:	4501                	li	a0,0
    80003b16:	02c37163          	bgeu	t1,a2,80003b38 <__getf2+0xb6>
    80003b1a:	b7d1                	j	80003ade <__getf2+0x5c>
    80003b1c:	006867b3          	or	a5,a6,t1
    80003b20:	c119                	beqz	a0,80003b26 <__getf2+0xa4>
    80003b22:	d7f1                	beqz	a5,80003aee <__getf2+0x6c>
    80003b24:	bf5d                	j	80003ada <__getf2+0x58>
    80003b26:	00c768b3          	or	a7,a4,a2
    80003b2a:	00088663          	beqz	a7,80003b36 <__getf2+0xb4>
    80003b2e:	d3e1                	beqz	a5,80003aee <__getf2+0x6c>
    80003b30:	fcd58ce3          	beq	a1,a3,80003b08 <__getf2+0x86>
    80003b34:	b759                	j	80003aba <__getf2+0x38>
    80003b36:	f3d1                	bnez	a5,80003aba <__getf2+0x38>
    80003b38:	8082                	ret
    80003b3a:	00186073          	csrsi	fflags,16
    80003b3e:	5579                	li	a0,-2
    80003b40:	8082                	ret

0000000080003b42 <__letf2>:
    80003b42:	832a                	mv	t1,a0
    80003b44:	002027f3          	frrm	a5
    80003b48:	6e21                	lui	t3,0x8
    80003b4a:	0305d893          	srli	a7,a1,0x30
    80003b4e:	1e7d                	addi	t3,t3,-1 # 7fff <_tbss_end+0x7fbb>
    80003b50:	577d                	li	a4,-1
    80003b52:	8341                	srli	a4,a4,0x10
    80003b54:	0306d793          	srli	a5,a3,0x30
    80003b58:	01c8f8b3          	and	a7,a7,t3
    80003b5c:	00e5f833          	and	a6,a1,a4
    80003b60:	01c7f533          	and	a0,a5,t3
    80003b64:	8f75                	and	a4,a4,a3
    80003b66:	91fd                	srli	a1,a1,0x3f
    80003b68:	92fd                	srli	a3,a3,0x3f
    80003b6a:	03c89263          	bne	a7,t3,80003b8e <__letf2+0x4c>
    80003b6e:	00686833          	or	a6,a6,t1
    80003b72:	08081463          	bnez	a6,80003bfa <__letf2+0xb8>
    80003b76:	01150663          	beq	a0,a7,80003b82 <__letf2+0x40>
    80003b7a:	4505                	li	a0,1
    80003b7c:	cdb5                	beqz	a1,80003bf8 <__letf2+0xb6>
    80003b7e:	557d                	li	a0,-1
    80003b80:	8082                	ret
    80003b82:	8f51                	or	a4,a4,a2
    80003b84:	eb3d                	bnez	a4,80003bfa <__letf2+0xb8>
    80003b86:	fed59ae3          	bne	a1,a3,80003b7a <__letf2+0x38>
    80003b8a:	4501                	li	a0,0
    80003b8c:	8082                	ret
    80003b8e:	03c51463          	bne	a0,t3,80003bb6 <__letf2+0x74>
    80003b92:	8f51                	or	a4,a4,a2
    80003b94:	e33d                	bnez	a4,80003bfa <__letf2+0xb8>
    80003b96:	00088863          	beqz	a7,80003ba6 <__letf2+0x64>
    80003b9a:	fed590e3          	bne	a1,a3,80003b7a <__letf2+0x38>
    80003b9e:	557d                	li	a0,-1
    80003ba0:	cda1                	beqz	a1,80003bf8 <__letf2+0xb6>
    80003ba2:	852e                	mv	a0,a1
    80003ba4:	8082                	ret
    80003ba6:	00686833          	or	a6,a6,t1
    80003baa:	fe0818e3          	bnez	a6,80003b9a <__letf2+0x58>
    80003bae:	557d                	li	a0,-1
    80003bb0:	c6a1                	beqz	a3,80003bf8 <__letf2+0xb6>
    80003bb2:	8536                	mv	a0,a3
    80003bb4:	8082                	ret
    80003bb6:	02088363          	beqz	a7,80003bdc <__letf2+0x9a>
    80003bba:	d161                	beqz	a0,80003b7a <__letf2+0x38>
    80003bbc:	fad59fe3          	bne	a1,a3,80003b7a <__letf2+0x38>
    80003bc0:	fb154de3          	blt	a0,a7,80003b7a <__letf2+0x38>
    80003bc4:	fca8cde3          	blt	a7,a0,80003b9e <__letf2+0x5c>
    80003bc8:	fb0769e3          	bltu	a4,a6,80003b7a <__letf2+0x38>
    80003bcc:	fce819e3          	bne	a6,a4,80003b9e <__letf2+0x5c>
    80003bd0:	fa6665e3          	bltu	a2,t1,80003b7a <__letf2+0x38>
    80003bd4:	4501                	li	a0,0
    80003bd6:	02c37163          	bgeu	t1,a2,80003bf8 <__letf2+0xb6>
    80003bda:	b7d1                	j	80003b9e <__letf2+0x5c>
    80003bdc:	006867b3          	or	a5,a6,t1
    80003be0:	c119                	beqz	a0,80003be6 <__letf2+0xa4>
    80003be2:	d7f1                	beqz	a5,80003bae <__letf2+0x6c>
    80003be4:	bf5d                	j	80003b9a <__letf2+0x58>
    80003be6:	00c768b3          	or	a7,a4,a2
    80003bea:	00088663          	beqz	a7,80003bf6 <__letf2+0xb4>
    80003bee:	d3e1                	beqz	a5,80003bae <__letf2+0x6c>
    80003bf0:	fcd58ce3          	beq	a1,a3,80003bc8 <__letf2+0x86>
    80003bf4:	b759                	j	80003b7a <__letf2+0x38>
    80003bf6:	f3d1                	bnez	a5,80003b7a <__letf2+0x38>
    80003bf8:	8082                	ret
    80003bfa:	00186073          	csrsi	fflags,16
    80003bfe:	4509                	li	a0,2
    80003c00:	8082                	ret

0000000080003c02 <__multf3>:
    80003c02:	711d                	addi	sp,sp,-96
    80003c04:	e8a2                	sd	s0,80(sp)
    80003c06:	f852                	sd	s4,48(sp)
    80003c08:	e862                	sd	s8,16(sp)
    80003c0a:	ec86                	sd	ra,88(sp)
    80003c0c:	e4a6                	sd	s1,72(sp)
    80003c0e:	e0ca                	sd	s2,64(sp)
    80003c10:	fc4e                	sd	s3,56(sp)
    80003c12:	f456                	sd	s5,40(sp)
    80003c14:	f05a                	sd	s6,32(sp)
    80003c16:	ec5e                	sd	s7,24(sp)
    80003c18:	e466                	sd	s9,8(sp)
    80003c1a:	842a                	mv	s0,a0
    80003c1c:	8c32                	mv	s8,a2
    80003c1e:	8a36                	mv	s4,a3
    80003c20:	002029f3          	frrm	s3
    80003c24:	6721                	lui	a4,0x8
    80003c26:	0305d793          	srli	a5,a1,0x30
    80003c2a:	177d                	addi	a4,a4,-1 # 7fff <_tbss_end+0x7fbb>
    80003c2c:	01059913          	slli	s2,a1,0x10
    80003c30:	8ff9                	and	a5,a5,a4
    80003c32:	2981                	sext.w	s3,s3
    80003c34:	01095913          	srli	s2,s2,0x10
    80003c38:	03f5da93          	srli	s5,a1,0x3f
    80003c3c:	c795                	beqz	a5,80003c68 <__multf3+0x66>
    80003c3e:	00078c9b          	sext.w	s9,a5
    80003c42:	08e78463          	beq	a5,a4,80003cca <__multf3+0xc8>
    80003c46:	090e                	slli	s2,s2,0x3
    80003c48:	03d55713          	srli	a4,a0,0x3d
    80003c4c:	01276733          	or	a4,a4,s2
    80003c50:	7cf1                	lui	s9,0xffffc
    80003c52:	4905                	li	s2,1
    80003c54:	194e                	slli	s2,s2,0x33
    80003c56:	0c85                	addi	s9,s9,1 # ffffffffffffc001 <_end+0xffffffff7cfeadc1>
    80003c58:	01276933          	or	s2,a4,s2
    80003c5c:	00351b13          	slli	s6,a0,0x3
    80003c60:	9cbe                	add	s9,s9,a5
    80003c62:	4b81                	li	s7,0
    80003c64:	4481                	li	s1,0
    80003c66:	a8b5                	j	80003ce2 <__multf3+0xe0>
    80003c68:	00a96b33          	or	s6,s2,a0
    80003c6c:	0e0b0b63          	beqz	s6,80003d62 <__multf3+0x160>
    80003c70:	02090e63          	beqz	s2,80003cac <__multf3+0xaa>
    80003c74:	854a                	mv	a0,s2
    80003c76:	d37ff0ef          	jal	ra,800039ac <__clzdi2>
    80003c7a:	0005071b          	sext.w	a4,a0
    80003c7e:	ff170793          	addi	a5,a4,-15
    80003c82:	03d00693          	li	a3,61
    80003c86:	0037861b          	addiw	a2,a5,3
    80003c8a:	40f687bb          	subw	a5,a3,a5
    80003c8e:	00c91933          	sll	s2,s2,a2
    80003c92:	00f457b3          	srl	a5,s0,a5
    80003c96:	0127e7b3          	or	a5,a5,s2
    80003c9a:	00c41933          	sll	s2,s0,a2
    80003c9e:	7cf1                	lui	s9,0xffffc
    80003ca0:	0cc5                	addi	s9,s9,17 # ffffffffffffc011 <_end+0xffffffff7cfeadd1>
    80003ca2:	8b4a                	mv	s6,s2
    80003ca4:	40ec8cb3          	sub	s9,s9,a4
    80003ca8:	893e                	mv	s2,a5
    80003caa:	bf65                	j	80003c62 <__multf3+0x60>
    80003cac:	d01ff0ef          	jal	ra,800039ac <__clzdi2>
    80003cb0:	0405071b          	addiw	a4,a0,64
    80003cb4:	ff170793          	addi	a5,a4,-15
    80003cb8:	03c00693          	li	a3,60
    80003cbc:	fcf6d3e3          	bge	a3,a5,80003c82 <__multf3+0x80>
    80003cc0:	fc37879b          	addiw	a5,a5,-61
    80003cc4:	00f417b3          	sll	a5,s0,a5
    80003cc8:	bfd9                	j	80003c9e <__multf3+0x9c>
    80003cca:	00a96b33          	or	s6,s2,a0
    80003cce:	080b0e63          	beqz	s6,80003d6a <__multf3+0x168>
    80003cd2:	4485                	li	s1,1
    80003cd4:	14be                	slli	s1,s1,0x2f
    80003cd6:	009934b3          	sltu	s1,s2,s1
    80003cda:	0044949b          	slliw	s1,s1,0x4
    80003cde:	8b2a                	mv	s6,a0
    80003ce0:	4b8d                	li	s7,3
    80003ce2:	65a1                	lui	a1,0x8
    80003ce4:	030a5613          	srli	a2,s4,0x30
    80003ce8:	56fd                	li	a3,-1
    80003cea:	15fd                	addi	a1,a1,-1 # 7fff <_tbss_end+0x7fbb>
    80003cec:	0106d413          	srli	s0,a3,0x10
    80003cf0:	8e6d                	and	a2,a2,a1
    80003cf2:	008a7433          	and	s0,s4,s0
    80003cf6:	87e2                	mv	a5,s8
    80003cf8:	03fa5a13          	srli	s4,s4,0x3f
    80003cfc:	ca35                	beqz	a2,80003d70 <__multf3+0x16e>
    80003cfe:	0006071b          	sext.w	a4,a2
    80003d02:	0cb60563          	beq	a2,a1,80003dcc <__multf3+0x1ca>
    80003d06:	040e                	slli	s0,s0,0x3
    80003d08:	03dc5713          	srli	a4,s8,0x3d
    80003d0c:	8f41                	or	a4,a4,s0
    80003d0e:	4405                	li	s0,1
    80003d10:	144e                	slli	s0,s0,0x33
    80003d12:	8c59                	or	s0,s0,a4
    80003d14:	7771                	lui	a4,0xffffc
    80003d16:	0705                	addi	a4,a4,1 # ffffffffffffc001 <_end+0xffffffff7cfeadc1>
    80003d18:	003c1793          	slli	a5,s8,0x3
    80003d1c:	9732                	add	a4,a4,a2
    80003d1e:	4881                	li	a7,0
    80003d20:	002b9693          	slli	a3,s7,0x2
    80003d24:	01970833          	add	a6,a4,s9
    80003d28:	0116e6b3          	or	a3,a3,a7
    80003d2c:	4729                	li	a4,10
    80003d2e:	014ac633          	xor	a2,s5,s4
    80003d32:	00180593          	addi	a1,a6,1
    80003d36:	2cd74163          	blt	a4,a3,80003ff8 <__multf3+0x3f6>
    80003d3a:	4709                	li	a4,2
    80003d3c:	0ad74a63          	blt	a4,a3,80003df0 <__multf3+0x1ee>
    80003d40:	16fd                	addi	a3,a3,-1
    80003d42:	4705                	li	a4,1
    80003d44:	0cd76563          	bltu	a4,a3,80003e0e <__multf3+0x20c>
    80003d48:	8bc6                	mv	s7,a7
    80003d4a:	4709                	li	a4,2
    80003d4c:	4ceb8063          	beq	s7,a4,8000420c <__multf3+0x60a>
    80003d50:	470d                	li	a4,3
    80003d52:	4ceb8263          	beq	s7,a4,80004216 <__multf3+0x614>
    80003d56:	4705                	li	a4,1
    80003d58:	26eb9263          	bne	s7,a4,80003fbc <__multf3+0x3ba>
    80003d5c:	4701                	li	a4,0
    80003d5e:	4501                	li	a0,0
    80003d60:	a179                	j	800041ee <__multf3+0x5ec>
    80003d62:	4901                	li	s2,0
    80003d64:	4c81                	li	s9,0
    80003d66:	4b85                	li	s7,1
    80003d68:	bdf5                	j	80003c64 <__multf3+0x62>
    80003d6a:	4901                	li	s2,0
    80003d6c:	4b89                	li	s7,2
    80003d6e:	bddd                	j	80003c64 <__multf3+0x62>
    80003d70:	008c67b3          	or	a5,s8,s0
    80003d74:	c7ad                	beqz	a5,80003dde <__multf3+0x1dc>
    80003d76:	c81d                	beqz	s0,80003dac <__multf3+0x1aa>
    80003d78:	8522                	mv	a0,s0
    80003d7a:	c33ff0ef          	jal	ra,800039ac <__clzdi2>
    80003d7e:	2501                	sext.w	a0,a0
    80003d80:	ff150793          	addi	a5,a0,-15
    80003d84:	03d00713          	li	a4,61
    80003d88:	0037861b          	addiw	a2,a5,3
    80003d8c:	40f707bb          	subw	a5,a4,a5
    80003d90:	00c41433          	sll	s0,s0,a2
    80003d94:	00fc57b3          	srl	a5,s8,a5
    80003d98:	0087e6b3          	or	a3,a5,s0
    80003d9c:	00cc1433          	sll	s0,s8,a2
    80003da0:	7771                	lui	a4,0xffffc
    80003da2:	0745                	addi	a4,a4,17 # ffffffffffffc011 <_end+0xffffffff7cfeadd1>
    80003da4:	87a2                	mv	a5,s0
    80003da6:	8f09                	sub	a4,a4,a0
    80003da8:	8436                	mv	s0,a3
    80003daa:	bf95                	j	80003d1e <__multf3+0x11c>
    80003dac:	8562                	mv	a0,s8
    80003dae:	bffff0ef          	jal	ra,800039ac <__clzdi2>
    80003db2:	0405051b          	addiw	a0,a0,64
    80003db6:	ff150793          	addi	a5,a0,-15
    80003dba:	03c00713          	li	a4,60
    80003dbe:	fcf753e3          	bge	a4,a5,80003d84 <__multf3+0x182>
    80003dc2:	fc37879b          	addiw	a5,a5,-61
    80003dc6:	00fc16b3          	sll	a3,s8,a5
    80003dca:	bfd9                	j	80003da0 <__multf3+0x19e>
    80003dcc:	008c6633          	or	a2,s8,s0
    80003dd0:	ce01                	beqz	a2,80003de8 <__multf3+0x1e6>
    80003dd2:	82c5                	srli	a3,a3,0x11
    80003dd4:	488d                	li	a7,3
    80003dd6:	f486e5e3          	bltu	a3,s0,80003d20 <__multf3+0x11e>
    80003dda:	44c1                	li	s1,16
    80003ddc:	b791                	j	80003d20 <__multf3+0x11e>
    80003dde:	4401                	li	s0,0
    80003de0:	4781                	li	a5,0
    80003de2:	4701                	li	a4,0
    80003de4:	4885                	li	a7,1
    80003de6:	bf2d                	j	80003d20 <__multf3+0x11e>
    80003de8:	4401                	li	s0,0
    80003dea:	4781                	li	a5,0
    80003dec:	4889                	li	a7,2
    80003dee:	bf0d                	j	80003d20 <__multf3+0x11e>
    80003df0:	4705                	li	a4,1
    80003df2:	00d716b3          	sll	a3,a4,a3
    80003df6:	5306f513          	andi	a0,a3,1328
    80003dfa:	20051863          	bnez	a0,8000400a <__multf3+0x408>
    80003dfe:	2406f313          	andi	t1,a3,576
    80003e02:	3e031f63          	bnez	t1,80004200 <__multf3+0x5fe>
    80003e06:	0886f693          	andi	a3,a3,136
    80003e0a:	1e069e63          	bnez	a3,80004006 <__multf3+0x404>
    80003e0e:	56fd                	li	a3,-1
    80003e10:	9281                	srli	a3,a3,0x20
    80003e12:	00878f33          	add	t5,a5,s0
    80003e16:	020b5513          	srli	a0,s6,0x20
    80003e1a:	0207d313          	srli	t1,a5,0x20
    80003e1e:	01690fb3          	add	t6,s2,s6
    80003e22:	00ff3eb3          	sltu	t4,t5,a5
    80003e26:	00db7b33          	and	s6,s6,a3
    80003e2a:	8ff5                	and	a5,a5,a3
    80003e2c:	036782b3          	mul	t0,a5,s6
    80003e30:	012fbe33          	sltu	t3,t6,s2
    80003e34:	88f2                	mv	a7,t3
    80003e36:	8776                	mv	a4,t4
    80003e38:	02f507b3          	mul	a5,a0,a5
    80003e3c:	026506b3          	mul	a3,a0,t1
    80003e40:	0202d513          	srli	a0,t0,0x20
    80003e44:	03630333          	mul	t1,t1,s6
    80003e48:	933e                	add	t1,t1,a5
    80003e4a:	951a                	add	a0,a0,t1
    80003e4c:	00f57563          	bgeu	a0,a5,80003e56 <__multf3+0x254>
    80003e50:	4785                	li	a5,1
    80003e52:	1782                	slli	a5,a5,0x20
    80003e54:	96be                	add	a3,a3,a5
    80003e56:	57fd                	li	a5,-1
    80003e58:	9381                	srli	a5,a5,0x20
    80003e5a:	02055313          	srli	t1,a0,0x20
    80003e5e:	8d7d                	and	a0,a0,a5
    80003e60:	00f2f2b3          	and	t0,t0,a5
    80003e64:	1502                	slli	a0,a0,0x20
    80003e66:	00fff3b3          	and	t2,t6,a5
    80003e6a:	9336                	add	t1,t1,a3
    80003e6c:	00ff77b3          	and	a5,t5,a5
    80003e70:	020f5693          	srli	a3,t5,0x20
    80003e74:	9516                	add	a0,a0,t0
    80003e76:	020fd293          	srli	t0,t6,0x20
    80003e7a:	02778ab3          	mul	s5,a5,t2
    80003e7e:	02f287b3          	mul	a5,t0,a5
    80003e82:	020ada13          	srli	s4,s5,0x20
    80003e86:	02d282b3          	mul	t0,t0,a3
    80003e8a:	027686b3          	mul	a3,a3,t2
    80003e8e:	96be                	add	a3,a3,a5
    80003e90:	9a36                	add	s4,s4,a3
    80003e92:	00fa7563          	bgeu	s4,a5,80003e9c <__multf3+0x29a>
    80003e96:	4785                	li	a5,1
    80003e98:	1782                	slli	a5,a5,0x20
    80003e9a:	92be                	add	t0,t0,a5
    80003e9c:	57fd                	li	a5,-1
    80003e9e:	9381                	srli	a5,a5,0x20
    80003ea0:	020a5393          	srli	t2,s4,0x20
    80003ea4:	00fa7a33          	and	s4,s4,a5
    80003ea8:	00fafab3          	and	s5,s5,a5
    80003eac:	1a02                	slli	s4,s4,0x20
    80003eae:	02045693          	srli	a3,s0,0x20
    80003eb2:	9a56                	add	s4,s4,s5
    80003eb4:	02095a93          	srli	s5,s2,0x20
    80003eb8:	00f97933          	and	s2,s2,a5
    80003ebc:	8fe1                	and	a5,a5,s0
    80003ebe:	02f90b33          	mul	s6,s2,a5
    80003ec2:	02fa87b3          	mul	a5,s5,a5
    80003ec6:	020b5413          	srli	s0,s6,0x20
    80003eca:	02da8ab3          	mul	s5,s5,a3
    80003ece:	032686b3          	mul	a3,a3,s2
    80003ed2:	96be                	add	a3,a3,a5
    80003ed4:	9436                	add	s0,s0,a3
    80003ed6:	00f47563          	bgeu	s0,a5,80003ee0 <__multf3+0x2de>
    80003eda:	4785                	li	a5,1
    80003edc:	1782                	slli	a5,a5,0x20
    80003ede:	9abe                	add	s5,s5,a5
    80003ee0:	597d                	li	s2,-1
    80003ee2:	02095913          	srli	s2,s2,0x20
    80003ee6:	02045693          	srli	a3,s0,0x20
    80003eea:	012477b3          	and	a5,s0,s2
    80003eee:	40e00733          	neg	a4,a4
    80003ef2:	006a0433          	add	s0,s4,t1
    80003ef6:	01f77733          	and	a4,a4,t6
    80003efa:	411008b3          	neg	a7,a7
    80003efe:	01443fb3          	sltu	t6,s0,s4
    80003f02:	01e8f8b3          	and	a7,a7,t5
    80003f06:	01f38f33          	add	t5,t2,t6
    80003f0a:	9f16                	add	t5,t5,t0
    80003f0c:	01de7e33          	and	t3,t3,t4
    80003f10:	01ff3fb3          	sltu	t6,t5,t6
    80003f14:	977a                	add	a4,a4,t5
    80003f16:	9ff2                	add	t6,t6,t3
    80003f18:	01e73f33          	sltu	t5,a4,t5
    80003f1c:	9746                	add	a4,a4,a7
    80003f1e:	9f7e                	add	t5,t5,t6
    80003f20:	011738b3          	sltu	a7,a4,a7
    80003f24:	40a40eb3          	sub	t4,s0,a0
    80003f28:	40670e33          	sub	t3,a4,t1
    80003f2c:	1782                	slli	a5,a5,0x20
    80003f2e:	012b7b33          	and	s6,s6,s2
    80003f32:	98fa                	add	a7,a7,t5
    80003f34:	01d43f33          	sltu	t5,s0,t4
    80003f38:	01c73fb3          	sltu	t6,a4,t3
    80003f3c:	96d6                	add	a3,a3,s5
    80003f3e:	41ee0e33          	sub	t3,t3,t5
    80003f42:	97da                	add	a5,a5,s6
    80003f44:	4f01                	li	t5,0
    80003f46:	01d47663          	bgeu	s0,t4,80003f52 <__multf3+0x350>
    80003f4a:	40e30333          	sub	t1,t1,a4
    80003f4e:	00133f13          	seqz	t5,t1
    80003f52:	01ff6f33          	or	t5,t5,t6
    80003f56:	40fe8fb3          	sub	t6,t4,a5
    80003f5a:	98b6                	add	a7,a7,a3
    80003f5c:	01feb733          	sltu	a4,t4,t6
    80003f60:	40de06b3          	sub	a3,t3,a3
    80003f64:	00de3e33          	sltu	t3,t3,a3
    80003f68:	40e78733          	sub	a4,a5,a4
    80003f6c:	4301                	li	t1,0
    80003f6e:	01fef463          	bgeu	t4,t6,80003f76 <__multf3+0x374>
    80003f72:	0016b313          	seqz	t1,a3
    80003f76:	96ba                	add	a3,a3,a4
    80003f78:	00f6b733          	sltu	a4,a3,a5
    80003f7c:	9746                	add	a4,a4,a7
    80003f7e:	41e70733          	sub	a4,a4,t5
    80003f82:	01c36333          	or	t1,t1,t3
    80003f86:	40670733          	sub	a4,a4,t1
    80003f8a:	00df9793          	slli	a5,t6,0xd
    80003f8e:	0736                	slli	a4,a4,0xd
    80003f90:	0336d413          	srli	s0,a3,0x33
    80003f94:	8fc9                	or	a5,a5,a0
    80003f96:	8c59                	or	s0,s0,a4
    80003f98:	00f037b3          	snez	a5,a5
    80003f9c:	033fd513          	srli	a0,t6,0x33
    80003fa0:	9351                	srli	a4,a4,0x34
    80003fa2:	8fc9                	or	a5,a5,a0
    80003fa4:	06b6                	slli	a3,a3,0xd
    80003fa6:	8b05                	andi	a4,a4,1
    80003fa8:	8fd5                	or	a5,a5,a3
    80003faa:	c33d                	beqz	a4,80004010 <__multf3+0x40e>
    80003fac:	0017d713          	srli	a4,a5,0x1
    80003fb0:	8b85                	andi	a5,a5,1
    80003fb2:	8f5d                	or	a4,a4,a5
    80003fb4:	03f41793          	slli	a5,s0,0x3f
    80003fb8:	8fd9                	or	a5,a5,a4
    80003fba:	8005                	srli	s0,s0,0x1
    80003fbc:	6691                	lui	a3,0x4
    80003fbe:	16fd                	addi	a3,a3,-1 # 3fff <_tbss_end+0x3fbb>
    80003fc0:	96ae                	add	a3,a3,a1
    80003fc2:	0ed05063          	blez	a3,800040a2 <__multf3+0x4a0>
    80003fc6:	0077f713          	andi	a4,a5,7
    80003fca:	cb31                	beqz	a4,8000401e <__multf3+0x41c>
    80003fcc:	4709                	li	a4,2
    80003fce:	0014e493          	ori	s1,s1,1
    80003fd2:	04e98563          	beq	s3,a4,8000401c <__multf3+0x41a>
    80003fd6:	470d                	li	a4,3
    80003fd8:	02e98e63          	beq	s3,a4,80004014 <__multf3+0x412>
    80003fdc:	04099163          	bnez	s3,8000401e <__multf3+0x41c>
    80003fe0:	00f7f713          	andi	a4,a5,15
    80003fe4:	4511                	li	a0,4
    80003fe6:	02a70c63          	beq	a4,a0,8000401e <__multf3+0x41c>
    80003fea:	00478713          	addi	a4,a5,4
    80003fee:	00f73533          	sltu	a0,a4,a5
    80003ff2:	942a                	add	s0,s0,a0
    80003ff4:	87ba                	mv	a5,a4
    80003ff6:	a025                	j	8000401e <__multf3+0x41c>
    80003ff8:	473d                	li	a4,15
    80003ffa:	20e68e63          	beq	a3,a4,80004216 <__multf3+0x614>
    80003ffe:	472d                	li	a4,11
    80004000:	8656                	mv	a2,s5
    80004002:	00e69463          	bne	a3,a4,8000400a <__multf3+0x408>
    80004006:	8652                	mv	a2,s4
    80004008:	b381                	j	80003d48 <__multf3+0x146>
    8000400a:	844a                	mv	s0,s2
    8000400c:	87da                	mv	a5,s6
    8000400e:	bb35                	j	80003d4a <__multf3+0x148>
    80004010:	85c2                	mv	a1,a6
    80004012:	b76d                	j	80003fbc <__multf3+0x3ba>
    80004014:	e609                	bnez	a2,8000401e <__multf3+0x41c>
    80004016:	00878713          	addi	a4,a5,8
    8000401a:	bfd1                	j	80003fee <__multf3+0x3ec>
    8000401c:	fe6d                	bnez	a2,80004016 <__multf3+0x414>
    8000401e:	03445713          	srli	a4,s0,0x34
    80004022:	8b05                	andi	a4,a4,1
    80004024:	c719                	beqz	a4,80004032 <__multf3+0x430>
    80004026:	577d                	li	a4,-1
    80004028:	1752                	slli	a4,a4,0x34
    8000402a:	177d                	addi	a4,a4,-1
    8000402c:	6691                	lui	a3,0x4
    8000402e:	8c79                	and	s0,s0,a4
    80004030:	96ae                	add	a3,a3,a1
    80004032:	65a1                	lui	a1,0x8
    80004034:	ffe58713          	addi	a4,a1,-2 # 7ffe <_tbss_end+0x7fba>
    80004038:	04d74063          	blt	a4,a3,80004078 <__multf3+0x476>
    8000403c:	838d                	srli	a5,a5,0x3
    8000403e:	03d41513          	slli	a0,s0,0x3d
    80004042:	8d5d                	or	a0,a0,a5
    80004044:	00345713          	srli	a4,s0,0x3
    80004048:	00f6161b          	slliw	a2,a2,0xf
    8000404c:	01071593          	slli	a1,a4,0x10
    80004050:	8ed1                	or	a3,a3,a2
    80004052:	16c2                	slli	a3,a3,0x30
    80004054:	81c1                	srli	a1,a1,0x10
    80004056:	8dd5                	or	a1,a1,a3
    80004058:	c099                	beqz	s1,8000405e <__multf3+0x45c>
    8000405a:	0014a073          	csrs	fflags,s1
    8000405e:	60e6                	ld	ra,88(sp)
    80004060:	6446                	ld	s0,80(sp)
    80004062:	64a6                	ld	s1,72(sp)
    80004064:	6906                	ld	s2,64(sp)
    80004066:	79e2                	ld	s3,56(sp)
    80004068:	7a42                	ld	s4,48(sp)
    8000406a:	7aa2                	ld	s5,40(sp)
    8000406c:	7b02                	ld	s6,32(sp)
    8000406e:	6be2                	ld	s7,24(sp)
    80004070:	6c42                	ld	s8,16(sp)
    80004072:	6ca2                	ld	s9,8(sp)
    80004074:	6125                	addi	sp,sp,96
    80004076:	8082                	ret
    80004078:	4789                	li	a5,2
    8000407a:	02f98263          	beq	s3,a5,8000409e <__multf3+0x49c>
    8000407e:	478d                	li	a5,3
    80004080:	00f98763          	beq	s3,a5,8000408e <__multf3+0x48c>
    80004084:	00098663          	beqz	s3,80004090 <__multf3+0x48e>
    80004088:	557d                	li	a0,-1
    8000408a:	86ba                	mv	a3,a4
    8000408c:	a029                	j	80004096 <__multf3+0x494>
    8000408e:	fe6d                	bnez	a2,80004088 <__multf3+0x486>
    80004090:	4501                	li	a0,0
    80004092:	fff58693          	addi	a3,a1,-1
    80004096:	0054e493          	ori	s1,s1,5
    8000409a:	872a                	mv	a4,a0
    8000409c:	b775                	j	80004048 <__multf3+0x446>
    8000409e:	d66d                	beqz	a2,80004088 <__multf3+0x486>
    800040a0:	bfc5                	j	80004090 <__multf3+0x48e>
    800040a2:	e2c5                	bnez	a3,80004142 <__multf3+0x540>
    800040a4:	0077f693          	andi	a3,a5,7
    800040a8:	8722                	mv	a4,s0
    800040aa:	ce8d                	beqz	a3,800040e4 <__multf3+0x4e2>
    800040ac:	4689                	li	a3,2
    800040ae:	0014e493          	ori	s1,s1,1
    800040b2:	02d98863          	beq	s3,a3,800040e2 <__multf3+0x4e0>
    800040b6:	468d                	li	a3,3
    800040b8:	02d98163          	beq	s3,a3,800040da <__multf3+0x4d8>
    800040bc:	02099463          	bnez	s3,800040e4 <__multf3+0x4e2>
    800040c0:	00f7f693          	andi	a3,a5,15
    800040c4:	4591                	li	a1,4
    800040c6:	00b68f63          	beq	a3,a1,800040e4 <__multf3+0x4e2>
    800040ca:	ffc7b713          	sltiu	a4,a5,-4
    800040ce:	00174713          	xori	a4,a4,1
    800040d2:	1702                	slli	a4,a4,0x20
    800040d4:	9301                	srli	a4,a4,0x20
    800040d6:	9722                	add	a4,a4,s0
    800040d8:	a031                	j	800040e4 <__multf3+0x4e2>
    800040da:	e609                	bnez	a2,800040e4 <__multf3+0x4e2>
    800040dc:	ff87b713          	sltiu	a4,a5,-8
    800040e0:	b7fd                	j	800040ce <__multf3+0x4cc>
    800040e2:	fe6d                	bnez	a2,800040dc <__multf3+0x4da>
    800040e4:	9351                	srli	a4,a4,0x34
    800040e6:	00174713          	xori	a4,a4,1
    800040ea:	00177593          	andi	a1,a4,1
    800040ee:	4705                	li	a4,1
    800040f0:	04000693          	li	a3,64
    800040f4:	9e99                	subw	a3,a3,a4
    800040f6:	00d41533          	sll	a0,s0,a3
    800040fa:	00e7d833          	srl	a6,a5,a4
    800040fe:	00d796b3          	sll	a3,a5,a3
    80004102:	01056533          	or	a0,a0,a6
    80004106:	00d036b3          	snez	a3,a3
    8000410a:	8d55                	or	a0,a0,a3
    8000410c:	00e45733          	srl	a4,s0,a4
    80004110:	00757793          	andi	a5,a0,7
    80004114:	cfbd                	beqz	a5,80004192 <__multf3+0x590>
    80004116:	4789                	li	a5,2
    80004118:	0014e493          	ori	s1,s1,1
    8000411c:	06f98a63          	beq	s3,a5,80004190 <__multf3+0x58e>
    80004120:	478d                	li	a5,3
    80004122:	06f98363          	beq	s3,a5,80004188 <__multf3+0x586>
    80004126:	06099663          	bnez	s3,80004192 <__multf3+0x590>
    8000412a:	00f57793          	andi	a5,a0,15
    8000412e:	4691                	li	a3,4
    80004130:	06d78163          	beq	a5,a3,80004192 <__multf3+0x590>
    80004134:	00450793          	addi	a5,a0,4
    80004138:	00a7b6b3          	sltu	a3,a5,a0
    8000413c:	9736                	add	a4,a4,a3
    8000413e:	853e                	mv	a0,a5
    80004140:	a889                	j	80004192 <__multf3+0x590>
    80004142:	4705                	li	a4,1
    80004144:	8f15                	sub	a4,a4,a3
    80004146:	07400693          	li	a3,116
    8000414a:	06e6cf63          	blt	a3,a4,800041c8 <__multf3+0x5c6>
    8000414e:	03f00693          	li	a3,63
    80004152:	0007059b          	sext.w	a1,a4
    80004156:	00e6c463          	blt	a3,a4,8000415e <__multf3+0x55c>
    8000415a:	4585                	li	a1,1
    8000415c:	bf51                	j	800040f0 <__multf3+0x4ee>
    8000415e:	fc05851b          	addiw	a0,a1,-64
    80004162:	04000813          	li	a6,64
    80004166:	00a45533          	srl	a0,s0,a0
    8000416a:	4681                	li	a3,0
    8000416c:	01070763          	beq	a4,a6,8000417a <__multf3+0x578>
    80004170:	08000693          	li	a3,128
    80004174:	9e8d                	subw	a3,a3,a1
    80004176:	00d416b3          	sll	a3,s0,a3
    8000417a:	8edd                	or	a3,a3,a5
    8000417c:	00d036b3          	snez	a3,a3
    80004180:	8d55                	or	a0,a0,a3
    80004182:	4585                	li	a1,1
    80004184:	4701                	li	a4,0
    80004186:	b769                	j	80004110 <__multf3+0x50e>
    80004188:	e609                	bnez	a2,80004192 <__multf3+0x590>
    8000418a:	00850793          	addi	a5,a0,8
    8000418e:	b76d                	j	80004138 <__multf3+0x536>
    80004190:	fe6d                	bnez	a2,8000418a <__multf3+0x588>
    80004192:	03375793          	srli	a5,a4,0x33
    80004196:	8b85                	andi	a5,a5,1
    80004198:	cb99                	beqz	a5,800041ae <__multf3+0x5ac>
    8000419a:	0014e493          	ori	s1,s1,1
    8000419e:	4701                	li	a4,0
    800041a0:	4501                	li	a0,0
    800041a2:	4685                	li	a3,1
    800041a4:	ea0582e3          	beqz	a1,80004048 <__multf3+0x446>
    800041a8:	0024e493          	ori	s1,s1,2
    800041ac:	bd71                	j	80004048 <__multf3+0x446>
    800041ae:	03d71793          	slli	a5,a4,0x3d
    800041b2:	810d                	srli	a0,a0,0x3
    800041b4:	8d5d                	or	a0,a0,a5
    800041b6:	830d                	srli	a4,a4,0x3
    800041b8:	4681                	li	a3,0
    800041ba:	e80587e3          	beqz	a1,80004048 <__multf3+0x446>
    800041be:	0014f793          	andi	a5,s1,1
    800041c2:	e80783e3          	beqz	a5,80004048 <__multf3+0x446>
    800041c6:	b7cd                	j	800041a8 <__multf3+0x5a6>
    800041c8:	0087e533          	or	a0,a5,s0
    800041cc:	cd11                	beqz	a0,800041e8 <__multf3+0x5e6>
    800041ce:	4789                	li	a5,2
    800041d0:	0014e493          	ori	s1,s1,1
    800041d4:	02f98363          	beq	s3,a5,800041fa <__multf3+0x5f8>
    800041d8:	478d                	li	a5,3
    800041da:	00f98c63          	beq	s3,a5,800041f2 <__multf3+0x5f0>
    800041de:	4515                	li	a0,5
    800041e0:	00098363          	beqz	s3,800041e6 <__multf3+0x5e4>
    800041e4:	4505                	li	a0,1
    800041e6:	810d                	srli	a0,a0,0x3
    800041e8:	0024e493          	ori	s1,s1,2
    800041ec:	4701                	li	a4,0
    800041ee:	4681                	li	a3,0
    800041f0:	bda1                	j	80004048 <__multf3+0x446>
    800041f2:	4505                	li	a0,1
    800041f4:	fa6d                	bnez	a2,800041e6 <__multf3+0x5e4>
    800041f6:	4525                	li	a0,9
    800041f8:	b7fd                	j	800041e6 <__multf3+0x5e4>
    800041fa:	4505                	li	a0,1
    800041fc:	d66d                	beqz	a2,800041e6 <__multf3+0x5e4>
    800041fe:	bfe5                	j	800041f6 <__multf3+0x5f4>
    80004200:	66a1                	lui	a3,0x8
    80004202:	173e                	slli	a4,a4,0x2f
    80004204:	16fd                	addi	a3,a3,-1 # 7fff <_tbss_end+0x7fbb>
    80004206:	4601                	li	a2,0
    80004208:	44c1                	li	s1,16
    8000420a:	bd3d                	j	80004048 <__multf3+0x446>
    8000420c:	66a1                	lui	a3,0x8
    8000420e:	4701                	li	a4,0
    80004210:	4501                	li	a0,0
    80004212:	16fd                	addi	a3,a3,-1 # 7fff <_tbss_end+0x7fbb>
    80004214:	bd15                	j	80004048 <__multf3+0x446>
    80004216:	4705                	li	a4,1
    80004218:	66a1                	lui	a3,0x8
    8000421a:	173e                	slli	a4,a4,0x2f
    8000421c:	4501                	li	a0,0
    8000421e:	16fd                	addi	a3,a3,-1 # 7fff <_tbss_end+0x7fbb>
    80004220:	4601                	li	a2,0
    80004222:	b51d                	j	80004048 <__multf3+0x446>

0000000080004224 <__subtf3>:
    80004224:	7179                	addi	sp,sp,-48
    80004226:	f406                	sd	ra,40(sp)
    80004228:	f022                	sd	s0,32(sp)
    8000422a:	ec26                	sd	s1,24(sp)
    8000422c:	e84a                	sd	s2,16(sp)
    8000422e:	e44e                	sd	s3,8(sp)
    80004230:	e052                	sd	s4,0(sp)
    80004232:	00202973          	frrm	s2
    80004236:	537d                	li	t1,-1
    80004238:	01035313          	srli	t1,t1,0x10
    8000423c:	0305d413          	srli	s0,a1,0x30
    80004240:	68a1                	lui	a7,0x8
    80004242:	03f5d493          	srli	s1,a1,0x3f
    80004246:	0065f5b3          	and	a1,a1,t1
    8000424a:	00359793          	slli	a5,a1,0x3
    8000424e:	18fd                	addi	a7,a7,-1 # 7fff <_tbss_end+0x7fbb>
    80004250:	03d55593          	srli	a1,a0,0x3d
    80004254:	0306d713          	srli	a4,a3,0x30
    80004258:	03f6d813          	srli	a6,a3,0x3f
    8000425c:	0066f6b3          	and	a3,a3,t1
    80004260:	8ddd                	or	a1,a1,a5
    80004262:	01177733          	and	a4,a4,a7
    80004266:	00369793          	slli	a5,a3,0x3
    8000426a:	03d65693          	srli	a3,a2,0x3d
    8000426e:	2901                	sext.w	s2,s2
    80004270:	01147433          	and	s0,s0,a7
    80004274:	050e                	slli	a0,a0,0x3
    80004276:	8edd                	or	a3,a3,a5
    80004278:	060e                	slli	a2,a2,0x3
    8000427a:	05171863          	bne	a4,a7,800042ca <__subtf3+0xa6>
    8000427e:	77e1                	lui	a5,0xffff8
    80004280:	2785                	addiw	a5,a5,1 # ffffffffffff8001 <_end+0xffffffff7cfe6dc1>
    80004282:	00c6e8b3          	or	a7,a3,a2
    80004286:	9fa1                	addw	a5,a5,s0
    80004288:	02088763          	beqz	a7,800042b6 <__subtf3+0x92>
    8000428c:	8342                	mv	t1,a6
    8000428e:	4b049363          	bne	s1,a6,80004734 <__subtf3+0x510>
    80004292:	24078d63          	beqz	a5,800044ec <__subtf3+0x2c8>
    80004296:	4a041263          	bnez	s0,8000473a <__subtf3+0x516>
    8000429a:	00a5e833          	or	a6,a1,a0
    8000429e:	1e081763          	bnez	a6,8000448c <__subtf3+0x268>
    800042a2:	65a1                	lui	a1,0x8
    800042a4:	15fd                	addi	a1,a1,-1 # 7fff <_tbss_end+0x7fbb>
    800042a6:	4781                	li	a5,0
    800042a8:	0ab71463          	bne	a4,a1,80004350 <__subtf3+0x12c>
    800042ac:	00c6e833          	or	a6,a3,a2
    800042b0:	2c080563          	beqz	a6,8000457a <__subtf3+0x356>
    800042b4:	a159                	j	8000473a <__subtf3+0x516>
    800042b6:	00184313          	xori	t1,a6,1
    800042ba:	48649763          	bne	s1,t1,80004748 <__subtf3+0x524>
    800042be:	22078763          	beqz	a5,800044ec <__subtf3+0x2c8>
    800042c2:	dc61                	beqz	s0,8000429a <__subtf3+0x76>
    800042c4:	4801                	li	a6,0
    800042c6:	4581                	li	a1,0
    800042c8:	abb5                	j	80004844 <__subtf3+0x620>
    800042ca:	00184313          	xori	t1,a6,1
    800042ce:	40e407bb          	subw	a5,s0,a4
    800042d2:	883e                	mv	a6,a5
    800042d4:	38649963          	bne	s1,t1,80004666 <__subtf3+0x442>
    800042d8:	16f05063          	blez	a5,80004438 <__subtf3+0x214>
    800042dc:	eb69                	bnez	a4,800043ae <__subtf3+0x18a>
    800042de:	00c6e7b3          	or	a5,a3,a2
    800042e2:	e791                	bnez	a5,800042ee <__subtf3+0xca>
    800042e4:	05140963          	beq	s0,a7,80004336 <__subtf3+0x112>
    800042e8:	86ae                	mv	a3,a1
    800042ea:	862a                	mv	a2,a0
    800042ec:	aca1                	j	80004544 <__subtf3+0x320>
    800042ee:	fff8079b          	addiw	a5,a6,-1
    800042f2:	e3a1                	bnez	a5,80004332 <__subtf3+0x10e>
    800042f4:	962a                	add	a2,a2,a0
    800042f6:	96ae                	add	a3,a3,a1
    800042f8:	00a63533          	sltu	a0,a2,a0
    800042fc:	96aa                	add	a3,a3,a0
    800042fe:	8722                	mv	a4,s0
    80004300:	0336d793          	srli	a5,a3,0x33
    80004304:	8b85                	andi	a5,a5,1
    80004306:	22078763          	beqz	a5,80004534 <__subtf3+0x310>
    8000430a:	67a1                	lui	a5,0x8
    8000430c:	0705                	addi	a4,a4,1
    8000430e:	fff78593          	addi	a1,a5,-1 # 7fff <_tbss_end+0x7fbb>
    80004312:	32b70363          	beq	a4,a1,80004638 <__subtf3+0x414>
    80004316:	57fd                	li	a5,-1
    80004318:	17ce                	slli	a5,a5,0x33
    8000431a:	17fd                	addi	a5,a5,-1
    8000431c:	8ff5                	and	a5,a5,a3
    8000431e:	00165693          	srli	a3,a2,0x1
    80004322:	8a05                	andi	a2,a2,1
    80004324:	8ed1                	or	a3,a3,a2
    80004326:	03f79613          	slli	a2,a5,0x3f
    8000432a:	8e55                	or	a2,a2,a3
    8000432c:	0017d693          	srli	a3,a5,0x1
    80004330:	a411                	j	80004534 <__subtf3+0x310>
    80004332:	0d141563          	bne	s0,a7,800043fc <__subtf3+0x1d8>
    80004336:	00a5e833          	or	a6,a1,a0
    8000433a:	7e080263          	beqz	a6,80004b1e <__subtf3+0x8fa>
    8000433e:	0325d793          	srli	a5,a1,0x32
    80004342:	0017c793          	xori	a5,a5,1
    80004346:	8b85                	andi	a5,a5,1
    80004348:	0792                	slli	a5,a5,0x4
    8000434a:	86ae                	mv	a3,a1
    8000434c:	862a                	mv	a2,a0
    8000434e:	8722                	mv	a4,s0
    80004350:	00767593          	andi	a1,a2,7
    80004354:	78059063          	bnez	a1,80004ad4 <__subtf3+0x8b0>
    80004358:	85b6                	mv	a1,a3
    8000435a:	8532                	mv	a0,a2
    8000435c:	0335d693          	srli	a3,a1,0x33
    80004360:	8a85                	andi	a3,a3,1
    80004362:	7c068163          	beqz	a3,80004b24 <__subtf3+0x900>
    80004366:	66a1                	lui	a3,0x8
    80004368:	0705                	addi	a4,a4,1
    8000436a:	fff68613          	addi	a2,a3,-1 # 7fff <_tbss_end+0x7fbb>
    8000436e:	78c70063          	beq	a4,a2,80004aee <__subtf3+0x8ca>
    80004372:	56fd                	li	a3,-1
    80004374:	16ce                	slli	a3,a3,0x33
    80004376:	16fd                	addi	a3,a3,-1
    80004378:	8df5                	and	a1,a1,a3
    8000437a:	00355693          	srli	a3,a0,0x3
    8000437e:	03d59513          	slli	a0,a1,0x3d
    80004382:	8d55                	or	a0,a0,a3
    80004384:	818d                	srli	a1,a1,0x3
    80004386:	1746                	slli	a4,a4,0x31
    80004388:	00f4949b          	slliw	s1,s1,0xf
    8000438c:	9345                	srli	a4,a4,0x31
    8000438e:	05c2                	slli	a1,a1,0x10
    80004390:	8f45                	or	a4,a4,s1
    80004392:	1742                	slli	a4,a4,0x30
    80004394:	81c1                	srli	a1,a1,0x10
    80004396:	8dd9                	or	a1,a1,a4
    80004398:	c399                	beqz	a5,8000439e <__subtf3+0x17a>
    8000439a:	0017a073          	csrs	fflags,a5
    8000439e:	70a2                	ld	ra,40(sp)
    800043a0:	7402                	ld	s0,32(sp)
    800043a2:	64e2                	ld	s1,24(sp)
    800043a4:	6942                	ld	s2,16(sp)
    800043a6:	69a2                	ld	s3,8(sp)
    800043a8:	6a02                	ld	s4,0(sp)
    800043aa:	6145                	addi	sp,sp,48
    800043ac:	8082                	ret
    800043ae:	f91404e3          	beq	s0,a7,80004336 <__subtf3+0x112>
    800043b2:	07400713          	li	a4,116
    800043b6:	04f74763          	blt	a4,a5,80004404 <__subtf3+0x1e0>
    800043ba:	4705                	li	a4,1
    800043bc:	174e                	slli	a4,a4,0x33
    800043be:	8ed9                	or	a3,a3,a4
    800043c0:	03f00713          	li	a4,63
    800043c4:	04f74363          	blt	a4,a5,8000440a <__subtf3+0x1e6>
    800043c8:	04000813          	li	a6,64
    800043cc:	40f8083b          	subw	a6,a6,a5
    800043d0:	01069733          	sll	a4,a3,a6
    800043d4:	00f658b3          	srl	a7,a2,a5
    800043d8:	01061833          	sll	a6,a2,a6
    800043dc:	01176733          	or	a4,a4,a7
    800043e0:	01003833          	snez	a6,a6
    800043e4:	01076733          	or	a4,a4,a6
    800043e8:	00f6d7b3          	srl	a5,a3,a5
    800043ec:	00a70633          	add	a2,a4,a0
    800043f0:	97ae                	add	a5,a5,a1
    800043f2:	00e63733          	sltu	a4,a2,a4
    800043f6:	00e786b3          	add	a3,a5,a4
    800043fa:	b711                	j	800042fe <__subtf3+0xda>
    800043fc:	07400713          	li	a4,116
    80004400:	fcf750e3          	bge	a4,a5,800043c0 <__subtf3+0x19c>
    80004404:	4781                	li	a5,0
    80004406:	4705                	li	a4,1
    80004408:	b7d5                	j	800043ec <__subtf3+0x1c8>
    8000440a:	fc07871b          	addiw	a4,a5,-64
    8000440e:	04000893          	li	a7,64
    80004412:	00e6d733          	srl	a4,a3,a4
    80004416:	4801                	li	a6,0
    80004418:	01178863          	beq	a5,a7,80004428 <__subtf3+0x204>
    8000441c:	08000813          	li	a6,128
    80004420:	40f8083b          	subw	a6,a6,a5
    80004424:	01069833          	sll	a6,a3,a6
    80004428:	00c86833          	or	a6,a6,a2
    8000442c:	01003833          	snez	a6,a6
    80004430:	01076733          	or	a4,a4,a6
    80004434:	4781                	li	a5,0
    80004436:	bf5d                	j	800043ec <__subtf3+0x1c8>
    80004438:	cbd5                	beqz	a5,800044ec <__subtf3+0x2c8>
    8000443a:	e60400e3          	beqz	s0,8000429a <__subtf3+0x76>
    8000443e:	f8c00893          	li	a7,-116
    80004442:	0717cb63          	blt	a5,a7,800044b8 <__subtf3+0x294>
    80004446:	4805                	li	a6,1
    80004448:	184e                	slli	a6,a6,0x33
    8000444a:	40f007bb          	negw	a5,a5
    8000444e:	0105e5b3          	or	a1,a1,a6
    80004452:	03f00813          	li	a6,63
    80004456:	06f84463          	blt	a6,a5,800044be <__subtf3+0x29a>
    8000445a:	04000893          	li	a7,64
    8000445e:	40f888bb          	subw	a7,a7,a5
    80004462:	00f55333          	srl	t1,a0,a5
    80004466:	01159833          	sll	a6,a1,a7
    8000446a:	011518b3          	sll	a7,a0,a7
    8000446e:	00686833          	or	a6,a6,t1
    80004472:	011038b3          	snez	a7,a7
    80004476:	01186533          	or	a0,a6,a7
    8000447a:	00f5d7b3          	srl	a5,a1,a5
    8000447e:	962a                	add	a2,a2,a0
    80004480:	97b6                	add	a5,a5,a3
    80004482:	00a63533          	sltu	a0,a2,a0
    80004486:	00a786b3          	add	a3,a5,a0
    8000448a:	bd9d                	j	80004300 <__subtf3+0xdc>
    8000448c:	fff7c793          	not	a5,a5
    80004490:	e799                	bnez	a5,8000449e <__subtf3+0x27a>
    80004492:	962a                	add	a2,a2,a0
    80004494:	96ae                	add	a3,a3,a1
    80004496:	00a63533          	sltu	a0,a2,a0
    8000449a:	96aa                	add	a3,a3,a0
    8000449c:	b595                	j	80004300 <__subtf3+0xdc>
    8000449e:	6821                	lui	a6,0x8
    800044a0:	187d                	addi	a6,a6,-1 # 7fff <_tbss_end+0x7fbb>
    800044a2:	01071763          	bne	a4,a6,800044b0 <__subtf3+0x28c>
    800044a6:	00c6e833          	or	a6,a3,a2
    800044aa:	e0080ee3          	beqz	a6,800042c6 <__subtf3+0xa2>
    800044ae:	a471                	j	8000473a <__subtf3+0x516>
    800044b0:	07400813          	li	a6,116
    800044b4:	f8f85fe3          	bge	a6,a5,80004452 <__subtf3+0x22e>
    800044b8:	4781                	li	a5,0
    800044ba:	4505                	li	a0,1
    800044bc:	b7c9                	j	8000447e <__subtf3+0x25a>
    800044be:	fc07881b          	addiw	a6,a5,-64
    800044c2:	04000313          	li	t1,64
    800044c6:	0105d833          	srl	a6,a1,a6
    800044ca:	4881                	li	a7,0
    800044cc:	00678863          	beq	a5,t1,800044dc <__subtf3+0x2b8>
    800044d0:	08000893          	li	a7,128
    800044d4:	40f888bb          	subw	a7,a7,a5
    800044d8:	011598b3          	sll	a7,a1,a7
    800044dc:	00a8e8b3          	or	a7,a7,a0
    800044e0:	011038b3          	snez	a7,a7
    800044e4:	01186533          	or	a0,a6,a7
    800044e8:	4781                	li	a5,0
    800044ea:	bf51                	j	8000447e <__subtf3+0x25a>
    800044ec:	68a1                	lui	a7,0x8
    800044ee:	ffe88813          	addi	a6,a7,-2 # 7ffe <_tbss_end+0x7fba>
    800044f2:	00140793          	addi	a5,s0,1
    800044f6:	0107f333          	and	t1,a5,a6
    800044fa:	18fd                	addi	a7,a7,-1
    800044fc:	0c031963          	bnez	t1,800045ce <__subtf3+0x3aa>
    80004500:	00a5e833          	or	a6,a1,a0
    80004504:	e815                	bnez	s0,80004538 <__subtf3+0x314>
    80004506:	54080063          	beqz	a6,80004a46 <__subtf3+0x822>
    8000450a:	00c6e7b3          	or	a5,a3,a2
    8000450e:	46078b63          	beqz	a5,80004984 <__subtf3+0x760>
    80004512:	962a                	add	a2,a2,a0
    80004514:	00a637b3          	sltu	a5,a2,a0
    80004518:	96ae                	add	a3,a3,a1
    8000451a:	00f685b3          	add	a1,a3,a5
    8000451e:	0335d793          	srli	a5,a1,0x33
    80004522:	8b85                	andi	a5,a5,1
    80004524:	8532                	mv	a0,a2
    80004526:	44078f63          	beqz	a5,80004984 <__subtf3+0x760>
    8000452a:	56fd                	li	a3,-1
    8000452c:	16ce                	slli	a3,a3,0x33
    8000452e:	16fd                	addi	a3,a3,-1
    80004530:	8eed                	and	a3,a3,a1
    80004532:	4705                	li	a4,1
    80004534:	4781                	li	a5,0
    80004536:	bd29                	j	80004350 <__subtf3+0x12c>
    80004538:	03141863          	bne	s0,a7,80004568 <__subtf3+0x344>
    8000453c:	00081663          	bnez	a6,80004548 <__subtf3+0x324>
    80004540:	f68703e3          	beq	a4,s0,800044a6 <__subtf3+0x282>
    80004544:	8722                	mv	a4,s0
    80004546:	b7fd                	j	80004534 <__subtf3+0x310>
    80004548:	4885                	li	a7,1
    8000454a:	18ca                	slli	a7,a7,0x32
    8000454c:	0115f7b3          	and	a5,a1,a7
    80004550:	00c6e333          	or	t1,a3,a2
    80004554:	5c078a63          	beqz	a5,80004b28 <__subtf3+0x904>
    80004558:	4781                	li	a5,0
    8000455a:	06871363          	bne	a4,s0,800045c0 <__subtf3+0x39c>
    8000455e:	02031063          	bnez	t1,8000457e <__subtf3+0x35a>
    80004562:	86ae                	mv	a3,a1
    80004564:	862a                	mv	a2,a0
    80004566:	b3ed                	j	80004350 <__subtf3+0x12c>
    80004568:	4781                	li	a5,0
    8000456a:	05171963          	bne	a4,a7,800045bc <__subtf3+0x398>
    8000456e:	00c6e8b3          	or	a7,a3,a2
    80004572:	5c089063          	bnez	a7,80004b32 <__subtf3+0x90e>
    80004576:	fe0816e3          	bnez	a6,80004562 <__subtf3+0x33e>
    8000457a:	4581                	li	a1,0
    8000457c:	a819                	j	80004592 <__subtf3+0x36e>
    8000457e:	0116f8b3          	and	a7,a3,a7
    80004582:	04088463          	beqz	a7,800045ca <__subtf3+0x3a6>
    80004586:	4585                	li	a1,1
    80004588:	6721                	lui	a4,0x8
    8000458a:	4481                	li	s1,0
    8000458c:	15ca                	slli	a1,a1,0x32
    8000458e:	4801                	li	a6,0
    80004590:	177d                	addi	a4,a4,-1 # 7fff <_tbss_end+0x7fbb>
    80004592:	66a1                	lui	a3,0x8
    80004594:	03d59513          	slli	a0,a1,0x3d
    80004598:	00385813          	srli	a6,a6,0x3
    8000459c:	16fd                	addi	a3,a3,-1 # 7fff <_tbss_end+0x7fbb>
    8000459e:	01056533          	or	a0,a0,a6
    800045a2:	818d                	srli	a1,a1,0x3
    800045a4:	ded711e3          	bne	a4,a3,80004386 <__subtf3+0x162>
    800045a8:	8d4d                	or	a0,a0,a1
    800045aa:	4581                	li	a1,0
    800045ac:	dc050de3          	beqz	a0,80004386 <__subtf3+0x162>
    800045b0:	4585                	li	a1,1
    800045b2:	15be                	slli	a1,a1,0x2f
    800045b4:	4501                	li	a0,0
    800045b6:	4481                	li	s1,0
    800045b8:	b3f9                	j	80004386 <__subtf3+0x162>
    800045ba:	47c1                	li	a5,16
    800045bc:	58080263          	beqz	a6,80004b40 <__subtf3+0x91c>
    800045c0:	8ed1                	or	a3,a3,a2
    800045c2:	f2f1                	bnez	a3,80004586 <__subtf3+0x362>
    800045c4:	86ae                	mv	a3,a1
    800045c6:	862a                	mv	a2,a0
    800045c8:	aba5                	j	80004b40 <__subtf3+0x91c>
    800045ca:	47c1                	li	a5,16
    800045cc:	bfd5                	j	800045c0 <__subtf3+0x39c>
    800045ce:	01178e63          	beq	a5,a7,800045ea <__subtf3+0x3c6>
    800045d2:	962a                	add	a2,a2,a0
    800045d4:	00a63533          	sltu	a0,a2,a0
    800045d8:	96ae                	add	a3,a3,a1
    800045da:	96aa                	add	a3,a3,a0
    800045dc:	03f69713          	slli	a4,a3,0x3f
    800045e0:	8205                	srli	a2,a2,0x1
    800045e2:	8e59                	or	a2,a2,a4
    800045e4:	8285                	srli	a3,a3,0x1
    800045e6:	873e                	mv	a4,a5
    800045e8:	b7b1                	j	80004534 <__subtf3+0x310>
    800045ea:	52090563          	beqz	s2,80004b14 <__subtf3+0x8f0>
    800045ee:	470d                	li	a4,3
    800045f0:	02e91a63          	bne	s2,a4,80004624 <__subtf3+0x400>
    800045f4:	52048063          	beqz	s1,80004b14 <__subtf3+0x8f0>
    800045f8:	4681                	li	a3,0
    800045fa:	55fd                	li	a1,-1
    800045fc:	557d                	li	a0,-1
    800045fe:	8742                	mv	a4,a6
    80004600:	4795                	li	a5,5
    80004602:	460d                	li	a2,3
    80004604:	4cc90e63          	beq	s2,a2,80004ae0 <__subtf3+0x8bc>
    80004608:	4c091d63          	bnez	s2,80004ae2 <__subtf3+0x8be>
    8000460c:	00f57613          	andi	a2,a0,15
    80004610:	4811                	li	a6,4
    80004612:	4d060863          	beq	a2,a6,80004ae2 <__subtf3+0x8be>
    80004616:	00450613          	addi	a2,a0,4
    8000461a:	00a63833          	sltu	a6,a2,a0
    8000461e:	95c2                	add	a1,a1,a6
    80004620:	8532                	mv	a0,a2
    80004622:	a1c1                	j	80004ae2 <__subtf3+0x8be>
    80004624:	4709                	li	a4,2
    80004626:	00e91463          	bne	s2,a4,8000462e <__subtf3+0x40a>
    8000462a:	4e049563          	bnez	s1,80004b14 <__subtf3+0x8f0>
    8000462e:	55fd                	li	a1,-1
    80004630:	557d                	li	a0,-1
    80004632:	8742                	mv	a4,a6
    80004634:	4795                	li	a5,5
    80004636:	b31d                	j	8000435c <__subtf3+0x138>
    80004638:	4c090f63          	beqz	s2,80004b16 <__subtf3+0x8f2>
    8000463c:	468d                	li	a3,3
    8000463e:	00d91a63          	bne	s2,a3,80004652 <__subtf3+0x42e>
    80004642:	4c048a63          	beqz	s1,80004b16 <__subtf3+0x8f2>
    80004646:	4681                	li	a3,0
    80004648:	55fd                	li	a1,-1
    8000464a:	557d                	li	a0,-1
    8000464c:	ffe78713          	addi	a4,a5,-2
    80004650:	bf45                	j	80004600 <__subtf3+0x3dc>
    80004652:	4689                	li	a3,2
    80004654:	00d91463          	bne	s2,a3,8000465c <__subtf3+0x438>
    80004658:	4a049f63          	bnez	s1,80004b16 <__subtf3+0x8f2>
    8000465c:	55fd                	li	a1,-1
    8000465e:	557d                	li	a0,-1
    80004660:	ffe78713          	addi	a4,a5,-2
    80004664:	bfc1                	j	80004634 <__subtf3+0x410>
    80004666:	10f05463          	blez	a5,8000476e <__subtf3+0x54a>
    8000466a:	e729                	bnez	a4,800046b4 <__subtf3+0x490>
    8000466c:	00c6e7b3          	or	a5,a3,a2
    80004670:	c6078ae3          	beqz	a5,800042e4 <__subtf3+0xc0>
    80004674:	fff8079b          	addiw	a5,a6,-1
    80004678:	e78d                	bnez	a5,800046a2 <__subtf3+0x47e>
    8000467a:	40c50633          	sub	a2,a0,a2
    8000467e:	40d586b3          	sub	a3,a1,a3
    80004682:	00c53533          	sltu	a0,a0,a2
    80004686:	8e89                	sub	a3,a3,a0
    80004688:	8722                	mv	a4,s0
    8000468a:	0336d793          	srli	a5,a3,0x33
    8000468e:	8b85                	andi	a5,a5,1
    80004690:	ea0782e3          	beqz	a5,80004534 <__subtf3+0x310>
    80004694:	00d69993          	slli	s3,a3,0xd
    80004698:	00d9d993          	srli	s3,s3,0xd
    8000469c:	8a32                	mv	s4,a2
    8000469e:	843a                	mv	s0,a4
    800046a0:	ac69                	j	8000493a <__subtf3+0x716>
    800046a2:	c9140ae3          	beq	s0,a7,80004336 <__subtf3+0x112>
    800046a6:	07400713          	li	a4,116
    800046aa:	00f75e63          	bge	a4,a5,800046c6 <__subtf3+0x4a2>
    800046ae:	4781                	li	a5,0
    800046b0:	4705                	li	a4,1
    800046b2:	a081                	j	800046f2 <__subtf3+0x4ce>
    800046b4:	c91401e3          	beq	s0,a7,80004336 <__subtf3+0x112>
    800046b8:	07400713          	li	a4,116
    800046bc:	fef749e3          	blt	a4,a5,800046ae <__subtf3+0x48a>
    800046c0:	4705                	li	a4,1
    800046c2:	174e                	slli	a4,a4,0x33
    800046c4:	8ed9                	or	a3,a3,a4
    800046c6:	03f00713          	li	a4,63
    800046ca:	02f74e63          	blt	a4,a5,80004706 <__subtf3+0x4e2>
    800046ce:	04000813          	li	a6,64
    800046d2:	40f8083b          	subw	a6,a6,a5
    800046d6:	01069733          	sll	a4,a3,a6
    800046da:	00f658b3          	srl	a7,a2,a5
    800046de:	01061833          	sll	a6,a2,a6
    800046e2:	01176733          	or	a4,a4,a7
    800046e6:	01003833          	snez	a6,a6
    800046ea:	01076733          	or	a4,a4,a6
    800046ee:	00f6d7b3          	srl	a5,a3,a5
    800046f2:	40e50733          	sub	a4,a0,a4
    800046f6:	40f587b3          	sub	a5,a1,a5
    800046fa:	00e536b3          	sltu	a3,a0,a4
    800046fe:	863a                	mv	a2,a4
    80004700:	40d786b3          	sub	a3,a5,a3
    80004704:	b751                	j	80004688 <__subtf3+0x464>
    80004706:	fc07871b          	addiw	a4,a5,-64
    8000470a:	04000893          	li	a7,64
    8000470e:	00e6d733          	srl	a4,a3,a4
    80004712:	4801                	li	a6,0
    80004714:	01178863          	beq	a5,a7,80004724 <__subtf3+0x500>
    80004718:	08000813          	li	a6,128
    8000471c:	40f8083b          	subw	a6,a6,a5
    80004720:	01069833          	sll	a6,a3,a6
    80004724:	00c86833          	or	a6,a6,a2
    80004728:	01003833          	snez	a6,a6
    8000472c:	01076733          	or	a4,a4,a6
    80004730:	4781                	li	a5,0
    80004732:	b7c1                	j	800046f2 <__subtf3+0x4ce>
    80004734:	c3e5                	beqz	a5,80004814 <__subtf3+0x5f0>
    80004736:	84c2                	mv	s1,a6
    80004738:	cc01                	beqz	s0,80004750 <__subtf3+0x52c>
    8000473a:	0326d793          	srli	a5,a3,0x32
    8000473e:	0017c793          	xori	a5,a5,1
    80004742:	8b85                	andi	a5,a5,1
    80004744:	0792                	slli	a5,a5,0x4
    80004746:	b129                	j	80004350 <__subtf3+0x12c>
    80004748:	c7f1                	beqz	a5,80004814 <__subtf3+0x5f0>
    8000474a:	849a                	mv	s1,t1
    8000474c:	b6041ce3          	bnez	s0,800042c4 <__subtf3+0xa0>
    80004750:	00a5e833          	or	a6,a1,a0
    80004754:	b40807e3          	beqz	a6,800042a2 <__subtf3+0x7e>
    80004758:	fff7c793          	not	a5,a5
    8000475c:	ef89                	bnez	a5,80004776 <__subtf3+0x552>
    8000475e:	40a60533          	sub	a0,a2,a0
    80004762:	00a637b3          	sltu	a5,a2,a0
    80004766:	8e8d                	sub	a3,a3,a1
    80004768:	862a                	mv	a2,a0
    8000476a:	8e9d                	sub	a3,a3,a5
    8000476c:	bf39                	j	8000468a <__subtf3+0x466>
    8000476e:	c3dd                	beqz	a5,80004814 <__subtf3+0x5f0>
    80004770:	ec11                	bnez	s0,8000478c <__subtf3+0x568>
    80004772:	849a                	mv	s1,t1
    80004774:	bff1                	j	80004750 <__subtf3+0x52c>
    80004776:	6821                	lui	a6,0x8
    80004778:	187d                	addi	a6,a6,-1 # 7fff <_tbss_end+0x7fbb>
    8000477a:	d30706e3          	beq	a4,a6,800044a6 <__subtf3+0x282>
    8000477e:	07400813          	li	a6,116
    80004782:	02f85063          	bge	a6,a5,800047a2 <__subtf3+0x57e>
    80004786:	4781                	li	a5,0
    80004788:	4505                	li	a0,1
    8000478a:	a091                	j	800047ce <__subtf3+0x5aa>
    8000478c:	f8c00893          	li	a7,-116
    80004790:	0917c063          	blt	a5,a7,80004810 <__subtf3+0x5ec>
    80004794:	4805                	li	a6,1
    80004796:	184e                	slli	a6,a6,0x33
    80004798:	40f007bb          	negw	a5,a5
    8000479c:	0105e5b3          	or	a1,a1,a6
    800047a0:	849a                	mv	s1,t1
    800047a2:	03f00813          	li	a6,63
    800047a6:	02f84e63          	blt	a6,a5,800047e2 <__subtf3+0x5be>
    800047aa:	04000893          	li	a7,64
    800047ae:	40f888bb          	subw	a7,a7,a5
    800047b2:	00f55333          	srl	t1,a0,a5
    800047b6:	01159833          	sll	a6,a1,a7
    800047ba:	011518b3          	sll	a7,a0,a7
    800047be:	00686833          	or	a6,a6,t1
    800047c2:	011038b3          	snez	a7,a7
    800047c6:	01186533          	or	a0,a6,a7
    800047ca:	00f5d7b3          	srl	a5,a1,a5
    800047ce:	40a60533          	sub	a0,a2,a0
    800047d2:	00a635b3          	sltu	a1,a2,a0
    800047d6:	40f687b3          	sub	a5,a3,a5
    800047da:	862a                	mv	a2,a0
    800047dc:	40b786b3          	sub	a3,a5,a1
    800047e0:	b56d                	j	8000468a <__subtf3+0x466>
    800047e2:	fc07881b          	addiw	a6,a5,-64
    800047e6:	04000313          	li	t1,64
    800047ea:	0105d833          	srl	a6,a1,a6
    800047ee:	4881                	li	a7,0
    800047f0:	00678863          	beq	a5,t1,80004800 <__subtf3+0x5dc>
    800047f4:	08000893          	li	a7,128
    800047f8:	40f888bb          	subw	a7,a7,a5
    800047fc:	011598b3          	sll	a7,a1,a7
    80004800:	00a8e8b3          	or	a7,a7,a0
    80004804:	011038b3          	snez	a7,a7
    80004808:	01186533          	or	a0,a6,a7
    8000480c:	4781                	li	a5,0
    8000480e:	b7c1                	j	800047ce <__subtf3+0x5aa>
    80004810:	849a                	mv	s1,t1
    80004812:	bf95                	j	80004786 <__subtf3+0x562>
    80004814:	6e21                	lui	t3,0x8
    80004816:	00140793          	addi	a5,s0,1
    8000481a:	ffee0813          	addi	a6,t3,-2 # 7ffe <_tbss_end+0x7fba>
    8000481e:	0107f7b3          	and	a5,a5,a6
    80004822:	e7f5                	bnez	a5,8000490e <__subtf3+0x6ea>
    80004824:	00c6e833          	or	a6,a3,a2
    80004828:	00a5e8b3          	or	a7,a1,a0
    8000482c:	ec29                	bnez	s0,80004886 <__subtf3+0x662>
    8000482e:	00089d63          	bnez	a7,80004848 <__subtf3+0x624>
    80004832:	20081d63          	bnez	a6,80004a4c <__subtf3+0x828>
    80004836:	ffe90493          	addi	s1,s2,-2
    8000483a:	0014b493          	seqz	s1,s1
    8000483e:	4581                	li	a1,0
    80004840:	4801                	li	a6,0
    80004842:	4701                	li	a4,0
    80004844:	4781                	li	a5,0
    80004846:	b3b1                	j	80004592 <__subtf3+0x36e>
    80004848:	12080e63          	beqz	a6,80004984 <__subtf3+0x760>
    8000484c:	40c50733          	sub	a4,a0,a2
    80004850:	00e53833          	sltu	a6,a0,a4
    80004854:	40d587b3          	sub	a5,a1,a3
    80004858:	410787b3          	sub	a5,a5,a6
    8000485c:	0337d813          	srli	a6,a5,0x33
    80004860:	00187813          	andi	a6,a6,1
    80004864:	00080b63          	beqz	a6,8000487a <__subtf3+0x656>
    80004868:	40a60533          	sub	a0,a2,a0
    8000486c:	8e8d                	sub	a3,a3,a1
    8000486e:	00a63633          	sltu	a2,a2,a0
    80004872:	40c685b3          	sub	a1,a3,a2
    80004876:	849a                	mv	s1,t1
    80004878:	a231                	j	80004984 <__subtf3+0x760>
    8000487a:	00f766b3          	or	a3,a4,a5
    8000487e:	dec5                	beqz	a3,80004836 <__subtf3+0x612>
    80004880:	85be                	mv	a1,a5
    80004882:	853a                	mv	a0,a4
    80004884:	a201                	j	80004984 <__subtf3+0x760>
    80004886:	1e7d                	addi	t3,t3,-1
    80004888:	05c41063          	bne	s0,t3,800048c8 <__subtf3+0x6a4>
    8000488c:	00089e63          	bnez	a7,800048a8 <__subtf3+0x684>
    80004890:	4781                	li	a5,0
    80004892:	06871363          	bne	a4,s0,800048f8 <__subtf3+0x6d4>
    80004896:	4585                	li	a1,1
    80004898:	15ca                	slli	a1,a1,0x32
    8000489a:	4481                	li	s1,0
    8000489c:	04080063          	beqz	a6,800048dc <__subtf3+0x6b8>
    800048a0:	8df5                	and	a1,a1,a3
    800048a2:	c5a5                	beqz	a1,8000490a <__subtf3+0x6e6>
    800048a4:	849a                	mv	s1,t1
    800048a6:	b46d                	j	80004350 <__subtf3+0x12c>
    800048a8:	4605                	li	a2,1
    800048aa:	164a                	slli	a2,a2,0x32
    800048ac:	00c5f7b3          	and	a5,a1,a2
    800048b0:	28078b63          	beqz	a5,80004b46 <__subtf3+0x922>
    800048b4:	4781                	li	a5,0
    800048b6:	2a871063          	bne	a4,s0,80004b56 <__subtf3+0x932>
    800048ba:	d00805e3          	beqz	a6,800045c4 <__subtf3+0x3a0>
    800048be:	8e75                	and	a2,a2,a3
    800048c0:	cc0613e3          	bnez	a2,80004586 <__subtf3+0x362>
    800048c4:	47c1                	li	a5,16
    800048c6:	ac41                	j	80004b56 <__subtf3+0x932>
    800048c8:	4781                	li	a5,0
    800048ca:	03c71563          	bne	a4,t3,800048f4 <__subtf3+0x6d0>
    800048ce:	00081963          	bnez	a6,800048e0 <__subtf3+0x6bc>
    800048d2:	ce0899e3          	bnez	a7,800045c4 <__subtf3+0x3a0>
    800048d6:	4585                	li	a1,1
    800048d8:	4481                	li	s1,0
    800048da:	15ca                	slli	a1,a1,0x32
    800048dc:	47c1                	li	a5,16
    800048de:	b955                	j	80004592 <__subtf3+0x36e>
    800048e0:	0326de13          	srli	t3,a3,0x32
    800048e4:	001e7e13          	andi	t3,t3,1
    800048e8:	000e0563          	beqz	t3,800048f2 <__subtf3+0x6ce>
    800048ec:	c8089de3          	bnez	a7,80004586 <__subtf3+0x362>
    800048f0:	bf55                	j	800048a4 <__subtf3+0x680>
    800048f2:	47c1                	li	a5,16
    800048f4:	26089163          	bnez	a7,80004b56 <__subtf3+0x932>
    800048f8:	849a                	mv	s1,t1
    800048fa:	24081363          	bnez	a6,80004b40 <__subtf3+0x91c>
    800048fe:	4585                	li	a1,1
    80004900:	6721                	lui	a4,0x8
    80004902:	4481                	li	s1,0
    80004904:	15ca                	slli	a1,a1,0x32
    80004906:	177d                	addi	a4,a4,-1 # 7fff <_tbss_end+0x7fbb>
    80004908:	bfd1                	j	800048dc <__subtf3+0x6b8>
    8000490a:	47c1                	li	a5,16
    8000490c:	b7f5                	j	800048f8 <__subtf3+0x6d4>
    8000490e:	40c507b3          	sub	a5,a0,a2
    80004912:	00f53733          	sltu	a4,a0,a5
    80004916:	40d589b3          	sub	s3,a1,a3
    8000491a:	40e989b3          	sub	s3,s3,a4
    8000491e:	0339d713          	srli	a4,s3,0x33
    80004922:	8b05                	andi	a4,a4,1
    80004924:	8a3e                	mv	s4,a5
    80004926:	cf45                	beqz	a4,800049de <__subtf3+0x7ba>
    80004928:	40a60a33          	sub	s4,a2,a0
    8000492c:	40b689b3          	sub	s3,a3,a1
    80004930:	01463633          	sltu	a2,a2,s4
    80004934:	40c989b3          	sub	s3,s3,a2
    80004938:	849a                	mv	s1,t1
    8000493a:	0a098663          	beqz	s3,800049e6 <__subtf3+0x7c2>
    8000493e:	854e                	mv	a0,s3
    80004940:	86cff0ef          	jal	ra,800039ac <__clzdi2>
    80004944:	ff45071b          	addiw	a4,a0,-12
    80004948:	04000693          	li	a3,64
    8000494c:	9e99                	subw	a3,a3,a4
    8000494e:	00e999b3          	sll	s3,s3,a4
    80004952:	00da56b3          	srl	a3,s4,a3
    80004956:	0136e6b3          	or	a3,a3,s3
    8000495a:	00ea19b3          	sll	s3,s4,a4
    8000495e:	0c874c63          	blt	a4,s0,80004a36 <__subtf3+0x812>
    80004962:	9f01                	subw	a4,a4,s0
    80004964:	2705                	addiw	a4,a4,1
    80004966:	04000793          	li	a5,64
    8000496a:	9f99                	subw	a5,a5,a4
    8000496c:	00f69533          	sll	a0,a3,a5
    80004970:	00e9d633          	srl	a2,s3,a4
    80004974:	00f997b3          	sll	a5,s3,a5
    80004978:	8d51                	or	a0,a0,a2
    8000497a:	00f037b3          	snez	a5,a5
    8000497e:	8d5d                	or	a0,a0,a5
    80004980:	00e6d5b3          	srl	a1,a3,a4
    80004984:	00b567b3          	or	a5,a0,a1
    80004988:	ea078be3          	beqz	a5,8000483e <__subtf3+0x61a>
    8000498c:	03f55793          	srli	a5,a0,0x3f
    80004990:	00159713          	slli	a4,a1,0x1
    80004994:	973e                	add	a4,a4,a5
    80004996:	00151793          	slli	a5,a0,0x1
    8000499a:	0077f613          	andi	a2,a5,7
    8000499e:	00757693          	andi	a3,a0,7
    800049a2:	0e060f63          	beqz	a2,80004aa0 <__subtf3+0x87c>
    800049a6:	4609                	li	a2,2
    800049a8:	0cc90763          	beq	s2,a2,80004a76 <__subtf3+0x852>
    800049ac:	4605                	li	a2,1
    800049ae:	480d                	li	a6,3
    800049b0:	1652                	slli	a2,a2,0x34
    800049b2:	0b090063          	beq	s2,a6,80004a52 <__subtf3+0x82e>
    800049b6:	08091f63          	bnez	s2,80004a54 <__subtf3+0x830>
    800049ba:	00f7f813          	andi	a6,a5,15
    800049be:	4891                	li	a7,4
    800049c0:	09180a63          	beq	a6,a7,80004a54 <__subtf3+0x830>
    800049c4:	ffc7b793          	sltiu	a5,a5,-4
    800049c8:	0017c793          	xori	a5,a5,1
    800049cc:	1782                	slli	a5,a5,0x20
    800049ce:	9381                	srli	a5,a5,0x20
    800049d0:	97ba                	add	a5,a5,a4
    800049d2:	8ff1                	and	a5,a5,a2
    800049d4:	e3e5                	bnez	a5,80004ab4 <__subtf3+0x890>
    800049d6:	c2f9                	beqz	a3,80004a9c <__subtf3+0x878>
    800049d8:	4685                	li	a3,1
    800049da:	4701                	li	a4,0
    800049dc:	a201                	j	80004adc <__subtf3+0x8b8>
    800049de:	0137e7b3          	or	a5,a5,s3
    800049e2:	ffa1                	bnez	a5,8000493a <__subtf3+0x716>
    800049e4:	bd89                	j	80004836 <__subtf3+0x612>
    800049e6:	8552                	mv	a0,s4
    800049e8:	fc5fe0ef          	jal	ra,800039ac <__clzdi2>
    800049ec:	0345071b          	addiw	a4,a0,52
    800049f0:	03f00593          	li	a1,63
    800049f4:	f4e5dae3          	bge	a1,a4,80004948 <__subtf3+0x724>
    800049f8:	ff45069b          	addiw	a3,a0,-12
    800049fc:	00da16b3          	sll	a3,s4,a3
    80004a00:	02874b63          	blt	a4,s0,80004a36 <__subtf3+0x812>
    80004a04:	408707bb          	subw	a5,a4,s0
    80004a08:	0017871b          	addiw	a4,a5,1
    80004a0c:	f4e5dde3          	bge	a1,a4,80004966 <__subtf3+0x742>
    80004a10:	fc17879b          	addiw	a5,a5,-63
    80004a14:	04000593          	li	a1,64
    80004a18:	00f6d7b3          	srl	a5,a3,a5
    80004a1c:	4501                	li	a0,0
    80004a1e:	00b70763          	beq	a4,a1,80004a2c <__subtf3+0x808>
    80004a22:	08000513          	li	a0,128
    80004a26:	9d19                	subw	a0,a0,a4
    80004a28:	00a69533          	sll	a0,a3,a0
    80004a2c:	00a03533          	snez	a0,a0
    80004a30:	8d5d                	or	a0,a0,a5
    80004a32:	4581                	li	a1,0
    80004a34:	bf81                	j	80004984 <__subtf3+0x760>
    80004a36:	57fd                	li	a5,-1
    80004a38:	17ce                	slli	a5,a5,0x33
    80004a3a:	17fd                	addi	a5,a5,-1
    80004a3c:	40e40733          	sub	a4,s0,a4
    80004a40:	8efd                	and	a3,a3,a5
    80004a42:	864e                	mv	a2,s3
    80004a44:	bcc5                	j	80004534 <__subtf3+0x310>
    80004a46:	85b6                	mv	a1,a3
    80004a48:	8532                	mv	a0,a2
    80004a4a:	bf2d                	j	80004984 <__subtf3+0x760>
    80004a4c:	85b6                	mv	a1,a3
    80004a4e:	8532                	mv	a0,a2
    80004a50:	b51d                	j	80004876 <__subtf3+0x652>
    80004a52:	c489                	beqz	s1,80004a5c <__subtf3+0x838>
    80004a54:	8f71                	and	a4,a4,a2
    80004a56:	ef39                	bnez	a4,80004ab4 <__subtf3+0x890>
    80004a58:	f2c1                	bnez	a3,800049d8 <__subtf3+0x7b4>
    80004a5a:	a821                	j	80004a72 <__subtf3+0x84e>
    80004a5c:	ff87b793          	sltiu	a5,a5,-8
    80004a60:	0017c793          	xori	a5,a5,1
    80004a64:	1782                	slli	a5,a5,0x20
    80004a66:	9381                	srli	a5,a5,0x20
    80004a68:	97ba                	add	a5,a5,a4
    80004a6a:	8ff1                	and	a5,a5,a2
    80004a6c:	e7a1                	bnez	a5,80004ab4 <__subtf3+0x890>
    80004a6e:	4701                	li	a4,0
    80004a70:	e6ad                	bnez	a3,80004ada <__subtf3+0x8b6>
    80004a72:	4785                	li	a5,1
    80004a74:	a031                	j	80004a80 <__subtf3+0x85c>
    80004a76:	e881                	bnez	s1,80004a86 <__subtf3+0x862>
    80004a78:	9351                	srli	a4,a4,0x34
    80004a7a:	8b05                	andi	a4,a4,1
    80004a7c:	4785                	li	a5,1
    80004a7e:	ef05                	bnez	a4,80004ab6 <__subtf3+0x892>
    80004a80:	0027e793          	ori	a5,a5,2
    80004a84:	b8e1                	j	8000435c <__subtf3+0x138>
    80004a86:	ff87b793          	sltiu	a5,a5,-8
    80004a8a:	0017c793          	xori	a5,a5,1
    80004a8e:	1782                	slli	a5,a5,0x20
    80004a90:	9381                	srli	a5,a5,0x20
    80004a92:	97ba                	add	a5,a5,a4
    80004a94:	93d1                	srli	a5,a5,0x34
    80004a96:	8b85                	andi	a5,a5,1
    80004a98:	ef91                	bnez	a5,80004ab4 <__subtf3+0x890>
    80004a9a:	e6b1                	bnez	a3,80004ae6 <__subtf3+0x8c2>
    80004a9c:	4701                	li	a4,0
    80004a9e:	bfd1                	j	80004a72 <__subtf3+0x84e>
    80004aa0:	9351                	srli	a4,a4,0x34
    80004aa2:	8b05                	andi	a4,a4,1
    80004aa4:	e715                	bnez	a4,80004ad0 <__subtf3+0x8ac>
    80004aa6:	4781                	li	a5,0
    80004aa8:	8a068ae3          	beqz	a3,8000435c <__subtf3+0x138>
    80004aac:	4685                	li	a3,1
    80004aae:	4701                	li	a4,0
    80004ab0:	4781                	li	a5,0
    80004ab2:	a031                	j	80004abe <__subtf3+0x89a>
    80004ab4:	4785                	li	a5,1
    80004ab6:	4701                	li	a4,0
    80004ab8:	8a0682e3          	beqz	a3,8000435c <__subtf3+0x138>
    80004abc:	4681                	li	a3,0
    80004abe:	4609                	li	a2,2
    80004ac0:	0017e793          	ori	a5,a5,1
    80004ac4:	b2c91fe3          	bne	s2,a2,80004602 <__subtf3+0x3de>
    80004ac8:	cc89                	beqz	s1,80004ae2 <__subtf3+0x8be>
    80004aca:	00850613          	addi	a2,a0,8
    80004ace:	b6b1                	j	8000461a <__subtf3+0x3f6>
    80004ad0:	4781                	li	a5,0
    80004ad2:	b7d5                	j	80004ab6 <__subtf3+0x892>
    80004ad4:	85b6                	mv	a1,a3
    80004ad6:	8532                	mv	a0,a2
    80004ad8:	b7d5                	j	80004abc <__subtf3+0x898>
    80004ada:	4685                	li	a3,1
    80004adc:	4785                	li	a5,1
    80004ade:	b615                	j	80004602 <__subtf3+0x3de>
    80004ae0:	d4ed                	beqz	s1,80004aca <__subtf3+0x8a6>
    80004ae2:	fed9                	bnez	a3,80004a80 <__subtf3+0x85c>
    80004ae4:	b8a5                	j	8000435c <__subtf3+0x138>
    80004ae6:	4685                	li	a3,1
    80004ae8:	4701                	li	a4,0
    80004aea:	4785                	li	a5,1
    80004aec:	bff1                	j	80004ac8 <__subtf3+0x8a4>
    80004aee:	4801                	li	a6,0
    80004af0:	00090663          	beqz	s2,80004afc <__subtf3+0x8d8>
    80004af4:	460d                	li	a2,3
    80004af6:	00c91763          	bne	s2,a2,80004b04 <__subtf3+0x8e0>
    80004afa:	e889                	bnez	s1,80004b0c <__subtf3+0x8e8>
    80004afc:	0057e793          	ori	a5,a5,5
    80004b00:	85c2                	mv	a1,a6
    80004b02:	bc41                	j	80004592 <__subtf3+0x36e>
    80004b04:	4609                	li	a2,2
    80004b06:	00c91363          	bne	s2,a2,80004b0c <__subtf3+0x8e8>
    80004b0a:	f8ed                	bnez	s1,80004afc <__subtf3+0x8d8>
    80004b0c:	587d                	li	a6,-1
    80004b0e:	ffe68713          	addi	a4,a3,-2
    80004b12:	b7ed                	j	80004afc <__subtf3+0x8d8>
    80004b14:	873e                	mv	a4,a5
    80004b16:	4581                	li	a1,0
    80004b18:	4801                	li	a6,0
    80004b1a:	4795                	li	a5,5
    80004b1c:	bc9d                	j	80004592 <__subtf3+0x36e>
    80004b1e:	4581                	li	a1,0
    80004b20:	8722                	mv	a4,s0
    80004b22:	b30d                	j	80004844 <__subtf3+0x620>
    80004b24:	882a                	mv	a6,a0
    80004b26:	b4b5                	j	80004592 <__subtf3+0x36e>
    80004b28:	47c1                	li	a5,16
    80004b2a:	a8871be3          	bne	a4,s0,800045c0 <__subtf3+0x39c>
    80004b2e:	a2030ae3          	beqz	t1,80004562 <__subtf3+0x33e>
    80004b32:	0326d713          	srli	a4,a3,0x32
    80004b36:	8b05                	andi	a4,a4,1
    80004b38:	a80701e3          	beqz	a4,800045ba <__subtf3+0x396>
    80004b3c:	a40815e3          	bnez	a6,80004586 <__subtf3+0x362>
    80004b40:	6721                	lui	a4,0x8
    80004b42:	177d                	addi	a4,a4,-1 # 7fff <_tbss_end+0x7fbb>
    80004b44:	b031                	j	80004350 <__subtf3+0x12c>
    80004b46:	47c1                	li	a5,16
    80004b48:	00871763          	bne	a4,s0,80004b56 <__subtf3+0x932>
    80004b4c:	a6080ce3          	beqz	a6,800045c4 <__subtf3+0x3a0>
    80004b50:	8e75                	and	a2,a2,a3
    80004b52:	a2061ae3          	bnez	a2,80004586 <__subtf3+0x362>
    80004b56:	a20818e3          	bnez	a6,80004586 <__subtf3+0x362>
    80004b5a:	b4ad                	j	800045c4 <__subtf3+0x3a0>

0000000080004b5c <__fixtfsi>:
    80004b5c:	862a                	mv	a2,a0
    80004b5e:	002027f3          	frrm	a5
    80004b62:	6811                	lui	a6,0x4
    80004b64:	00159693          	slli	a3,a1,0x1
    80004b68:	01059793          	slli	a5,a1,0x10
    80004b6c:	92c5                	srli	a3,a3,0x31
    80004b6e:	ffe80713          	addi	a4,a6,-2 # 3ffe <_tbss_end+0x3fba>
    80004b72:	83c1                	srli	a5,a5,0x10
    80004b74:	91fd                	srli	a1,a1,0x3f
    80004b76:	00d74763          	blt	a4,a3,80004b84 <__fixtfsi+0x28>
    80004b7a:	e2bd                	bnez	a3,80004be0 <__fixtfsi+0x84>
    80004b7c:	8fc9                	or	a5,a5,a0
    80004b7e:	4501                	li	a0,0
    80004b80:	efb1                	bnez	a5,80004bdc <__fixtfsi+0x80>
    80004b82:	8082                	ret
    80004b84:	01d80713          	addi	a4,a6,29
    80004b88:	02d75463          	bge	a4,a3,80004bb0 <__fixtfsi+0x54>
    80004b8c:	80000737          	lui	a4,0x80000
    80004b90:	fff74713          	not	a4,a4
    80004b94:	00b7053b          	addw	a0,a4,a1
    80004b98:	c5b1                	beqz	a1,80004be4 <__fixtfsi+0x88>
    80004b9a:	0879                	addi	a6,a6,30
    80004b9c:	4741                	li	a4,16
    80004b9e:	05069463          	bne	a3,a6,80004be6 <__fixtfsi+0x8a>
    80004ba2:	0117d693          	srli	a3,a5,0x11
    80004ba6:	e2a1                	bnez	a3,80004be6 <__fixtfsi+0x8a>
    80004ba8:	17be                	slli	a5,a5,0x2f
    80004baa:	8fd1                	or	a5,a5,a2
    80004bac:	eb85                	bnez	a5,80004bdc <__fixtfsi+0x80>
    80004bae:	8082                	ret
    80004bb0:	4705                	li	a4,1
    80004bb2:	1742                	slli	a4,a4,0x30
    80004bb4:	8fd9                	or	a5,a5,a4
    80004bb6:	6611                	lui	a2,0x4
    80004bb8:	7771                	lui	a4,0xffffc
    80004bba:	2745                	addiw	a4,a4,17 # ffffffffffffc011 <_end+0xffffffff7cfeadd1>
    80004bbc:	02f6061b          	addiw	a2,a2,47 # 402f <_tbss_end+0x3feb>
    80004bc0:	9f35                	addw	a4,a4,a3
    80004bc2:	40d606bb          	subw	a3,a2,a3
    80004bc6:	00e79733          	sll	a4,a5,a4
    80004bca:	00d7d7b3          	srl	a5,a5,a3
    80004bce:	8f49                	or	a4,a4,a0
    80004bd0:	0007851b          	sext.w	a0,a5
    80004bd4:	c199                	beqz	a1,80004bda <__fixtfsi+0x7e>
    80004bd6:	40a0053b          	negw	a0,a0
    80004bda:	cb01                	beqz	a4,80004bea <__fixtfsi+0x8e>
    80004bdc:	4705                	li	a4,1
    80004bde:	a021                	j	80004be6 <__fixtfsi+0x8a>
    80004be0:	4501                	li	a0,0
    80004be2:	bfed                	j	80004bdc <__fixtfsi+0x80>
    80004be4:	4741                	li	a4,16
    80004be6:	00172073          	csrs	fflags,a4
    80004bea:	8082                	ret

0000000080004bec <__floatsitf>:
    80004bec:	1101                	addi	sp,sp,-32
    80004bee:	ec06                	sd	ra,24(sp)
    80004bf0:	e822                	sd	s0,16(sp)
    80004bf2:	e426                	sd	s1,8(sp)
    80004bf4:	c139                	beqz	a0,80004c3a <__floatsitf+0x4e>
    80004bf6:	0005079b          	sext.w	a5,a0
    80004bfa:	03f55493          	srli	s1,a0,0x3f
    80004bfe:	00055463          	bgez	a0,80004c06 <__floatsitf+0x1a>
    80004c02:	40f007bb          	negw	a5,a5
    80004c06:	02079413          	slli	s0,a5,0x20
    80004c0a:	9001                	srli	s0,s0,0x20
    80004c0c:	8522                	mv	a0,s0
    80004c0e:	d9ffe0ef          	jal	ra,800039ac <__clzdi2>
    80004c12:	6591                	lui	a1,0x4
    80004c14:	03e5859b          	addiw	a1,a1,62 # 403e <_tbss_end+0x3ffa>
    80004c18:	9d89                	subw	a1,a1,a0
    80004c1a:	3545                	addiw	a0,a0,-15
    80004c1c:	00a417b3          	sll	a5,s0,a0
    80004c20:	60e2                	ld	ra,24(sp)
    80004c22:	6442                	ld	s0,16(sp)
    80004c24:	00f4949b          	slliw	s1,s1,0xf
    80004c28:	8dc5                	or	a1,a1,s1
    80004c2a:	07c2                	slli	a5,a5,0x10
    80004c2c:	15c2                	slli	a1,a1,0x30
    80004c2e:	83c1                	srli	a5,a5,0x10
    80004c30:	64a2                	ld	s1,8(sp)
    80004c32:	4501                	li	a0,0
    80004c34:	8ddd                	or	a1,a1,a5
    80004c36:	6105                	addi	sp,sp,32
    80004c38:	8082                	ret
    80004c3a:	4781                	li	a5,0
    80004c3c:	4581                	li	a1,0
    80004c3e:	4481                	li	s1,0
    80004c40:	b7c5                	j	80004c20 <__floatsitf+0x34>

0000000080004c42 <__extenddftf2>:
    80004c42:	1101                	addi	sp,sp,-32
    80004c44:	e20507d3          	fmv.x.d	a5,fa0
    80004c48:	ec06                	sd	ra,24(sp)
    80004c4a:	e822                	sd	s0,16(sp)
    80004c4c:	e426                	sd	s1,8(sp)
    80004c4e:	00202773          	frrm	a4
    80004c52:	0347d513          	srli	a0,a5,0x34
    80004c56:	7ff57513          	andi	a0,a0,2047
    80004c5a:	00c79413          	slli	s0,a5,0xc
    80004c5e:	03f7d493          	srli	s1,a5,0x3f
    80004c62:	00150793          	addi	a5,a0,1
    80004c66:	7fe7f793          	andi	a5,a5,2046
    80004c6a:	8031                	srli	s0,s0,0xc
    80004c6c:	cb91                	beqz	a5,80004c80 <__extenddftf2+0x3e>
    80004c6e:	6791                	lui	a5,0x4
    80004c70:	c0078793          	addi	a5,a5,-1024 # 3c00 <_tbss_end+0x3bbc>
    80004c74:	953e                	add	a0,a0,a5
    80004c76:	00445793          	srli	a5,s0,0x4
    80004c7a:	1472                	slli	s0,s0,0x3c
    80004c7c:	4701                	li	a4,0
    80004c7e:	a8b9                	j	80004cdc <__extenddftf2+0x9a>
    80004c80:	ed1d                	bnez	a0,80004cbe <__extenddftf2+0x7c>
    80004c82:	4781                	li	a5,0
    80004c84:	dc65                	beqz	s0,80004c7c <__extenddftf2+0x3a>
    80004c86:	8522                	mv	a0,s0
    80004c88:	d25fe0ef          	jal	ra,800039ac <__clzdi2>
    80004c8c:	0005071b          	sext.w	a4,a0
    80004c90:	47b9                	li	a5,14
    80004c92:	02e7c063          	blt	a5,a4,80004cb2 <__extenddftf2+0x70>
    80004c96:	47bd                	li	a5,15
    80004c98:	9f89                	subw	a5,a5,a0
    80004c9a:	0315071b          	addiw	a4,a0,49
    80004c9e:	00f457b3          	srl	a5,s0,a5
    80004ca2:	00e41433          	sll	s0,s0,a4
    80004ca6:	6711                	lui	a4,0x4
    80004ca8:	c0c7071b          	addiw	a4,a4,-1012 # 3c0c <_tbss_end+0x3bc8>
    80004cac:	40a7053b          	subw	a0,a4,a0
    80004cb0:	b7f1                	j	80004c7c <__extenddftf2+0x3a>
    80004cb2:	ff15079b          	addiw	a5,a0,-15
    80004cb6:	00f417b3          	sll	a5,s0,a5
    80004cba:	4401                	li	s0,0
    80004cbc:	b7ed                	j	80004ca6 <__extenddftf2+0x64>
    80004cbe:	c021                	beqz	s0,80004cfe <__extenddftf2+0xbc>
    80004cc0:	4685                	li	a3,1
    80004cc2:	03369713          	slli	a4,a3,0x33
    80004cc6:	00e43733          	sltu	a4,s0,a4
    80004cca:	00445793          	srli	a5,s0,0x4
    80004cce:	16be                	slli	a3,a3,0x2f
    80004cd0:	6521                	lui	a0,0x8
    80004cd2:	0047171b          	slliw	a4,a4,0x4
    80004cd6:	8fd5                	or	a5,a5,a3
    80004cd8:	1472                	slli	s0,s0,0x3c
    80004cda:	157d                	addi	a0,a0,-1 # 7fff <_tbss_end+0x7fbb>
    80004cdc:	01079593          	slli	a1,a5,0x10
    80004ce0:	00f4979b          	slliw	a5,s1,0xf
    80004ce4:	8d5d                	or	a0,a0,a5
    80004ce6:	1542                	slli	a0,a0,0x30
    80004ce8:	81c1                	srli	a1,a1,0x10
    80004cea:	8dc9                	or	a1,a1,a0
    80004cec:	c319                	beqz	a4,80004cf2 <__extenddftf2+0xb0>
    80004cee:	00186073          	csrsi	fflags,16
    80004cf2:	60e2                	ld	ra,24(sp)
    80004cf4:	8522                	mv	a0,s0
    80004cf6:	6442                	ld	s0,16(sp)
    80004cf8:	64a2                	ld	s1,8(sp)
    80004cfa:	6105                	addi	sp,sp,32
    80004cfc:	8082                	ret
    80004cfe:	6521                	lui	a0,0x8
    80004d00:	4781                	li	a5,0
    80004d02:	157d                	addi	a0,a0,-1 # 7fff <_tbss_end+0x7fbb>
    80004d04:	bfa5                	j	80004c7c <__extenddftf2+0x3a>

0000000080004d06 <__trunctfdf2>:
    80004d06:	00202873          	frrm	a6
    80004d0a:	68a1                	lui	a7,0x8
    80004d0c:	0305d713          	srli	a4,a1,0x30
    80004d10:	fff88e13          	addi	t3,a7,-1 # 7fff <_tbss_end+0x7fbb>
    80004d14:	57fd                	li	a5,-1
    80004d16:	0107d693          	srli	a3,a5,0x10
    80004d1a:	01c77733          	and	a4,a4,t3
    80004d1e:	03f5d613          	srli	a2,a1,0x3f
    80004d22:	00170313          	addi	t1,a4,1
    80004d26:	8df5                	and	a1,a1,a3
    80004d28:	18f9                	addi	a7,a7,-2
    80004d2a:	058e                	slli	a1,a1,0x3
    80004d2c:	03d55693          	srli	a3,a0,0x3d
    80004d30:	011378b3          	and	a7,t1,a7
    80004d34:	8ecd                	or	a3,a3,a1
    80004d36:	2801                	sext.w	a6,a6
    80004d38:	00351593          	slli	a1,a0,0x3
    80004d3c:	10088163          	beqz	a7,80004e3e <__trunctfdf2+0x138>
    80004d40:	78f1                	lui	a7,0xffffc
    80004d42:	40088893          	addi	a7,a7,1024 # ffffffffffffc400 <_end+0xffffffff7cfeb1c0>
    80004d46:	9746                	add	a4,a4,a7
    80004d48:	7fe00893          	li	a7,2046
    80004d4c:	02e8d463          	bge	a7,a4,80004d74 <__trunctfdf2+0x6e>
    80004d50:	20080763          	beqz	a6,80004f5e <__trunctfdf2+0x258>
    80004d54:	470d                	li	a4,3
    80004d56:	00e81863          	bne	a6,a4,80004d66 <__trunctfdf2+0x60>
    80004d5a:	22060163          	beqz	a2,80004f7c <__trunctfdf2+0x276>
    80004d5e:	7fe00713          	li	a4,2046
    80004d62:	4515                	li	a0,5
    80004d64:	a259                	j	80004eea <__trunctfdf2+0x1e4>
    80004d66:	4709                	li	a4,2
    80004d68:	00e81463          	bne	a6,a4,80004d70 <__trunctfdf2+0x6a>
    80004d6c:	20061a63          	bnez	a2,80004f80 <__trunctfdf2+0x27a>
    80004d70:	57fd                	li	a5,-1
    80004d72:	b7f5                	j	80004d5e <__trunctfdf2+0x58>
    80004d74:	0ae04763          	bgtz	a4,80004e22 <__trunctfdf2+0x11c>
    80004d78:	fcc00793          	li	a5,-52
    80004d7c:	0cf74663          	blt	a4,a5,80004e48 <__trunctfdf2+0x142>
    80004d80:	4785                	li	a5,1
    80004d82:	17ce                	slli	a5,a5,0x33
    80004d84:	03d00893          	li	a7,61
    80004d88:	8edd                	or	a3,a3,a5
    80004d8a:	40e888b3          	sub	a7,a7,a4
    80004d8e:	03f00793          	li	a5,63
    80004d92:	2701                	sext.w	a4,a4
    80004d94:	0717c563          	blt	a5,a7,80004dfe <__trunctfdf2+0xf8>
    80004d98:	03d00793          	li	a5,61
    80004d9c:	0037051b          	addiw	a0,a4,3
    80004da0:	9f99                	subw	a5,a5,a4
    80004da2:	00f5d7b3          	srl	a5,a1,a5
    80004da6:	00a595b3          	sll	a1,a1,a0
    80004daa:	00b035b3          	snez	a1,a1
    80004dae:	8fcd                	or	a5,a5,a1
    80004db0:	00a696b3          	sll	a3,a3,a0
    80004db4:	8fd5                	or	a5,a5,a3
    80004db6:	00179713          	slli	a4,a5,0x1
    80004dba:	00777693          	andi	a3,a4,7
    80004dbe:	e6d9                	bnez	a3,80004e4c <__trunctfdf2+0x146>
    80004dc0:	0077f593          	andi	a1,a5,7
    80004dc4:	4701                	li	a4,0
    80004dc6:	4685                	li	a3,1
    80004dc8:	4501                	li	a0,0
    80004dca:	c185                	beqz	a1,80004dea <__trunctfdf2+0xe4>
    80004dcc:	4589                	li	a1,2
    80004dce:	12b80f63          	beq	a6,a1,80004f0c <__trunctfdf2+0x206>
    80004dd2:	458d                	li	a1,3
    80004dd4:	10b80863          	beq	a6,a1,80004ee4 <__trunctfdf2+0x1de>
    80004dd8:	12081d63          	bnez	a6,80004f12 <__trunctfdf2+0x20c>
    80004ddc:	00f7f593          	andi	a1,a5,15
    80004de0:	4511                	li	a0,4
    80004de2:	0ea59b63          	bne	a1,a0,80004ed8 <__trunctfdf2+0x1d2>
    80004de6:	4505                	li	a0,1
    80004de8:	e6e9                	bnez	a3,80004eb2 <__trunctfdf2+0x1ac>
    80004dea:	7ff00693          	li	a3,2047
    80004dee:	838d                	srli	a5,a5,0x3
    80004df0:	08d71b63          	bne	a4,a3,80004e86 <__trunctfdf2+0x180>
    80004df4:	cbc9                	beqz	a5,80004e86 <__trunctfdf2+0x180>
    80004df6:	4785                	li	a5,1
    80004df8:	17ce                	slli	a5,a5,0x33
    80004dfa:	4601                	li	a2,0
    80004dfc:	a069                	j	80004e86 <__trunctfdf2+0x180>
    80004dfe:	5575                	li	a0,-3
    80004e00:	9d19                	subw	a0,a0,a4
    80004e02:	04000313          	li	t1,64
    80004e06:	00a6d533          	srl	a0,a3,a0
    80004e0a:	4781                	li	a5,0
    80004e0c:	00688663          	beq	a7,t1,80004e18 <__trunctfdf2+0x112>
    80004e10:	0437071b          	addiw	a4,a4,67
    80004e14:	00e697b3          	sll	a5,a3,a4
    80004e18:	8fcd                	or	a5,a5,a1
    80004e1a:	00f037b3          	snez	a5,a5
    80004e1e:	8fc9                	or	a5,a5,a0
    80004e20:	bf59                	j	80004db6 <__trunctfdf2+0xb0>
    80004e22:	051e                	slli	a0,a0,0x7
    80004e24:	00a03533          	snez	a0,a0
    80004e28:	91f1                	srli	a1,a1,0x3c
    80004e2a:	8d4d                	or	a0,a0,a1
    80004e2c:	00469793          	slli	a5,a3,0x4
    80004e30:	8fc9                	or	a5,a5,a0
    80004e32:	891d                	andi	a0,a0,7
    80004e34:	4681                	li	a3,0
    80004e36:	f959                	bnez	a0,80004dcc <__trunctfdf2+0xc6>
    80004e38:	838d                	srli	a5,a5,0x3
    80004e3a:	4501                	li	a0,0
    80004e3c:	a0a9                	j	80004e86 <__trunctfdf2+0x180>
    80004e3e:	8dd5                	or	a1,a1,a3
    80004e40:	e705                	bnez	a4,80004e68 <__trunctfdf2+0x162>
    80004e42:	03f61793          	slli	a5,a2,0x3f
    80004e46:	c9b1                	beqz	a1,80004e9a <__trunctfdf2+0x194>
    80004e48:	4785                	li	a5,1
    80004e4a:	4709                	li	a4,2
    80004e4c:	4689                	li	a3,2
    80004e4e:	0077f513          	andi	a0,a5,7
    80004e52:	08d80163          	beq	a6,a3,80004ed4 <__trunctfdf2+0x1ce>
    80004e56:	468d                	li	a3,3
    80004e58:	04d80f63          	beq	a6,a3,80004eb6 <__trunctfdf2+0x1b0>
    80004e5c:	04080263          	beqz	a6,80004ea0 <__trunctfdf2+0x19a>
    80004e60:	4701                	li	a4,0
    80004e62:	4685                	li	a3,1
    80004e64:	f525                	bnez	a0,80004dcc <__trunctfdf2+0xc6>
    80004e66:	a0b1                	j	80004eb2 <__trunctfdf2+0x1ac>
    80004e68:	10058363          	beqz	a1,80004f6e <__trunctfdf2+0x268>
    80004e6c:	4501                	li	a0,0
    80004e6e:	01c71763          	bne	a4,t3,80004e7c <__trunctfdf2+0x176>
    80004e72:	92c9                	srli	a3,a3,0x32
    80004e74:	0016c693          	xori	a3,a3,1
    80004e78:	00469513          	slli	a0,a3,0x4
    80004e7c:	4785                	li	a5,1
    80004e7e:	4601                	li	a2,0
    80004e80:	7ff00713          	li	a4,2047
    80004e84:	17ce                	slli	a5,a5,0x33
    80004e86:	7ff77713          	andi	a4,a4,2047
    80004e8a:	07b2                	slli	a5,a5,0xc
    80004e8c:	83b1                	srli	a5,a5,0xc
    80004e8e:	1752                	slli	a4,a4,0x34
    80004e90:	8f5d                	or	a4,a4,a5
    80004e92:	03f61793          	slli	a5,a2,0x3f
    80004e96:	8fd9                	or	a5,a5,a4
    80004e98:	e94d                	bnez	a0,80004f4a <__trunctfdf2+0x244>
    80004e9a:	f2078553          	fmv.d.x	fa0,a5
    80004e9e:	8082                	ret
    80004ea0:	00f77593          	andi	a1,a4,15
    80004ea4:	4691                	li	a3,4
    80004ea6:	0711                	addi	a4,a4,4
    80004ea8:	00d59963          	bne	a1,a3,80004eba <__trunctfdf2+0x1b4>
    80004eac:	4685                	li	a3,1
    80004eae:	4701                	li	a4,0
    80004eb0:	f10d                	bnez	a0,80004dd2 <__trunctfdf2+0xcc>
    80004eb2:	450d                	li	a0,3
    80004eb4:	bf1d                	j	80004dea <__trunctfdf2+0xe4>
    80004eb6:	f64d                	bnez	a2,80004e60 <__trunctfdf2+0x15a>
    80004eb8:	0721                	addi	a4,a4,8
    80004eba:	4685                	li	a3,1
    80004ebc:	16e2                	slli	a3,a3,0x38
    80004ebe:	00d775b3          	and	a1,a4,a3
    80004ec2:	0015b693          	seqz	a3,a1
    80004ec6:	4701                	li	a4,0
    80004ec8:	f111                	bnez	a0,80004dcc <__trunctfdf2+0xc6>
    80004eca:	450d                	li	a0,3
    80004ecc:	dd99                	beqz	a1,80004dea <__trunctfdf2+0xe4>
    80004ece:	838d                	srli	a5,a5,0x3
    80004ed0:	4505                	li	a0,1
    80004ed2:	bf55                	j	80004e86 <__trunctfdf2+0x180>
    80004ed4:	f275                	bnez	a2,80004eb8 <__trunctfdf2+0x1b2>
    80004ed6:	b769                	j	80004e60 <__trunctfdf2+0x15a>
    80004ed8:	0791                	addi	a5,a5,4
    80004eda:	4505                	li	a0,1
    80004edc:	c699                	beqz	a3,80004eea <__trunctfdf2+0x1e4>
    80004ede:	0026e513          	ori	a0,a3,2
    80004ee2:	a021                	j	80004eea <__trunctfdf2+0x1e4>
    80004ee4:	c60d                	beqz	a2,80004f0e <__trunctfdf2+0x208>
    80004ee6:	4505                	li	a0,1
    80004ee8:	ea85                	bnez	a3,80004f18 <__trunctfdf2+0x212>
    80004eea:	0377d693          	srli	a3,a5,0x37
    80004eee:	8a85                	andi	a3,a3,1
    80004ef0:	ee068de3          	beqz	a3,80004dea <__trunctfdf2+0xe4>
    80004ef4:	0705                	addi	a4,a4,1
    80004ef6:	7ff00693          	li	a3,2047
    80004efa:	02d70163          	beq	a4,a3,80004f1c <__trunctfdf2+0x216>
    80004efe:	1ff00693          	li	a3,511
    80004f02:	16d2                	slli	a3,a3,0x34
    80004f04:	838d                	srli	a5,a5,0x3
    80004f06:	16fd                	addi	a3,a3,-1
    80004f08:	8ff5                	and	a5,a5,a3
    80004f0a:	bfb5                	j	80004e86 <__trunctfdf2+0x180>
    80004f0c:	d679                	beqz	a2,80004eda <__trunctfdf2+0x1d4>
    80004f0e:	07a1                	addi	a5,a5,8
    80004f10:	b7e9                	j	80004eda <__trunctfdf2+0x1d4>
    80004f12:	4505                	li	a0,1
    80004f14:	f6e9                	bnez	a3,80004ede <__trunctfdf2+0x1d8>
    80004f16:	bfd1                	j	80004eea <__trunctfdf2+0x1e4>
    80004f18:	4685                	li	a3,1
    80004f1a:	b7d1                	j	80004ede <__trunctfdf2+0x1d8>
    80004f1c:	00556513          	ori	a0,a0,5
    80004f20:	02080863          	beqz	a6,80004f50 <__trunctfdf2+0x24a>
    80004f24:	478d                	li	a5,3
    80004f26:	00f81a63          	bne	a6,a5,80004f3a <__trunctfdf2+0x234>
    80004f2a:	c21d                	beqz	a2,80004f50 <__trunctfdf2+0x24a>
    80004f2c:	7ff00713          	li	a4,2047
    80004f30:	1752                	slli	a4,a4,0x34
    80004f32:	03f61793          	slli	a5,a2,0x3f
    80004f36:	177d                	addi	a4,a4,-1
    80004f38:	a00d                	j	80004f5a <__trunctfdf2+0x254>
    80004f3a:	4789                	li	a5,2
    80004f3c:	fef818e3          	bne	a6,a5,80004f2c <__trunctfdf2+0x226>
    80004f40:	ea01                	bnez	a2,80004f50 <__trunctfdf2+0x24a>
    80004f42:	0000b797          	auipc	a5,0xb
    80004f46:	2067b783          	ld	a5,518(a5) # 80010148 <__global_locale+0x210>
    80004f4a:	00152073          	csrs	fflags,a0
    80004f4e:	b7b1                	j	80004e9a <__trunctfdf2+0x194>
    80004f50:	7ff00713          	li	a4,2047
    80004f54:	03f61793          	slli	a5,a2,0x3f
    80004f58:	1752                	slli	a4,a4,0x34
    80004f5a:	8fd9                	or	a5,a5,a4
    80004f5c:	b7fd                	j	80004f4a <__trunctfdf2+0x244>
    80004f5e:	7ff00713          	li	a4,2047
    80004f62:	03f61793          	slli	a5,a2,0x3f
    80004f66:	1752                	slli	a4,a4,0x34
    80004f68:	8fd9                	or	a5,a5,a4
    80004f6a:	4515                	li	a0,5
    80004f6c:	bff9                	j	80004f4a <__trunctfdf2+0x244>
    80004f6e:	7ff00793          	li	a5,2047
    80004f72:	03f61713          	slli	a4,a2,0x3f
    80004f76:	17d2                	slli	a5,a5,0x34
    80004f78:	8fd9                	or	a5,a5,a4
    80004f7a:	b705                	j	80004e9a <__trunctfdf2+0x194>
    80004f7c:	7ff00793          	li	a5,2047
    80004f80:	17d2                	slli	a5,a5,0x34
    80004f82:	b7e5                	j	80004f6a <__trunctfdf2+0x264>

Disassembly of section .text.startup:

0000000080004f84 <main>:
    80004f84:	7175                	addi	sp,sp,-144
    80004f86:	7291                	lui	t0,0xfffe4
    80004f88:	e506                	sd	ra,136(sp)
    80004f8a:	e122                	sd	s0,128(sp)
    80004f8c:	fca6                	sd	s1,120(sp)
    80004f8e:	f8ca                	sd	s2,112(sp)
    80004f90:	f4ce                	sd	s3,104(sp)
    80004f92:	f0d2                	sd	s4,96(sp)
    80004f94:	ecd6                	sd	s5,88(sp)
    80004f96:	e8da                	sd	s6,80(sp)
    80004f98:	e4de                	sd	s7,72(sp)
    80004f9a:	e0e2                	sd	s8,64(sp)
    80004f9c:	fc66                	sd	s9,56(sp)
    80004f9e:	f86a                	sd	s10,48(sp)
    80004fa0:	b422                	fsd	fs0,40(sp)
    80004fa2:	00008517          	auipc	a0,0x8
    80004fa6:	71650513          	addi	a0,a0,1814 # 8000d6b8 <_conv_stat+0x5a>
    80004faa:	9116                	add	sp,sp,t0
    80004fac:	8c1fd0ef          	jal	ra,8000286c <printf>
    80004fb0:	04000593          	li	a1,64
    80004fb4:	00008517          	auipc	a0,0x8
    80004fb8:	72450513          	addi	a0,a0,1828 # 8000d6d8 <_conv_stat+0x7a>
    80004fbc:	8b1fd0ef          	jal	ra,8000286c <printf>
    80004fc0:	04000593          	li	a1,64
    80004fc4:	00008517          	auipc	a0,0x8
    80004fc8:	71c50513          	addi	a0,a0,1820 # 8000d6e0 <_conv_stat+0x82>
    80004fcc:	8a1fd0ef          	jal	ra,8000286c <printf>
    80004fd0:	77a1                	lui	a5,0xfffe8
    80004fd2:	6771                	lui	a4,0x1c
    80004fd4:	973e                	add	a4,a4,a5
    80004fd6:	101c                	addi	a5,sp,32
    80004fd8:	97ba                	add	a5,a5,a4
    80004fda:	e43e                	sd	a5,8(sp)
    80004fdc:	6771                	lui	a4,0x1c
    80004fde:	7791                	lui	a5,0xfffe4
    80004fe0:	973e                	add	a4,a4,a5
    80004fe2:	66a2                	ld	a3,8(sp)
    80004fe4:	101c                	addi	a5,sp,32
    80004fe6:	97ba                	add	a5,a5,a4
    80004fe8:	863e                	mv	a2,a5
    80004fea:	04000513          	li	a0,64
    80004fee:	04000593          	li	a1,64
    80004ff2:	e03e                	sd	a5,0(sp)
    80004ff4:	854fd0ef          	jal	ra,80002048 <init_array>
    80004ff8:	6582                	ld	a1,0(sp)
    80004ffa:	00008517          	auipc	a0,0x8
    80004ffe:	6ee50513          	addi	a0,a0,1774 # 8000d6e8 <_conv_stat+0x8a>
    80005002:	86bfd0ef          	jal	ra,8000286c <printf>
    80005006:	65a2                	ld	a1,8(sp)
    80005008:	00008517          	auipc	a0,0x8
    8000500c:	6f050513          	addi	a0,a0,1776 # 8000d6f8 <_conv_stat+0x9a>
    80005010:	85dfd0ef          	jal	ra,8000286c <printf>
    80005014:	00008517          	auipc	a0,0x8
    80005018:	6f450513          	addi	a0,a0,1780 # 8000d708 <_conv_stat+0xaa>
    8000501c:	851fd0ef          	jal	ra,8000286c <printf>
    80005020:	c00024f3          	rdcycle	s1
    80005024:	77e1                	lui	a5,0xffff8
    80005026:	6771                	lui	a4,0x1c
    80005028:	973e                	add	a4,a4,a5
    8000502a:	101c                	addi	a5,sp,32
    8000502c:	97ba                	add	a5,a5,a4
    8000502e:	e83e                	sd	a5,16(sp)
    80005030:	86be                	mv	a3,a5
    80005032:	65a2                	ld	a1,8(sp)
    80005034:	6502                	ld	a0,0(sp)
    80005036:	7641                	lui	a2,0xffff0
    80005038:	67f1                	lui	a5,0x1c
    8000503a:	97b2                	add	a5,a5,a2
    8000503c:	1018                	addi	a4,sp,32
    8000503e:	00e78633          	add	a2,a5,a4
    80005042:	97cfd0ef          	jal	ra,800021be <kernel_deriche>
    80005046:	c0002473          	rdcycle	s0
    8000504a:	00008517          	auipc	a0,0x8
    8000504e:	6ce50513          	addi	a0,a0,1742 # 8000d718 <_conv_stat+0xba>
    80005052:	409405b3          	sub	a1,s0,s1
    80005056:	817fd0ef          	jal	ra,8000286c <printf>
    8000505a:	85a6                	mv	a1,s1
    8000505c:	00008517          	auipc	a0,0x8
    80005060:	6f450513          	addi	a0,a0,1780 # 8000d750 <_conv_stat+0xf2>
    80005064:	809fd0ef          	jal	ra,8000286c <printf>
    80005068:	85a2                	mv	a1,s0
    8000506a:	00008517          	auipc	a0,0x8
    8000506e:	6f650513          	addi	a0,a0,1782 # 8000d760 <_conv_stat+0x102>
    80005072:	ffafd0ef          	jal	ra,8000286c <printf>
    80005076:	77b1                	lui	a5,0xfffec
    80005078:	6771                	lui	a4,0x1c
    8000507a:	973e                	add	a4,a4,a5
    8000507c:	6602                	ld	a2,0(sp)
    8000507e:	101c                	addi	a5,sp,32
    80005080:	97ba                	add	a5,a5,a4
    80005082:	86be                	mv	a3,a5
    80005084:	04000593          	li	a1,64
    80005088:	04000513          	li	a0,64
    8000508c:	e43e                	sd	a5,8(sp)
    8000508e:	fbbfc0ef          	jal	ra,80002048 <init_array>
    80005092:	00008517          	auipc	a0,0x8
    80005096:	6de50513          	addi	a0,a0,1758 # 8000d770 <_conv_stat+0x112>
    8000509a:	fd2fd0ef          	jal	ra,8000286c <printf>
    8000509e:	c00024f3          	rdcycle	s1
    800050a2:	77f1                	lui	a5,0xffffc
    800050a4:	6771                	lui	a4,0x1c
    800050a6:	973e                	add	a4,a4,a5
    800050a8:	101c                	addi	a5,sp,32
    800050aa:	97ba                	add	a5,a5,a4
    800050ac:	ec3e                	sd	a5,24(sp)
    800050ae:	86be                	mv	a3,a5
    800050b0:	65a2                	ld	a1,8(sp)
    800050b2:	6502                	ld	a0,0(sp)
    800050b4:	7651                	lui	a2,0xffff4
    800050b6:	67f1                	lui	a5,0x1c
    800050b8:	97b2                	add	a5,a5,a2
    800050ba:	1018                	addi	a4,sp,32
    800050bc:	00e78633          	add	a2,a5,a4
    800050c0:	816fd0ef          	jal	ra,800020d6 <cpu_kernel_deriche>
    800050c4:	c0002473          	rdcycle	s0
    800050c8:	00008517          	auipc	a0,0x8
    800050cc:	6c050513          	addi	a0,a0,1728 # 8000d788 <_conv_stat+0x12a>
    800050d0:	409405b3          	sub	a1,s0,s1
    800050d4:	f98fd0ef          	jal	ra,8000286c <printf>
    800050d8:	85a6                	mv	a1,s1
    800050da:	00008517          	auipc	a0,0x8
    800050de:	67650513          	addi	a0,a0,1654 # 8000d750 <_conv_stat+0xf2>
    800050e2:	f8afd0ef          	jal	ra,8000286c <printf>
    800050e6:	85a2                	mv	a1,s0
    800050e8:	00008517          	auipc	a0,0x8
    800050ec:	67850513          	addi	a0,a0,1656 # 8000d760 <_conv_stat+0x102>
    800050f0:	f7cfd0ef          	jal	ra,8000286c <printf>
    800050f4:	00008517          	auipc	a0,0x8
    800050f8:	6cc50513          	addi	a0,a0,1740 # 8000d7c0 <_conv_stat+0x162>
    800050fc:	f70fd0ef          	jal	ra,8000286c <printf>
    80005100:	00008517          	auipc	a0,0x8
    80005104:	6c850513          	addi	a0,a0,1736 # 8000d7c8 <_conv_stat+0x16a>
    80005108:	f64fd0ef          	jal	ra,8000286c <printf>
    8000510c:	00008597          	auipc	a1,0x8
    80005110:	6d458593          	addi	a1,a1,1748 # 8000d7e0 <_conv_stat+0x182>
    80005114:	00008517          	auipc	a0,0x8
    80005118:	6d450513          	addi	a0,a0,1748 # 8000d7e8 <_conv_stat+0x18a>
    8000511c:	f50fd0ef          	jal	ra,8000286c <printf>
    80005120:	6c42                	ld	s8,16(sp)
    80005122:	6be2                	ld	s7,24(sp)
    80005124:	4981                	li	s3,0
    80005126:	0000b797          	auipc	a5,0xb
    8000512a:	02e7a407          	flw	fs0,46(a5) # 80010154 <__global_locale+0x21c>
    8000512e:	00008b17          	auipc	s6,0x8
    80005132:	6cab0b13          	addi	s6,s6,1738 # 8000d7f8 <_conv_stat+0x19a>
    80005136:	00008a97          	auipc	s5,0x8
    8000513a:	6daa8a93          	addi	s5,s5,1754 # 8000d810 <_conv_stat+0x1b2>
    8000513e:	04000a13          	li	s4,64
    80005142:	00008d17          	auipc	s10,0x8
    80005146:	58ed0d13          	addi	s10,s10,1422 # 8000d6d0 <_conv_stat+0x72>
    8000514a:	6c85                	lui	s9,0x1
    8000514c:	895e                	mv	s2,s7
    8000514e:	84e2                	mv	s1,s8
    80005150:	4401                	li	s0,0
    80005152:	0004a787          	flw	fa5,0(s1)
    80005156:	00092707          	flw	fa4,0(s2)
    8000515a:	8622                	mv	a2,s0
    8000515c:	1087f7d3          	fmul.s	fa5,fa5,fs0
    80005160:	10877753          	fmul.s	fa4,fa4,fs0
    80005164:	85ce                	mv	a1,s3
    80005166:	855a                	mv	a0,s6
    80005168:	02048493          	addi	s1,s1,32
    8000516c:	c00796d3          	fcvt.w.s	a3,fa5,rtz
    80005170:	c0071753          	fcvt.w.s	a4,fa4,rtz
    80005174:	2421                	addiw	s0,s0,8
    80005176:	2681                	sext.w	a3,a3
    80005178:	2701                	sext.w	a4,a4
    8000517a:	ef2fd0ef          	jal	ra,8000286c <printf>
    8000517e:	00092603          	lw	a2,0(s2)
    80005182:	fe04a583          	lw	a1,-32(s1)
    80005186:	8556                	mv	a0,s5
    80005188:	02090913          	addi	s2,s2,32
    8000518c:	ee0fd0ef          	jal	ra,8000286c <printf>
    80005190:	fd4411e3          	bne	s0,s4,80005152 <main+0x1ce>
    80005194:	856a                	mv	a0,s10
    80005196:	29c1                	addiw	s3,s3,16
    80005198:	ed4fd0ef          	jal	ra,8000286c <printf>
    8000519c:	9c66                	add	s8,s8,s9
    8000519e:	9be6                	add	s7,s7,s9
    800051a0:	fa8996e3          	bne	s3,s0,8000514c <main+0x1c8>
    800051a4:	00008597          	auipc	a1,0x8
    800051a8:	63c58593          	addi	a1,a1,1596 # 8000d7e0 <_conv_stat+0x182>
    800051ac:	00008517          	auipc	a0,0x8
    800051b0:	66c50513          	addi	a0,a0,1644 # 8000d818 <_conv_stat+0x1ba>
    800051b4:	eb8fd0ef          	jal	ra,8000286c <printf>
    800051b8:	00008517          	auipc	a0,0x8
    800051bc:	67850513          	addi	a0,a0,1656 # 8000d830 <_conv_stat+0x1d2>
    800051c0:	eacfd0ef          	jal	ra,8000286c <printf>
    800051c4:	62f1                	lui	t0,0x1c
    800051c6:	9116                	add	sp,sp,t0
    800051c8:	60aa                	ld	ra,136(sp)
    800051ca:	640a                	ld	s0,128(sp)
    800051cc:	74e6                	ld	s1,120(sp)
    800051ce:	7946                	ld	s2,112(sp)
    800051d0:	79a6                	ld	s3,104(sp)
    800051d2:	7a06                	ld	s4,96(sp)
    800051d4:	6ae6                	ld	s5,88(sp)
    800051d6:	6b46                	ld	s6,80(sp)
    800051d8:	6ba6                	ld	s7,72(sp)
    800051da:	6c06                	ld	s8,64(sp)
    800051dc:	7ce2                	ld	s9,56(sp)
    800051de:	7d42                	ld	s10,48(sp)
    800051e0:	3422                	fld	fs0,40(sp)
    800051e2:	4501                	li	a0,0
    800051e4:	6149                	addi	sp,sp,144
    800051e6:	8082                	ret
    800051e8:	1141                	addi	sp,sp,-16
    800051ea:	00008517          	auipc	a0,0x8
    800051ee:	67e50513          	addi	a0,a0,1662 # 8000d868 <_conv_stat+0x20a>
    800051f2:	e406                	sd	ra,8(sp)
    800051f4:	ddafd0ef          	jal	ra,800027ce <printstr>
    800051f8:	60a2                	ld	ra,8(sp)
    800051fa:	557d                	li	a0,-1
    800051fc:	0141                	addi	sp,sp,16
    800051fe:	8082                	ret

Disassembly of section .text._ZNSt23mersenne_twister_engineIjLm32ELm624ELm397ELm31ELj2567483615ELm11ELj4294967295ELm7ELj2636928640ELm15ELj4022730752ELm18ELj1812433253EE11_M_gen_randEv:

0000000080005200 <_ZNSt23mersenne_twister_engineIjLm32ELm624ELm397ELm31ELj2567483615ELm11ELj4294967295ELm7ELj2636928640ELm15ELj4022730752ELm18ELj1812433253EE11_M_gen_randEv>:
    80005200:	410c                	lw	a1,0(a0)
    80005202:	80000337          	lui	t1,0x80000
    80005206:	9908b8b7          	lui	a7,0x9908b
    8000520a:	86aa                	mv	a3,a0
    8000520c:	38c50e93          	addi	t4,a0,908
    80005210:	862a                	mv	a2,a0
    80005212:	80000e37          	lui	t3,0x80000
    80005216:	fff34313          	not	t1,t1
    8000521a:	0df88893          	addi	a7,a7,223 # ffffffff9908b0df <_end+0xffffffff16079e9f>
    8000521e:	01c5f733          	and	a4,a1,t3
    80005222:	424c                	lw	a1,4(a2)
    80005224:	63462783          	lw	a5,1588(a2) # ffffffffffff4634 <_end+0xffffffff7cfe33f4>
    80005228:	0065f833          	and	a6,a1,t1
    8000522c:	01076733          	or	a4,a4,a6
    80005230:	0017581b          	srliw	a6,a4,0x1
    80005234:	0107c7b3          	xor	a5,a5,a6
    80005238:	2781                	sext.w	a5,a5
    8000523a:	8b05                	andi	a4,a4,1
    8000523c:	0117c833          	xor	a6,a5,a7
    80005240:	c319                	beqz	a4,80005246 <_ZNSt23mersenne_twister_engineIjLm32ELm624ELm397ELm31ELj2567483615ELm11ELj4294967295ELm7ELj2636928640ELm15ELj4022730752ELm18ELj1812433253EE11_M_gen_randEv+0x46>
    80005242:	0008079b          	sext.w	a5,a6
    80005246:	c21c                	sw	a5,0(a2)
    80005248:	0611                	addi	a2,a2,4
    8000524a:	fdd61ae3          	bne	a2,t4,8000521e <_ZNSt23mersenne_twister_engineIjLm32ELm624ELm397ELm31ELj2567483615ELm11ELj4294967295ELm7ELj2636928640ELm15ELj4022730752ELm18ELj1812433253EE11_M_gen_randEv+0x1e>
    8000524e:	38c52603          	lw	a2,908(a0)
    80005252:	800008b7          	lui	a7,0x80000
    80005256:	9908b837          	lui	a6,0x9908b
    8000525a:	63050e13          	addi	t3,a0,1584
    8000525e:	80000337          	lui	t1,0x80000
    80005262:	fff8c893          	not	a7,a7
    80005266:	0df80813          	addi	a6,a6,223 # ffffffff9908b0df <_end+0xffffffff16079e9f>
    8000526a:	00667733          	and	a4,a2,t1
    8000526e:	3906a603          	lw	a2,912(a3)
    80005272:	429c                	lw	a5,0(a3)
    80005274:	011675b3          	and	a1,a2,a7
    80005278:	8f4d                	or	a4,a4,a1
    8000527a:	0017559b          	srliw	a1,a4,0x1
    8000527e:	8fad                	xor	a5,a5,a1
    80005280:	2781                	sext.w	a5,a5
    80005282:	8b05                	andi	a4,a4,1
    80005284:	0107c5b3          	xor	a1,a5,a6
    80005288:	c319                	beqz	a4,8000528e <_ZNSt23mersenne_twister_engineIjLm32ELm624ELm397ELm31ELj2567483615ELm11ELj4294967295ELm7ELj2636928640ELm15ELj4022730752ELm18ELj1812433253EE11_M_gen_randEv+0x8e>
    8000528a:	0005879b          	sext.w	a5,a1
    8000528e:	38f6a623          	sw	a5,908(a3)
    80005292:	0691                	addi	a3,a3,4
    80005294:	fdc69be3          	bne	a3,t3,8000526a <_ZNSt23mersenne_twister_engineIjLm32ELm624ELm397ELm31ELj2567483615ELm11ELj4294967295ELm7ELj2636928640ELm15ELj4022730752ELm18ELj1812433253EE11_M_gen_randEv+0x6a>
    80005298:	6785                	lui	a5,0x1
    8000529a:	4114                	lw	a3,0(a0)
    8000529c:	97aa                	add	a5,a5,a0
    8000529e:	9bc7a783          	lw	a5,-1604(a5) # 9bc <_tbss_end+0x978>
    800052a2:	1686                	slli	a3,a3,0x21
    800052a4:	80000637          	lui	a2,0x80000
    800052a8:	9285                	srli	a3,a3,0x21
    800052aa:	63052703          	lw	a4,1584(a0)
    800052ae:	8ff1                	and	a5,a5,a2
    800052b0:	8fd5                	or	a5,a5,a3
    800052b2:	0017d69b          	srliw	a3,a5,0x1
    800052b6:	8f35                	xor	a4,a4,a3
    800052b8:	8b85                	andi	a5,a5,1
    800052ba:	2701                	sext.w	a4,a4
    800052bc:	c799                	beqz	a5,800052ca <_ZNSt23mersenne_twister_engineIjLm32ELm624ELm397ELm31ELj2567483615ELm11ELj4294967295ELm7ELj2636928640ELm15ELj4022730752ELm18ELj1812433253EE11_M_gen_randEv+0xca>
    800052be:	9908b7b7          	lui	a5,0x9908b
    800052c2:	0df78793          	addi	a5,a5,223 # ffffffff9908b0df <_end+0xffffffff16079e9f>
    800052c6:	8f3d                	xor	a4,a4,a5
    800052c8:	2701                	sext.w	a4,a4
    800052ca:	6785                	lui	a5,0x1
    800052cc:	953e                	add	a0,a0,a5
    800052ce:	9ae52e23          	sw	a4,-1604(a0)
    800052d2:	9c053023          	sd	zero,-1600(a0)
    800052d6:	8082                	ret

Disassembly of section .text._ZNSt23mersenne_twister_engineIjLm32ELm624ELm397ELm31ELj2567483615ELm11ELj4294967295ELm7ELj2636928640ELm15ELj4022730752ELm18ELj1812433253EEclEv:

00000000800052d8 <_ZNSt23mersenne_twister_engineIjLm32ELm624ELm397ELm31ELj2567483615ELm11ELj4294967295ELm7ELj2636928640ELm15ELj4022730752ELm18ELj1812433253EEclEv>:
    800052d8:	1101                	addi	sp,sp,-32
    800052da:	e426                	sd	s1,8(sp)
    800052dc:	6485                	lui	s1,0x1
    800052de:	94aa                	add	s1,s1,a0
    800052e0:	9c04b683          	ld	a3,-1600(s1) # 9c0 <_tbss_end+0x97c>
    800052e4:	e822                	sd	s0,16(sp)
    800052e6:	ec06                	sd	ra,24(sp)
    800052e8:	26f00793          	li	a5,623
    800052ec:	842a                	mv	s0,a0
    800052ee:	04d7e663          	bltu	a5,a3,8000533a <_ZNSt23mersenne_twister_engineIjLm32ELm624ELm397ELm31ELj2567483615ELm11ELj4294967295ELm7ELj2636928640ELm15ELj4022730752ELm18ELj1812433253EEclEv+0x62>
    800052f2:	00269793          	slli	a5,a3,0x2
    800052f6:	97a2                	add	a5,a5,s0
    800052f8:	439c                	lw	a5,0(a5)
    800052fa:	9d2c5637          	lui	a2,0x9d2c5
    800052fe:	68060613          	addi	a2,a2,1664 # ffffffff9d2c5680 <_end+0xffffffff1a2b4440>
    80005302:	00b7d71b          	srliw	a4,a5,0xb
    80005306:	8fb9                	xor	a5,a5,a4
    80005308:	0077971b          	slliw	a4,a5,0x7
    8000530c:	8f71                	and	a4,a4,a2
    8000530e:	8f3d                	xor	a4,a4,a5
    80005310:	00f7179b          	slliw	a5,a4,0xf
    80005314:	efc60637          	lui	a2,0xefc60
    80005318:	8ff1                	and	a5,a5,a2
    8000531a:	6605                	lui	a2,0x1
    8000531c:	9432                	add	s0,s0,a2
    8000531e:	0685                	addi	a3,a3,1
    80005320:	60e2                	ld	ra,24(sp)
    80005322:	8fb9                	xor	a5,a5,a4
    80005324:	9cd43023          	sd	a3,-1600(s0)
    80005328:	6442                	ld	s0,16(sp)
    8000532a:	0127d71b          	srliw	a4,a5,0x12
    8000532e:	8fb9                	xor	a5,a5,a4
    80005330:	64a2                	ld	s1,8(sp)
    80005332:	0007851b          	sext.w	a0,a5
    80005336:	6105                	addi	sp,sp,32
    80005338:	8082                	ret
    8000533a:	ec7ff0ef          	jal	ra,80005200 <_ZNSt23mersenne_twister_engineIjLm32ELm624ELm397ELm31ELj2567483615ELm11ELj4294967295ELm7ELj2636928640ELm15ELj4022730752ELm18ELj1812433253EE11_M_gen_randEv>
    8000533e:	9c04b683          	ld	a3,-1600(s1)
    80005342:	bf45                	j	800052f2 <_ZNSt23mersenne_twister_engineIjLm32ELm624ELm397ELm31ELj2567483615ELm11ELj4294967295ELm7ELj2636928640ELm15ELj4022730752ELm18ELj1812433253EEclEv+0x1a>

Disassembly of section .text.aligned_alloc:

0000000080005344 <aligned_alloc>:
    80005344:	1141                	addi	sp,sp,-16
    80005346:	862e                	mv	a2,a1
    80005348:	85aa                	mv	a1,a0
    8000534a:	8a01b503          	ld	a0,-1888(gp) # 80010180 <_impure_ptr>
    8000534e:	e406                	sd	ra,8(sp)
    80005350:	252000ef          	jal	ra,800055a2 <_memalign_r>
    80005354:	60a2                	ld	ra,8(sp)
    80005356:	0141                	addi	sp,sp,16
    80005358:	8082                	ret

Disassembly of section .text.__assert_func:

000000008000535a <__assert_func>:
    8000535a:	1141                	addi	sp,sp,-16
    8000535c:	87b6                	mv	a5,a3
    8000535e:	8a01b703          	ld	a4,-1888(gp) # 80010180 <_impure_ptr>
    80005362:	8832                	mv	a6,a2
    80005364:	e406                	sd	ra,8(sp)
    80005366:	01873883          	ld	a7,24(a4) # 1c018 <_tbss_end+0x1bfd4>
    8000536a:	863e                	mv	a2,a5
    8000536c:	86aa                	mv	a3,a0
    8000536e:	872e                	mv	a4,a1
    80005370:	00009797          	auipc	a5,0x9
    80005374:	0f878793          	addi	a5,a5,248 # 8000e468 <__clz_tab+0x560>
    80005378:	00080b63          	beqz	a6,8000538e <__assert_func+0x34>
    8000537c:	00009597          	auipc	a1,0x9
    80005380:	10458593          	addi	a1,a1,260 # 8000e480 <__clz_tab+0x578>
    80005384:	8546                	mv	a0,a7
    80005386:	040000ef          	jal	ra,800053c6 <fiprintf>
    8000538a:	c36fd0ef          	jal	ra,800027c0 <abort>
    8000538e:	00009797          	auipc	a5,0x9
    80005392:	0ea78793          	addi	a5,a5,234 # 8000e478 <__clz_tab+0x570>
    80005396:	883e                	mv	a6,a5
    80005398:	b7d5                	j	8000537c <__assert_func+0x22>

Disassembly of section .text.__assert:

000000008000539a <__assert>:
    8000539a:	1141                	addi	sp,sp,-16
    8000539c:	86b2                	mv	a3,a2
    8000539e:	4601                	li	a2,0
    800053a0:	e406                	sd	ra,8(sp)
    800053a2:	fb9ff0ef          	jal	ra,8000535a <__assert_func>

Disassembly of section .text._fiprintf_r:

00000000800053a6 <_fiprintf_r>:
    800053a6:	715d                	addi	sp,sp,-80
    800053a8:	02810313          	addi	t1,sp,40
    800053ac:	f436                	sd	a3,40(sp)
    800053ae:	869a                	mv	a3,t1
    800053b0:	ec06                	sd	ra,24(sp)
    800053b2:	f83a                	sd	a4,48(sp)
    800053b4:	fc3e                	sd	a5,56(sp)
    800053b6:	e0c2                	sd	a6,64(sp)
    800053b8:	e4c6                	sd	a7,72(sp)
    800053ba:	e41a                	sd	t1,8(sp)
    800053bc:	3bb000ef          	jal	ra,80005f76 <_vfiprintf_r>
    800053c0:	60e2                	ld	ra,24(sp)
    800053c2:	6161                	addi	sp,sp,80
    800053c4:	8082                	ret

Disassembly of section .text.fiprintf:

00000000800053c6 <fiprintf>:
    800053c6:	715d                	addi	sp,sp,-80
    800053c8:	02010313          	addi	t1,sp,32
    800053cc:	f032                	sd	a2,32(sp)
    800053ce:	f436                	sd	a3,40(sp)
    800053d0:	862e                	mv	a2,a1
    800053d2:	869a                	mv	a3,t1
    800053d4:	85aa                	mv	a1,a0
    800053d6:	8a01b503          	ld	a0,-1888(gp) # 80010180 <_impure_ptr>
    800053da:	ec06                	sd	ra,24(sp)
    800053dc:	f83a                	sd	a4,48(sp)
    800053de:	fc3e                	sd	a5,56(sp)
    800053e0:	e0c2                	sd	a6,64(sp)
    800053e2:	e4c6                	sd	a7,72(sp)
    800053e4:	e41a                	sd	t1,8(sp)
    800053e6:	391000ef          	jal	ra,80005f76 <_vfiprintf_r>
    800053ea:	60e2                	ld	ra,24(sp)
    800053ec:	6161                	addi	sp,sp,80
    800053ee:	8082                	ret

Disassembly of section .text._fprintf_r:

00000000800053f0 <_fprintf_r>:
    800053f0:	715d                	addi	sp,sp,-80
    800053f2:	02810313          	addi	t1,sp,40
    800053f6:	f436                	sd	a3,40(sp)
    800053f8:	869a                	mv	a3,t1
    800053fa:	ec06                	sd	ra,24(sp)
    800053fc:	f83a                	sd	a4,48(sp)
    800053fe:	fc3e                	sd	a5,56(sp)
    80005400:	e0c2                	sd	a6,64(sp)
    80005402:	e4c6                	sd	a7,72(sp)
    80005404:	e41a                	sd	t1,8(sp)
    80005406:	1d3010ef          	jal	ra,80006dd8 <_vfprintf_r>
    8000540a:	60e2                	ld	ra,24(sp)
    8000540c:	6161                	addi	sp,sp,80
    8000540e:	8082                	ret

Disassembly of section .text.fprintf:

0000000080005410 <fprintf>:
    80005410:	715d                	addi	sp,sp,-80
    80005412:	02010313          	addi	t1,sp,32
    80005416:	f032                	sd	a2,32(sp)
    80005418:	f436                	sd	a3,40(sp)
    8000541a:	862e                	mv	a2,a1
    8000541c:	869a                	mv	a3,t1
    8000541e:	85aa                	mv	a1,a0
    80005420:	8a01b503          	ld	a0,-1888(gp) # 80010180 <_impure_ptr>
    80005424:	ec06                	sd	ra,24(sp)
    80005426:	f83a                	sd	a4,48(sp)
    80005428:	fc3e                	sd	a5,56(sp)
    8000542a:	e0c2                	sd	a6,64(sp)
    8000542c:	e4c6                	sd	a7,72(sp)
    8000542e:	e41a                	sd	t1,8(sp)
    80005430:	1a9010ef          	jal	ra,80006dd8 <_vfprintf_r>
    80005434:	60e2                	ld	ra,24(sp)
    80005436:	6161                	addi	sp,sp,80
    80005438:	8082                	ret

Disassembly of section .text._fputc_r:

000000008000543a <_fputc_r>:
    8000543a:	1101                	addi	sp,sp,-32
    8000543c:	e822                	sd	s0,16(sp)
    8000543e:	ec06                	sd	ra,24(sp)
    80005440:	842a                	mv	s0,a0
    80005442:	c119                	beqz	a0,80005448 <_fputc_r+0xe>
    80005444:	493c                	lw	a5,80(a0)
    80005446:	c799                	beqz	a5,80005454 <_fputc_r+0x1a>
    80005448:	8522                	mv	a0,s0
    8000544a:	6442                	ld	s0,16(sp)
    8000544c:	60e2                	ld	ra,24(sp)
    8000544e:	6105                	addi	sp,sp,32
    80005450:	16d0006f          	j	80005dbc <_putc_r>
    80005454:	e432                	sd	a2,8(sp)
    80005456:	e02e                	sd	a1,0(sp)
    80005458:	3f5030ef          	jal	ra,8000904c <__sinit>
    8000545c:	8522                	mv	a0,s0
    8000545e:	6442                	ld	s0,16(sp)
    80005460:	6622                	ld	a2,8(sp)
    80005462:	6582                	ld	a1,0(sp)
    80005464:	60e2                	ld	ra,24(sp)
    80005466:	6105                	addi	sp,sp,32
    80005468:	1550006f          	j	80005dbc <_putc_r>

Disassembly of section .text.fputc:

000000008000546c <fputc>:
    8000546c:	1101                	addi	sp,sp,-32
    8000546e:	e822                	sd	s0,16(sp)
    80005470:	ec06                	sd	ra,24(sp)
    80005472:	842a                	mv	s0,a0
    80005474:	8a01b503          	ld	a0,-1888(gp) # 80010180 <_impure_ptr>
    80005478:	862e                	mv	a2,a1
    8000547a:	c119                	beqz	a0,80005480 <fputc+0x14>
    8000547c:	493c                	lw	a5,80(a0)
    8000547e:	c799                	beqz	a5,8000548c <fputc+0x20>
    80005480:	85a2                	mv	a1,s0
    80005482:	6442                	ld	s0,16(sp)
    80005484:	60e2                	ld	ra,24(sp)
    80005486:	6105                	addi	sp,sp,32
    80005488:	1350006f          	j	80005dbc <_putc_r>
    8000548c:	e42e                	sd	a1,8(sp)
    8000548e:	e02a                	sd	a0,0(sp)
    80005490:	3bd030ef          	jal	ra,8000904c <__sinit>
    80005494:	85a2                	mv	a1,s0
    80005496:	6442                	ld	s0,16(sp)
    80005498:	6622                	ld	a2,8(sp)
    8000549a:	6502                	ld	a0,0(sp)
    8000549c:	60e2                	ld	ra,24(sp)
    8000549e:	6105                	addi	sp,sp,32
    800054a0:	11d0006f          	j	80005dbc <_putc_r>

Disassembly of section .text._fwrite_r:

00000000800054a4 <_fwrite_r>:
    800054a4:	7159                	addi	sp,sp,-112
    800054a6:	e8ca                	sd	s2,80(sp)
    800054a8:	02c68933          	mul	s2,a3,a2
    800054ac:	083c                	addi	a5,sp,24
    800054ae:	f43e                	sd	a5,40(sp)
    800054b0:	4785                	li	a5,1
    800054b2:	f0a2                	sd	s0,96(sp)
    800054b4:	eca6                	sd	s1,88(sp)
    800054b6:	e4ce                	sd	s3,72(sp)
    800054b8:	ec2e                	sd	a1,24(sp)
    800054ba:	f486                	sd	ra,104(sp)
    800054bc:	d83e                	sw	a5,48(sp)
    800054be:	f04a                	sd	s2,32(sp)
    800054c0:	fc4a                	sd	s2,56(sp)
    800054c2:	89b2                	mv	s3,a2
    800054c4:	8436                	mv	s0,a3
    800054c6:	84aa                	mv	s1,a0
    800054c8:	85ba                	mv	a1,a4
    800054ca:	c119                	beqz	a0,800054d0 <_fwrite_r+0x2c>
    800054cc:	493c                	lw	a5,80(a0)
    800054ce:	c7a1                	beqz	a5,80005516 <_fwrite_r+0x72>
    800054d0:	01059783          	lh	a5,16(a1)
    800054d4:	03279713          	slli	a4,a5,0x32
    800054d8:	00074d63          	bltz	a4,800054f2 <_fwrite_r+0x4e>
    800054dc:	0ac5a703          	lw	a4,172(a1)
    800054e0:	6689                	lui	a3,0x2
    800054e2:	8fd5                	or	a5,a5,a3
    800054e4:	76f9                	lui	a3,0xffffe
    800054e6:	16fd                	addi	a3,a3,-1 # ffffffffffffdfff <_end+0xffffffff7cfecdbf>
    800054e8:	8f75                	and	a4,a4,a3
    800054ea:	00f59823          	sh	a5,16(a1)
    800054ee:	0ae5a623          	sw	a4,172(a1)
    800054f2:	1030                	addi	a2,sp,40
    800054f4:	8526                	mv	a0,s1
    800054f6:	7b7030ef          	jal	ra,800094ac <__sfvwrite_r>
    800054fa:	c511                	beqz	a0,80005506 <_fwrite_r+0x62>
    800054fc:	77e2                	ld	a5,56(sp)
    800054fe:	40f90933          	sub	s2,s2,a5
    80005502:	03395433          	divu	s0,s2,s3
    80005506:	70a6                	ld	ra,104(sp)
    80005508:	8522                	mv	a0,s0
    8000550a:	7406                	ld	s0,96(sp)
    8000550c:	64e6                	ld	s1,88(sp)
    8000550e:	6946                	ld	s2,80(sp)
    80005510:	69a6                	ld	s3,72(sp)
    80005512:	6165                	addi	sp,sp,112
    80005514:	8082                	ret
    80005516:	e43a                	sd	a4,8(sp)
    80005518:	335030ef          	jal	ra,8000904c <__sinit>
    8000551c:	65a2                	ld	a1,8(sp)
    8000551e:	bf4d                	j	800054d0 <_fwrite_r+0x2c>

Disassembly of section .text.fwrite:

0000000080005520 <fwrite>:
    80005520:	7159                	addi	sp,sp,-112
    80005522:	eca6                	sd	s1,88(sp)
    80005524:	02c584b3          	mul	s1,a1,a2
    80005528:	083c                	addi	a5,sp,24
    8000552a:	f43e                	sd	a5,40(sp)
    8000552c:	4785                	li	a5,1
    8000552e:	f0a2                	sd	s0,96(sp)
    80005530:	e8ca                	sd	s2,80(sp)
    80005532:	e4ce                	sd	s3,72(sp)
    80005534:	f486                	sd	ra,104(sp)
    80005536:	8a01b983          	ld	s3,-1888(gp) # 80010180 <_impure_ptr>
    8000553a:	ec2a                	sd	a0,24(sp)
    8000553c:	d83e                	sw	a5,48(sp)
    8000553e:	f026                	sd	s1,32(sp)
    80005540:	fc26                	sd	s1,56(sp)
    80005542:	892e                	mv	s2,a1
    80005544:	8432                	mv	s0,a2
    80005546:	85b6                	mv	a1,a3
    80005548:	00098563          	beqz	s3,80005552 <fwrite+0x32>
    8000554c:	0509a783          	lw	a5,80(s3)
    80005550:	c3b9                	beqz	a5,80005596 <fwrite+0x76>
    80005552:	01059783          	lh	a5,16(a1)
    80005556:	03279713          	slli	a4,a5,0x32
    8000555a:	00074d63          	bltz	a4,80005574 <fwrite+0x54>
    8000555e:	0ac5a703          	lw	a4,172(a1)
    80005562:	6689                	lui	a3,0x2
    80005564:	8fd5                	or	a5,a5,a3
    80005566:	76f9                	lui	a3,0xffffe
    80005568:	16fd                	addi	a3,a3,-1 # ffffffffffffdfff <_end+0xffffffff7cfecdbf>
    8000556a:	8f75                	and	a4,a4,a3
    8000556c:	00f59823          	sh	a5,16(a1)
    80005570:	0ae5a623          	sw	a4,172(a1)
    80005574:	1030                	addi	a2,sp,40
    80005576:	854e                	mv	a0,s3
    80005578:	735030ef          	jal	ra,800094ac <__sfvwrite_r>
    8000557c:	c509                	beqz	a0,80005586 <fwrite+0x66>
    8000557e:	77e2                	ld	a5,56(sp)
    80005580:	8c9d                	sub	s1,s1,a5
    80005582:	0324d433          	divu	s0,s1,s2
    80005586:	70a6                	ld	ra,104(sp)
    80005588:	8522                	mv	a0,s0
    8000558a:	7406                	ld	s0,96(sp)
    8000558c:	64e6                	ld	s1,88(sp)
    8000558e:	6946                	ld	s2,80(sp)
    80005590:	69a6                	ld	s3,72(sp)
    80005592:	6165                	addi	sp,sp,112
    80005594:	8082                	ret
    80005596:	854e                	mv	a0,s3
    80005598:	e436                	sd	a3,8(sp)
    8000559a:	2b3030ef          	jal	ra,8000904c <__sinit>
    8000559e:	65a2                	ld	a1,8(sp)
    800055a0:	bf4d                	j	80005552 <fwrite+0x32>

Disassembly of section .text._memalign_r:

00000000800055a2 <_memalign_r>:
    800055a2:	47c1                	li	a5,16
    800055a4:	0ab7f863          	bgeu	a5,a1,80005654 <_memalign_r+0xb2>
    800055a8:	7179                	addi	sp,sp,-48
    800055aa:	f022                	sd	s0,32(sp)
    800055ac:	ec26                	sd	s1,24(sp)
    800055ae:	f406                	sd	ra,40(sp)
    800055b0:	e84a                	sd	s2,16(sp)
    800055b2:	e44e                	sd	s3,8(sp)
    800055b4:	e052                	sd	s4,0(sp)
    800055b6:	02000793          	li	a5,32
    800055ba:	842e                	mv	s0,a1
    800055bc:	84aa                	mv	s1,a0
    800055be:	08f5e063          	bltu	a1,a5,8000563e <_memalign_r+0x9c>
    800055c2:	01760793          	addi	a5,a2,23 # 1017 <_tbss_end+0xfd3>
    800055c6:	02e00713          	li	a4,46
    800055ca:	02000993          	li	s3,32
    800055ce:	04f76d63          	bltu	a4,a5,80005628 <_memalign_r+0x86>
    800055d2:	fdf00793          	li	a5,-33
    800055d6:	8f81                	sub	a5,a5,s0
    800055d8:	0537ef63          	bltu	a5,s3,80005636 <_memalign_r+0x94>
    800055dc:	04c9ed63          	bltu	s3,a2,80005636 <_memalign_r+0x94>
    800055e0:	02040593          	addi	a1,s0,32
    800055e4:	95ce                	add	a1,a1,s3
    800055e6:	8526                	mv	a0,s1
    800055e8:	10a000ef          	jal	ra,800056f2 <_malloc_r>
    800055ec:	892a                	mv	s2,a0
    800055ee:	c531                	beqz	a0,8000563a <_memalign_r+0x98>
    800055f0:	8526                	mv	a0,s1
    800055f2:	7c6000ef          	jal	ra,80005db8 <__malloc_lock>
    800055f6:	028977b3          	remu	a5,s2,s0
    800055fa:	ff090a13          	addi	s4,s2,-16
    800055fe:	efa9                	bnez	a5,80005658 <_memalign_r+0xb6>
    80005600:	008a3783          	ld	a5,8(s4)
    80005604:	477d                	li	a4,31
    80005606:	9bf1                	andi	a5,a5,-4
    80005608:	413787b3          	sub	a5,a5,s3
    8000560c:	0af74763          	blt	a4,a5,800056ba <_memalign_r+0x118>
    80005610:	8526                	mv	a0,s1
    80005612:	7a8000ef          	jal	ra,80005dba <__malloc_unlock>
    80005616:	70a2                	ld	ra,40(sp)
    80005618:	7402                	ld	s0,32(sp)
    8000561a:	64e2                	ld	s1,24(sp)
    8000561c:	69a2                	ld	s3,8(sp)
    8000561e:	6a02                	ld	s4,0(sp)
    80005620:	854a                	mv	a0,s2
    80005622:	6942                	ld	s2,16(sp)
    80005624:	6145                	addi	sp,sp,48
    80005626:	8082                	ret
    80005628:	ff07f993          	andi	s3,a5,-16
    8000562c:	fdf00793          	li	a5,-33
    80005630:	8f81                	sub	a5,a5,s0
    80005632:	fb37f5e3          	bgeu	a5,s3,800055dc <_memalign_r+0x3a>
    80005636:	47b1                	li	a5,12
    80005638:	c09c                	sw	a5,0(s1)
    8000563a:	4901                	li	s2,0
    8000563c:	bfe9                	j	80005616 <_memalign_r+0x74>
    8000563e:	01760793          	addi	a5,a2,23
    80005642:	02e00713          	li	a4,46
    80005646:	02000413          	li	s0,32
    8000564a:	02000993          	li	s3,32
    8000564e:	f8f772e3          	bgeu	a4,a5,800055d2 <_memalign_r+0x30>
    80005652:	bfd9                	j	80005628 <_memalign_r+0x86>
    80005654:	85b2                	mv	a1,a2
    80005656:	a871                	j	800056f2 <_malloc_r>
    80005658:	fff40793          	addi	a5,s0,-1
    8000565c:	40800733          	neg	a4,s0
    80005660:	97ca                	add	a5,a5,s2
    80005662:	8ff9                	and	a5,a5,a4
    80005664:	17c1                	addi	a5,a5,-16
    80005666:	41478733          	sub	a4,a5,s4
    8000566a:	46fd                	li	a3,31
    8000566c:	06e6c863          	blt	a3,a4,800056dc <_memalign_r+0x13a>
    80005670:	97a2                	add	a5,a5,s0
    80005672:	41478733          	sub	a4,a5,s4
    80005676:	8a3e                	mv	s4,a5
    80005678:	ff893783          	ld	a5,-8(s2)
    8000567c:	85ca                	mv	a1,s2
    8000567e:	8526                	mv	a0,s1
    80005680:	9bf1                	andi	a5,a5,-4
    80005682:	8f99                	sub	a5,a5,a4
    80005684:	0017e693          	ori	a3,a5,1
    80005688:	00da3423          	sd	a3,8(s4)
    8000568c:	97d2                	add	a5,a5,s4
    8000568e:	6794                	ld	a3,8(a5)
    80005690:	0016e693          	ori	a3,a3,1
    80005694:	e794                	sd	a3,8(a5)
    80005696:	ff893783          	ld	a5,-8(s2)
    8000569a:	8b85                	andi	a5,a5,1
    8000569c:	8fd9                	or	a5,a5,a4
    8000569e:	fef93c23          	sd	a5,-8(s2)
    800056a2:	3bd030ef          	jal	ra,8000925e <_free_r>
    800056a6:	008a3783          	ld	a5,8(s4)
    800056aa:	477d                	li	a4,31
    800056ac:	010a0913          	addi	s2,s4,16
    800056b0:	9bf1                	andi	a5,a5,-4
    800056b2:	413787b3          	sub	a5,a5,s3
    800056b6:	f4f75de3          	bge	a4,a5,80005610 <_memalign_r+0x6e>
    800056ba:	013a05b3          	add	a1,s4,s3
    800056be:	0017e793          	ori	a5,a5,1
    800056c2:	e59c                	sd	a5,8(a1)
    800056c4:	008a3783          	ld	a5,8(s4)
    800056c8:	05c1                	addi	a1,a1,16
    800056ca:	8526                	mv	a0,s1
    800056cc:	8b85                	andi	a5,a5,1
    800056ce:	0137e7b3          	or	a5,a5,s3
    800056d2:	00fa3423          	sd	a5,8(s4)
    800056d6:	389030ef          	jal	ra,8000925e <_free_r>
    800056da:	bf1d                	j	80005610 <_memalign_r+0x6e>
    800056dc:	8a3e                	mv	s4,a5
    800056de:	bf69                	j	80005678 <_memalign_r+0xd6>

Disassembly of section .text.malloc:

00000000800056e0 <malloc>:
    800056e0:	85aa                	mv	a1,a0
    800056e2:	8a01b503          	ld	a0,-1888(gp) # 80010180 <_impure_ptr>
    800056e6:	a031                	j	800056f2 <_malloc_r>

Disassembly of section .text.free:

00000000800056e8 <free>:
    800056e8:	85aa                	mv	a1,a0
    800056ea:	8a01b503          	ld	a0,-1888(gp) # 80010180 <_impure_ptr>
    800056ee:	3710306f          	j	8000925e <_free_r>

Disassembly of section .text._malloc_r:

00000000800056f2 <_malloc_r>:
    800056f2:	711d                	addi	sp,sp,-96
    800056f4:	e4a6                	sd	s1,72(sp)
    800056f6:	e0ca                	sd	s2,64(sp)
    800056f8:	ec86                	sd	ra,88(sp)
    800056fa:	e8a2                	sd	s0,80(sp)
    800056fc:	fc4e                	sd	s3,56(sp)
    800056fe:	f852                	sd	s4,48(sp)
    80005700:	f456                	sd	s5,40(sp)
    80005702:	f05a                	sd	s6,32(sp)
    80005704:	ec5e                	sd	s7,24(sp)
    80005706:	e862                	sd	s8,16(sp)
    80005708:	e466                	sd	s9,8(sp)
    8000570a:	01758493          	addi	s1,a1,23
    8000570e:	02e00793          	li	a5,46
    80005712:	892a                	mv	s2,a0
    80005714:	0697e463          	bltu	a5,s1,8000577c <_malloc_r+0x8a>
    80005718:	02000793          	li	a5,32
    8000571c:	1ab7e163          	bltu	a5,a1,800058be <_malloc_r+0x1cc>
    80005720:	698000ef          	jal	ra,80005db8 <__malloc_lock>
    80005724:	02000493          	li	s1,32
    80005728:	05000793          	li	a5,80
    8000572c:	4611                	li	a2,4
    8000572e:	0000a997          	auipc	s3,0xa
    80005732:	ffa98993          	addi	s3,s3,-6 # 8000f728 <__malloc_av_>
    80005736:	97ce                	add	a5,a5,s3
    80005738:	6780                	ld	s0,8(a5)
    8000573a:	ff078713          	addi	a4,a5,-16
    8000573e:	24e40e63          	beq	s0,a4,8000599a <_malloc_r+0x2a8>
    80005742:	641c                	ld	a5,8(s0)
    80005744:	6c14                	ld	a3,24(s0)
    80005746:	6810                	ld	a2,16(s0)
    80005748:	9bf1                	andi	a5,a5,-4
    8000574a:	97a2                	add	a5,a5,s0
    8000574c:	6798                	ld	a4,8(a5)
    8000574e:	ee14                	sd	a3,24(a2)
    80005750:	ea90                	sd	a2,16(a3)
    80005752:	00176713          	ori	a4,a4,1
    80005756:	854a                	mv	a0,s2
    80005758:	e798                	sd	a4,8(a5)
    8000575a:	660000ef          	jal	ra,80005dba <__malloc_unlock>
    8000575e:	01040513          	addi	a0,s0,16
    80005762:	60e6                	ld	ra,88(sp)
    80005764:	6446                	ld	s0,80(sp)
    80005766:	64a6                	ld	s1,72(sp)
    80005768:	6906                	ld	s2,64(sp)
    8000576a:	79e2                	ld	s3,56(sp)
    8000576c:	7a42                	ld	s4,48(sp)
    8000576e:	7aa2                	ld	s5,40(sp)
    80005770:	7b02                	ld	s6,32(sp)
    80005772:	6be2                	ld	s7,24(sp)
    80005774:	6c42                	ld	s8,16(sp)
    80005776:	6ca2                	ld	s9,8(sp)
    80005778:	6125                	addi	sp,sp,96
    8000577a:	8082                	ret
    8000577c:	800007b7          	lui	a5,0x80000
    80005780:	98c1                	andi	s1,s1,-16
    80005782:	fff7c793          	not	a5,a5
    80005786:	1297ec63          	bltu	a5,s1,800058be <_malloc_r+0x1cc>
    8000578a:	12b4ea63          	bltu	s1,a1,800058be <_malloc_r+0x1cc>
    8000578e:	62a000ef          	jal	ra,80005db8 <__malloc_lock>
    80005792:	1f700793          	li	a5,503
    80005796:	2e97fd63          	bgeu	a5,s1,80005a90 <_malloc_r+0x39e>
    8000579a:	0094d793          	srli	a5,s1,0x9
    8000579e:	12078563          	beqz	a5,800058c8 <_malloc_r+0x1d6>
    800057a2:	4711                	li	a4,4
    800057a4:	24f76263          	bltu	a4,a5,800059e8 <_malloc_r+0x2f6>
    800057a8:	0064d793          	srli	a5,s1,0x6
    800057ac:	0397861b          	addiw	a2,a5,57 # ffffffff80000039 <_end+0xfffffffefcfeedf9>
    800057b0:	0016169b          	slliw	a3,a2,0x1
    800057b4:	0387851b          	addiw	a0,a5,56
    800057b8:	068e                	slli	a3,a3,0x3
    800057ba:	0000a997          	auipc	s3,0xa
    800057be:	f6e98993          	addi	s3,s3,-146 # 8000f728 <__malloc_av_>
    800057c2:	96ce                	add	a3,a3,s3
    800057c4:	6680                	ld	s0,8(a3)
    800057c6:	16c1                	addi	a3,a3,-16
    800057c8:	02868063          	beq	a3,s0,800057e8 <_malloc_r+0xf6>
    800057cc:	45fd                	li	a1,31
    800057ce:	a031                	j	800057da <_malloc_r+0xe8>
    800057d0:	1c075263          	bgez	a4,80005994 <_malloc_r+0x2a2>
    800057d4:	6c00                	ld	s0,24(s0)
    800057d6:	00868963          	beq	a3,s0,800057e8 <_malloc_r+0xf6>
    800057da:	641c                	ld	a5,8(s0)
    800057dc:	9bf1                	andi	a5,a5,-4
    800057de:	40978733          	sub	a4,a5,s1
    800057e2:	fee5d7e3          	bge	a1,a4,800057d0 <_malloc_r+0xde>
    800057e6:	862a                	mv	a2,a0
    800057e8:	0209b403          	ld	s0,32(s3)
    800057ec:	0000a897          	auipc	a7,0xa
    800057f0:	f4c88893          	addi	a7,a7,-180 # 8000f738 <__malloc_av_+0x10>
    800057f4:	19140d63          	beq	s0,a7,8000598e <_malloc_r+0x29c>
    800057f8:	641c                	ld	a5,8(s0)
    800057fa:	46fd                	li	a3,31
    800057fc:	9bf1                	andi	a5,a5,-4
    800057fe:	40978733          	sub	a4,a5,s1
    80005802:	26e6c063          	blt	a3,a4,80005a62 <_malloc_r+0x370>
    80005806:	0319b423          	sd	a7,40(s3)
    8000580a:	0319b023          	sd	a7,32(s3)
    8000580e:	22075f63          	bgez	a4,80005a4c <_malloc_r+0x35a>
    80005812:	1ff00713          	li	a4,511
    80005816:	0089b503          	ld	a0,8(s3)
    8000581a:	18f76563          	bltu	a4,a5,800059a4 <_malloc_r+0x2b2>
    8000581e:	838d                	srli	a5,a5,0x3
    80005820:	0017871b          	addiw	a4,a5,1
    80005824:	0017171b          	slliw	a4,a4,0x1
    80005828:	070e                	slli	a4,a4,0x3
    8000582a:	974e                	add	a4,a4,s3
    8000582c:	630c                	ld	a1,0(a4)
    8000582e:	4027d79b          	sraiw	a5,a5,0x2
    80005832:	4685                	li	a3,1
    80005834:	00f697b3          	sll	a5,a3,a5
    80005838:	8d5d                	or	a0,a0,a5
    8000583a:	ff070793          	addi	a5,a4,-16
    8000583e:	ec1c                	sd	a5,24(s0)
    80005840:	e80c                	sd	a1,16(s0)
    80005842:	00a9b423          	sd	a0,8(s3)
    80005846:	e300                	sd	s0,0(a4)
    80005848:	ed80                	sd	s0,24(a1)
    8000584a:	4026579b          	sraiw	a5,a2,0x2
    8000584e:	4585                	li	a1,1
    80005850:	00f595b3          	sll	a1,a1,a5
    80005854:	08b56163          	bltu	a0,a1,800058d6 <_malloc_r+0x1e4>
    80005858:	00a5f7b3          	and	a5,a1,a0
    8000585c:	ef81                	bnez	a5,80005874 <_malloc_r+0x182>
    8000585e:	0586                	slli	a1,a1,0x1
    80005860:	9a71                	andi	a2,a2,-4
    80005862:	00a5f7b3          	and	a5,a1,a0
    80005866:	2611                	addiw	a2,a2,4
    80005868:	e791                	bnez	a5,80005874 <_malloc_r+0x182>
    8000586a:	0586                	slli	a1,a1,0x1
    8000586c:	00a5f7b3          	and	a5,a1,a0
    80005870:	2611                	addiw	a2,a2,4
    80005872:	dfe5                	beqz	a5,8000586a <_malloc_r+0x178>
    80005874:	487d                	li	a6,31
    80005876:	0016031b          	addiw	t1,a2,1
    8000587a:	0013131b          	slliw	t1,t1,0x1
    8000587e:	030e                	slli	t1,t1,0x3
    80005880:	1341                	addi	t1,t1,-16 # ffffffff7ffffff0 <_end+0xfffffffefcfeedb0>
    80005882:	934e                	add	t1,t1,s3
    80005884:	851a                	mv	a0,t1
    80005886:	6d1c                	ld	a5,24(a0)
    80005888:	8e32                	mv	t3,a2
    8000588a:	18f50063          	beq	a0,a5,80005a0a <_malloc_r+0x318>
    8000588e:	6798                	ld	a4,8(a5)
    80005890:	843e                	mv	s0,a5
    80005892:	6f9c                	ld	a5,24(a5)
    80005894:	9b71                	andi	a4,a4,-4
    80005896:	409706b3          	sub	a3,a4,s1
    8000589a:	16d84f63          	blt	a6,a3,80005a18 <_malloc_r+0x326>
    8000589e:	fe06c6e3          	bltz	a3,8000588a <_malloc_r+0x198>
    800058a2:	9722                	add	a4,a4,s0
    800058a4:	6714                	ld	a3,8(a4)
    800058a6:	6810                	ld	a2,16(s0)
    800058a8:	854a                	mv	a0,s2
    800058aa:	0016e693          	ori	a3,a3,1
    800058ae:	e714                	sd	a3,8(a4)
    800058b0:	ee1c                	sd	a5,24(a2)
    800058b2:	eb90                	sd	a2,16(a5)
    800058b4:	506000ef          	jal	ra,80005dba <__malloc_unlock>
    800058b8:	01040513          	addi	a0,s0,16
    800058bc:	b55d                	j	80005762 <_malloc_r+0x70>
    800058be:	47b1                	li	a5,12
    800058c0:	00f92023          	sw	a5,0(s2)
    800058c4:	4501                	li	a0,0
    800058c6:	bd71                	j	80005762 <_malloc_r+0x70>
    800058c8:	40000693          	li	a3,1024
    800058cc:	04000613          	li	a2,64
    800058d0:	03f00513          	li	a0,63
    800058d4:	b5dd                	j	800057ba <_malloc_r+0xc8>
    800058d6:	0109b403          	ld	s0,16(s3)
    800058da:	641c                	ld	a5,8(s0)
    800058dc:	ffc7fa93          	andi	s5,a5,-4
    800058e0:	009ae763          	bltu	s5,s1,800058ee <_malloc_r+0x1fc>
    800058e4:	409a8733          	sub	a4,s5,s1
    800058e8:	47fd                	li	a5,31
    800058ea:	08e7c363          	blt	a5,a4,80005970 <_malloc_r+0x27e>
    800058ee:	8a818c93          	addi	s9,gp,-1880 # 80010188 <__malloc_sbrk_base>
    800058f2:	000cb703          	ld	a4,0(s9) # 1000 <_tbss_end+0xfbc>
    800058f6:	8d81ba03          	ld	s4,-1832(gp) # 800101b8 <__malloc_top_pad>
    800058fa:	57fd                	li	a5,-1
    800058fc:	01540bb3          	add	s7,s0,s5
    80005900:	9a26                	add	s4,s4,s1
    80005902:	2ef70163          	beq	a4,a5,80005be4 <_malloc_r+0x4f2>
    80005906:	6785                	lui	a5,0x1
    80005908:	07fd                	addi	a5,a5,31 # 101f <_tbss_end+0xfdb>
    8000590a:	9a3e                	add	s4,s4,a5
    8000590c:	77fd                	lui	a5,0xfffff
    8000590e:	00fa7a33          	and	s4,s4,a5
    80005912:	85d2                	mv	a1,s4
    80005914:	854a                	mv	a0,s2
    80005916:	572000ef          	jal	ra,80005e88 <_sbrk_r>
    8000591a:	57fd                	li	a5,-1
    8000591c:	8b2a                	mv	s6,a0
    8000591e:	18f50e63          	beq	a0,a5,80005aba <_malloc_r+0x3c8>
    80005922:	19756a63          	bltu	a0,s7,80005ab6 <_malloc_r+0x3c4>
    80005926:	91818c13          	addi	s8,gp,-1768 # 800101f8 <__malloc_current_mallinfo>
    8000592a:	000c2783          	lw	a5,0(s8)
    8000592e:	0147873b          	addw	a4,a5,s4
    80005932:	00ec2023          	sw	a4,0(s8)
    80005936:	86ba                	mv	a3,a4
    80005938:	20ab9063          	bne	s7,a0,80005b38 <_malloc_r+0x446>
    8000593c:	03451793          	slli	a5,a0,0x34
    80005940:	1e079c63          	bnez	a5,80005b38 <_malloc_r+0x446>
    80005944:	0109bb03          	ld	s6,16(s3)
    80005948:	014a87b3          	add	a5,s5,s4
    8000594c:	0017e793          	ori	a5,a5,1
    80005950:	00fb3423          	sd	a5,8(s6)
    80005954:	8d018693          	addi	a3,gp,-1840 # 800101b0 <__malloc_max_sbrked_mem>
    80005958:	6290                	ld	a2,0(a3)
    8000595a:	00e67363          	bgeu	a2,a4,80005960 <_malloc_r+0x26e>
    8000595e:	e298                	sd	a4,0(a3)
    80005960:	8c818693          	addi	a3,gp,-1848 # 800101a8 <__malloc_max_total_mem>
    80005964:	6290                	ld	a2,0(a3)
    80005966:	00e67363          	bgeu	a2,a4,8000596c <_malloc_r+0x27a>
    8000596a:	e298                	sd	a4,0(a3)
    8000596c:	845a                	mv	s0,s6
    8000596e:	aa89                	j	80005ac0 <_malloc_r+0x3ce>
    80005970:	0014e793          	ori	a5,s1,1
    80005974:	e41c                	sd	a5,8(s0)
    80005976:	94a2                	add	s1,s1,s0
    80005978:	0099b823          	sd	s1,16(s3)
    8000597c:	00176713          	ori	a4,a4,1
    80005980:	854a                	mv	a0,s2
    80005982:	e498                	sd	a4,8(s1)
    80005984:	436000ef          	jal	ra,80005dba <__malloc_unlock>
    80005988:	01040513          	addi	a0,s0,16
    8000598c:	bbd9                	j	80005762 <_malloc_r+0x70>
    8000598e:	0089b503          	ld	a0,8(s3)
    80005992:	bd65                	j	8000584a <_malloc_r+0x158>
    80005994:	6c14                	ld	a3,24(s0)
    80005996:	6810                	ld	a2,16(s0)
    80005998:	bb4d                	j	8000574a <_malloc_r+0x58>
    8000599a:	6f80                	ld	s0,24(a5)
    8000599c:	2609                	addiw	a2,a2,2
    8000599e:	e48785e3          	beq	a5,s0,800057e8 <_malloc_r+0xf6>
    800059a2:	b345                	j	80005742 <_malloc_r+0x50>
    800059a4:	0097d713          	srli	a4,a5,0x9
    800059a8:	4691                	li	a3,4
    800059aa:	0ee6fc63          	bgeu	a3,a4,80005aa2 <_malloc_r+0x3b0>
    800059ae:	46d1                	li	a3,20
    800059b0:	26e6e663          	bltu	a3,a4,80005c1c <_malloc_r+0x52a>
    800059b4:	05c7059b          	addiw	a1,a4,92
    800059b8:	0015959b          	slliw	a1,a1,0x1
    800059bc:	05b7069b          	addiw	a3,a4,91
    800059c0:	058e                	slli	a1,a1,0x3
    800059c2:	95ce                	add	a1,a1,s3
    800059c4:	6198                	ld	a4,0(a1)
    800059c6:	15c1                	addi	a1,a1,-16
    800059c8:	00e59663          	bne	a1,a4,800059d4 <_malloc_r+0x2e2>
    800059cc:	ac39                	j	80005bea <_malloc_r+0x4f8>
    800059ce:	6b18                	ld	a4,16(a4)
    800059d0:	00e58663          	beq	a1,a4,800059dc <_malloc_r+0x2ea>
    800059d4:	6714                	ld	a3,8(a4)
    800059d6:	9af1                	andi	a3,a3,-4
    800059d8:	fed7ebe3          	bltu	a5,a3,800059ce <_malloc_r+0x2dc>
    800059dc:	6f0c                	ld	a1,24(a4)
    800059de:	ec0c                	sd	a1,24(s0)
    800059e0:	e818                	sd	a4,16(s0)
    800059e2:	e980                	sd	s0,16(a1)
    800059e4:	ef00                	sd	s0,24(a4)
    800059e6:	b595                	j	8000584a <_malloc_r+0x158>
    800059e8:	4751                	li	a4,20
    800059ea:	0ef77863          	bgeu	a4,a5,80005ada <_malloc_r+0x3e8>
    800059ee:	05400713          	li	a4,84
    800059f2:	24f76363          	bltu	a4,a5,80005c38 <_malloc_r+0x546>
    800059f6:	00c4d793          	srli	a5,s1,0xc
    800059fa:	06f7861b          	addiw	a2,a5,111 # fffffffffffff06f <_end+0xffffffff7cfede2f>
    800059fe:	0016169b          	slliw	a3,a2,0x1
    80005a02:	06e7851b          	addiw	a0,a5,110
    80005a06:	068e                	slli	a3,a3,0x3
    80005a08:	bb4d                	j	800057ba <_malloc_r+0xc8>
    80005a0a:	2e05                	addiw	t3,t3,1 # ffffffff80000001 <_end+0xfffffffefcfeedc1>
    80005a0c:	003e7793          	andi	a5,t3,3
    80005a10:	0541                	addi	a0,a0,16
    80005a12:	c3ed                	beqz	a5,80005af4 <_malloc_r+0x402>
    80005a14:	6d1c                	ld	a5,24(a0)
    80005a16:	bd95                	j	8000588a <_malloc_r+0x198>
    80005a18:	6810                	ld	a2,16(s0)
    80005a1a:	0014e593          	ori	a1,s1,1
    80005a1e:	e40c                	sd	a1,8(s0)
    80005a20:	ee1c                	sd	a5,24(a2)
    80005a22:	eb90                	sd	a2,16(a5)
    80005a24:	94a2                	add	s1,s1,s0
    80005a26:	0299b423          	sd	s1,40(s3)
    80005a2a:	0299b023          	sd	s1,32(s3)
    80005a2e:	0016e793          	ori	a5,a3,1
    80005a32:	0114bc23          	sd	a7,24(s1)
    80005a36:	0114b823          	sd	a7,16(s1)
    80005a3a:	e49c                	sd	a5,8(s1)
    80005a3c:	9722                	add	a4,a4,s0
    80005a3e:	854a                	mv	a0,s2
    80005a40:	e314                	sd	a3,0(a4)
    80005a42:	378000ef          	jal	ra,80005dba <__malloc_unlock>
    80005a46:	01040513          	addi	a0,s0,16
    80005a4a:	bb21                	j	80005762 <_malloc_r+0x70>
    80005a4c:	97a2                	add	a5,a5,s0
    80005a4e:	6798                	ld	a4,8(a5)
    80005a50:	854a                	mv	a0,s2
    80005a52:	00176713          	ori	a4,a4,1
    80005a56:	e798                	sd	a4,8(a5)
    80005a58:	362000ef          	jal	ra,80005dba <__malloc_unlock>
    80005a5c:	01040513          	addi	a0,s0,16
    80005a60:	b309                	j	80005762 <_malloc_r+0x70>
    80005a62:	0014e693          	ori	a3,s1,1
    80005a66:	e414                	sd	a3,8(s0)
    80005a68:	94a2                	add	s1,s1,s0
    80005a6a:	0299b423          	sd	s1,40(s3)
    80005a6e:	0299b023          	sd	s1,32(s3)
    80005a72:	00176693          	ori	a3,a4,1
    80005a76:	0114bc23          	sd	a7,24(s1)
    80005a7a:	0114b823          	sd	a7,16(s1)
    80005a7e:	e494                	sd	a3,8(s1)
    80005a80:	97a2                	add	a5,a5,s0
    80005a82:	854a                	mv	a0,s2
    80005a84:	e398                	sd	a4,0(a5)
    80005a86:	334000ef          	jal	ra,80005dba <__malloc_unlock>
    80005a8a:	01040513          	addi	a0,s0,16
    80005a8e:	b9d1                	j	80005762 <_malloc_r+0x70>
    80005a90:	0034d613          	srli	a2,s1,0x3
    80005a94:	0016079b          	addiw	a5,a2,1
    80005a98:	0017979b          	slliw	a5,a5,0x1
    80005a9c:	2601                	sext.w	a2,a2
    80005a9e:	078e                	slli	a5,a5,0x3
    80005aa0:	b179                	j	8000572e <_malloc_r+0x3c>
    80005aa2:	0067d713          	srli	a4,a5,0x6
    80005aa6:	0397059b          	addiw	a1,a4,57
    80005aaa:	0015959b          	slliw	a1,a1,0x1
    80005aae:	0387069b          	addiw	a3,a4,56
    80005ab2:	058e                	slli	a1,a1,0x3
    80005ab4:	b739                	j	800059c2 <_malloc_r+0x2d0>
    80005ab6:	07340963          	beq	s0,s3,80005b28 <_malloc_r+0x436>
    80005aba:	0109b403          	ld	s0,16(s3)
    80005abe:	641c                	ld	a5,8(s0)
    80005ac0:	9bf1                	andi	a5,a5,-4
    80005ac2:	40978733          	sub	a4,a5,s1
    80005ac6:	0097e563          	bltu	a5,s1,80005ad0 <_malloc_r+0x3de>
    80005aca:	47fd                	li	a5,31
    80005acc:	eae7c2e3          	blt	a5,a4,80005970 <_malloc_r+0x27e>
    80005ad0:	854a                	mv	a0,s2
    80005ad2:	2e8000ef          	jal	ra,80005dba <__malloc_unlock>
    80005ad6:	4501                	li	a0,0
    80005ad8:	b169                	j	80005762 <_malloc_r+0x70>
    80005ada:	05c7861b          	addiw	a2,a5,92
    80005ade:	0016169b          	slliw	a3,a2,0x1
    80005ae2:	05b7851b          	addiw	a0,a5,91
    80005ae6:	068e                	slli	a3,a3,0x3
    80005ae8:	b9c9                	j	800057ba <_malloc_r+0xc8>
    80005aea:	01033783          	ld	a5,16(t1)
    80005aee:	367d                	addiw	a2,a2,-1
    80005af0:	1e679563          	bne	a5,t1,80005cda <_malloc_r+0x5e8>
    80005af4:	00367793          	andi	a5,a2,3
    80005af8:	1341                	addi	t1,t1,-16
    80005afa:	fbe5                	bnez	a5,80005aea <_malloc_r+0x3f8>
    80005afc:	0089b703          	ld	a4,8(s3)
    80005b00:	fff5c793          	not	a5,a1
    80005b04:	8ff9                	and	a5,a5,a4
    80005b06:	00f9b423          	sd	a5,8(s3)
    80005b0a:	0586                	slli	a1,a1,0x1
    80005b0c:	dcb7e5e3          	bltu	a5,a1,800058d6 <_malloc_r+0x1e4>
    80005b10:	dc0583e3          	beqz	a1,800058d6 <_malloc_r+0x1e4>
    80005b14:	00f5f733          	and	a4,a1,a5
    80005b18:	e711                	bnez	a4,80005b24 <_malloc_r+0x432>
    80005b1a:	0586                	slli	a1,a1,0x1
    80005b1c:	00f5f733          	and	a4,a1,a5
    80005b20:	2e11                	addiw	t3,t3,4
    80005b22:	df65                	beqz	a4,80005b1a <_malloc_r+0x428>
    80005b24:	8672                	mv	a2,t3
    80005b26:	bb81                	j	80005876 <_malloc_r+0x184>
    80005b28:	91818c13          	addi	s8,gp,-1768 # 800101f8 <__malloc_current_mallinfo>
    80005b2c:	000c2783          	lw	a5,0(s8)
    80005b30:	014786bb          	addw	a3,a5,s4
    80005b34:	00dc2023          	sw	a3,0(s8)
    80005b38:	000cb703          	ld	a4,0(s9)
    80005b3c:	57fd                	li	a5,-1
    80005b3e:	10f70b63          	beq	a4,a5,80005c54 <_malloc_r+0x562>
    80005b42:	417b07b3          	sub	a5,s6,s7
    80005b46:	9fb5                	addw	a5,a5,a3
    80005b48:	00fc2023          	sw	a5,0(s8)
    80005b4c:	00fb7c93          	andi	s9,s6,15
    80005b50:	0a0c8663          	beqz	s9,80005bfc <_malloc_r+0x50a>
    80005b54:	6705                	lui	a4,0x1
    80005b56:	419b0b33          	sub	s6,s6,s9
    80005b5a:	01070b93          	addi	s7,a4,16 # 1010 <_tbss_end+0xfcc>
    80005b5e:	0b41                	addi	s6,s6,16
    80005b60:	419b8bb3          	sub	s7,s7,s9
    80005b64:	9a5a                	add	s4,s4,s6
    80005b66:	177d                	addi	a4,a4,-1
    80005b68:	414b8bb3          	sub	s7,s7,s4
    80005b6c:	00ebfbb3          	and	s7,s7,a4
    80005b70:	85de                	mv	a1,s7
    80005b72:	854a                	mv	a0,s2
    80005b74:	314000ef          	jal	ra,80005e88 <_sbrk_r>
    80005b78:	57fd                	li	a5,-1
    80005b7a:	12f50063          	beq	a0,a5,80005c9a <_malloc_r+0x5a8>
    80005b7e:	41650533          	sub	a0,a0,s6
    80005b82:	000b869b          	sext.w	a3,s7
    80005b86:	01750a33          	add	s4,a0,s7
    80005b8a:	000c2703          	lw	a4,0(s8)
    80005b8e:	0169b823          	sd	s6,16(s3)
    80005b92:	001a6793          	ori	a5,s4,1
    80005b96:	9f35                	addw	a4,a4,a3
    80005b98:	00ec2023          	sw	a4,0(s8)
    80005b9c:	00fb3423          	sd	a5,8(s6)
    80005ba0:	db340ae3          	beq	s0,s3,80005954 <_malloc_r+0x262>
    80005ba4:	467d                	li	a2,31
    80005ba6:	0b567a63          	bgeu	a2,s5,80005c5a <_malloc_r+0x568>
    80005baa:	6414                	ld	a3,8(s0)
    80005bac:	fe8a8793          	addi	a5,s5,-24
    80005bb0:	9bc1                	andi	a5,a5,-16
    80005bb2:	8a85                	andi	a3,a3,1
    80005bb4:	8edd                	or	a3,a3,a5
    80005bb6:	e414                	sd	a3,8(s0)
    80005bb8:	45a5                	li	a1,9
    80005bba:	00f406b3          	add	a3,s0,a5
    80005bbe:	e68c                	sd	a1,8(a3)
    80005bc0:	ea8c                	sd	a1,16(a3)
    80005bc2:	00f66563          	bltu	a2,a5,80005bcc <_malloc_r+0x4da>
    80005bc6:	008b3783          	ld	a5,8(s6)
    80005bca:	b369                	j	80005954 <_malloc_r+0x262>
    80005bcc:	01040593          	addi	a1,s0,16
    80005bd0:	854a                	mv	a0,s2
    80005bd2:	68c030ef          	jal	ra,8000925e <_free_r>
    80005bd6:	0109bb03          	ld	s6,16(s3)
    80005bda:	000c2703          	lw	a4,0(s8)
    80005bde:	008b3783          	ld	a5,8(s6)
    80005be2:	bb8d                	j	80005954 <_malloc_r+0x262>
    80005be4:	020a0a13          	addi	s4,s4,32
    80005be8:	b32d                	j	80005912 <_malloc_r+0x220>
    80005bea:	4026d69b          	sraiw	a3,a3,0x2
    80005bee:	4785                	li	a5,1
    80005bf0:	00d797b3          	sll	a5,a5,a3
    80005bf4:	8d5d                	or	a0,a0,a5
    80005bf6:	00a9b423          	sd	a0,8(s3)
    80005bfa:	b3d5                	j	800059de <_malloc_r+0x2ec>
    80005bfc:	014b0bb3          	add	s7,s6,s4
    80005c00:	41700bb3          	neg	s7,s7
    80005c04:	1bd2                	slli	s7,s7,0x34
    80005c06:	034bdb93          	srli	s7,s7,0x34
    80005c0a:	85de                	mv	a1,s7
    80005c0c:	854a                	mv	a0,s2
    80005c0e:	27a000ef          	jal	ra,80005e88 <_sbrk_r>
    80005c12:	57fd                	li	a5,-1
    80005c14:	4681                	li	a3,0
    80005c16:	f6f514e3          	bne	a0,a5,80005b7e <_malloc_r+0x48c>
    80005c1a:	bf85                	j	80005b8a <_malloc_r+0x498>
    80005c1c:	05400693          	li	a3,84
    80005c20:	04e6e163          	bltu	a3,a4,80005c62 <_malloc_r+0x570>
    80005c24:	00c7d713          	srli	a4,a5,0xc
    80005c28:	06f7059b          	addiw	a1,a4,111
    80005c2c:	0015959b          	slliw	a1,a1,0x1
    80005c30:	06e7069b          	addiw	a3,a4,110
    80005c34:	058e                	slli	a1,a1,0x3
    80005c36:	b371                	j	800059c2 <_malloc_r+0x2d0>
    80005c38:	15400713          	li	a4,340
    80005c3c:	04f76163          	bltu	a4,a5,80005c7e <_malloc_r+0x58c>
    80005c40:	00f4d793          	srli	a5,s1,0xf
    80005c44:	0787861b          	addiw	a2,a5,120
    80005c48:	0016169b          	slliw	a3,a2,0x1
    80005c4c:	0777851b          	addiw	a0,a5,119
    80005c50:	068e                	slli	a3,a3,0x3
    80005c52:	b6a5                	j	800057ba <_malloc_r+0xc8>
    80005c54:	016cb023          	sd	s6,0(s9)
    80005c58:	bdd5                	j	80005b4c <_malloc_r+0x45a>
    80005c5a:	4785                	li	a5,1
    80005c5c:	00fb3423          	sd	a5,8(s6)
    80005c60:	bd85                	j	80005ad0 <_malloc_r+0x3de>
    80005c62:	15400693          	li	a3,340
    80005c66:	04e6e063          	bltu	a3,a4,80005ca6 <_malloc_r+0x5b4>
    80005c6a:	00f7d713          	srli	a4,a5,0xf
    80005c6e:	0787059b          	addiw	a1,a4,120
    80005c72:	0015959b          	slliw	a1,a1,0x1
    80005c76:	0777069b          	addiw	a3,a4,119
    80005c7a:	058e                	slli	a1,a1,0x3
    80005c7c:	b399                	j	800059c2 <_malloc_r+0x2d0>
    80005c7e:	55400713          	li	a4,1364
    80005c82:	04f76063          	bltu	a4,a5,80005cc2 <_malloc_r+0x5d0>
    80005c86:	0124d793          	srli	a5,s1,0x12
    80005c8a:	07d7861b          	addiw	a2,a5,125
    80005c8e:	0016169b          	slliw	a3,a2,0x1
    80005c92:	07c7851b          	addiw	a0,a5,124
    80005c96:	068e                	slli	a3,a3,0x3
    80005c98:	b60d                	j	800057ba <_malloc_r+0xc8>
    80005c9a:	1cc1                	addi	s9,s9,-16
    80005c9c:	9a66                	add	s4,s4,s9
    80005c9e:	416a0a33          	sub	s4,s4,s6
    80005ca2:	4681                	li	a3,0
    80005ca4:	b5dd                	j	80005b8a <_malloc_r+0x498>
    80005ca6:	55400693          	li	a3,1364
    80005caa:	02e6e363          	bltu	a3,a4,80005cd0 <_malloc_r+0x5de>
    80005cae:	0127d713          	srli	a4,a5,0x12
    80005cb2:	07d7059b          	addiw	a1,a4,125
    80005cb6:	0015959b          	slliw	a1,a1,0x1
    80005cba:	07c7069b          	addiw	a3,a4,124
    80005cbe:	058e                	slli	a1,a1,0x3
    80005cc0:	b309                	j	800059c2 <_malloc_r+0x2d0>
    80005cc2:	7f000693          	li	a3,2032
    80005cc6:	07f00613          	li	a2,127
    80005cca:	07e00513          	li	a0,126
    80005cce:	b4f5                	j	800057ba <_malloc_r+0xc8>
    80005cd0:	7f000593          	li	a1,2032
    80005cd4:	07e00693          	li	a3,126
    80005cd8:	b1ed                	j	800059c2 <_malloc_r+0x2d0>
    80005cda:	0089b783          	ld	a5,8(s3)
    80005cde:	b535                	j	80005b0a <_malloc_r+0x418>

Disassembly of section .text.memmove:

0000000080005ce0 <memmove>:
    80005ce0:	02a5f263          	bgeu	a1,a0,80005d04 <memmove+0x24>
    80005ce4:	00c58733          	add	a4,a1,a2
    80005ce8:	00e57e63          	bgeu	a0,a4,80005d04 <memmove+0x24>
    80005cec:	00c507b3          	add	a5,a0,a2
    80005cf0:	ca1d                	beqz	a2,80005d26 <memmove+0x46>
    80005cf2:	fff74683          	lbu	a3,-1(a4)
    80005cf6:	17fd                	addi	a5,a5,-1
    80005cf8:	177d                	addi	a4,a4,-1
    80005cfa:	00d78023          	sb	a3,0(a5)
    80005cfe:	fef51ae3          	bne	a0,a5,80005cf2 <memmove+0x12>
    80005d02:	8082                	ret
    80005d04:	47fd                	li	a5,31
    80005d06:	02c7e163          	bltu	a5,a2,80005d28 <memmove+0x48>
    80005d0a:	87aa                	mv	a5,a0
    80005d0c:	fff60693          	addi	a3,a2,-1
    80005d10:	c24d                	beqz	a2,80005db2 <memmove+0xd2>
    80005d12:	0685                	addi	a3,a3,1
    80005d14:	96be                	add	a3,a3,a5
    80005d16:	0005c703          	lbu	a4,0(a1)
    80005d1a:	0785                	addi	a5,a5,1
    80005d1c:	0585                	addi	a1,a1,1
    80005d1e:	fee78fa3          	sb	a4,-1(a5)
    80005d22:	fed79ae3          	bne	a5,a3,80005d16 <memmove+0x36>
    80005d26:	8082                	ret
    80005d28:	00b567b3          	or	a5,a0,a1
    80005d2c:	8b9d                	andi	a5,a5,7
    80005d2e:	efb5                	bnez	a5,80005daa <memmove+0xca>
    80005d30:	fe060893          	addi	a7,a2,-32
    80005d34:	fe08f893          	andi	a7,a7,-32
    80005d38:	02088893          	addi	a7,a7,32
    80005d3c:	011507b3          	add	a5,a0,a7
    80005d40:	86ae                	mv	a3,a1
    80005d42:	872a                	mv	a4,a0
    80005d44:	0006b803          	ld	a6,0(a3)
    80005d48:	02068693          	addi	a3,a3,32
    80005d4c:	02070713          	addi	a4,a4,32
    80005d50:	ff073023          	sd	a6,-32(a4)
    80005d54:	fe86b803          	ld	a6,-24(a3)
    80005d58:	ff073423          	sd	a6,-24(a4)
    80005d5c:	ff06b803          	ld	a6,-16(a3)
    80005d60:	ff073823          	sd	a6,-16(a4)
    80005d64:	ff86b803          	ld	a6,-8(a3)
    80005d68:	ff073c23          	sd	a6,-8(a4)
    80005d6c:	fcf71ce3          	bne	a4,a5,80005d44 <memmove+0x64>
    80005d70:	01867713          	andi	a4,a2,24
    80005d74:	95c6                	add	a1,a1,a7
    80005d76:	01f67813          	andi	a6,a2,31
    80005d7a:	cf0d                	beqz	a4,80005db4 <memmove+0xd4>
    80005d7c:	86ae                	mv	a3,a1
    80005d7e:	873e                	mv	a4,a5
    80005d80:	01078eb3          	add	t4,a5,a6
    80005d84:	4e1d                	li	t3,7
    80005d86:	0006b303          	ld	t1,0(a3)
    80005d8a:	0721                	addi	a4,a4,8
    80005d8c:	40ee88b3          	sub	a7,t4,a4
    80005d90:	fe673c23          	sd	t1,-8(a4)
    80005d94:	06a1                	addi	a3,a3,8
    80005d96:	ff1e68e3          	bltu	t3,a7,80005d86 <memmove+0xa6>
    80005d9a:	ff880713          	addi	a4,a6,-8
    80005d9e:	9b61                	andi	a4,a4,-8
    80005da0:	0721                	addi	a4,a4,8
    80005da2:	8a1d                	andi	a2,a2,7
    80005da4:	97ba                	add	a5,a5,a4
    80005da6:	95ba                	add	a1,a1,a4
    80005da8:	b795                	j	80005d0c <memmove+0x2c>
    80005daa:	fff60693          	addi	a3,a2,-1
    80005dae:	87aa                	mv	a5,a0
    80005db0:	b78d                	j	80005d12 <memmove+0x32>
    80005db2:	8082                	ret
    80005db4:	8642                	mv	a2,a6
    80005db6:	bf99                	j	80005d0c <memmove+0x2c>

Disassembly of section .text.__malloc_lock:

0000000080005db8 <__malloc_lock>:
    80005db8:	8082                	ret

Disassembly of section .text.__malloc_unlock:

0000000080005dba <__malloc_unlock>:
    80005dba:	8082                	ret

Disassembly of section .text._putc_r:

0000000080005dbc <_putc_r>:
    80005dbc:	1101                	addi	sp,sp,-32
    80005dbe:	e84a                	sd	s2,16(sp)
    80005dc0:	ec06                	sd	ra,24(sp)
    80005dc2:	892a                	mv	s2,a0
    80005dc4:	c119                	beqz	a0,80005dca <_putc_r+0xe>
    80005dc6:	493c                	lw	a5,80(a0)
    80005dc8:	cb9d                	beqz	a5,80005dfe <_putc_r+0x42>
    80005dca:	465c                	lw	a5,12(a2)
    80005dcc:	fff7871b          	addiw	a4,a5,-1
    80005dd0:	c658                	sw	a4,12(a2)
    80005dd2:	00075a63          	bgez	a4,80005de6 <_putc_r+0x2a>
    80005dd6:	561c                	lw	a5,40(a2)
    80005dd8:	02f74a63          	blt	a4,a5,80005e0c <_putc_r+0x50>
    80005ddc:	0ff5f793          	zext.b	a5,a1
    80005de0:	4729                	li	a4,10
    80005de2:	02e78563          	beq	a5,a4,80005e0c <_putc_r+0x50>
    80005de6:	621c                	ld	a5,0(a2)
    80005de8:	0ff5f513          	zext.b	a0,a1
    80005dec:	00178713          	addi	a4,a5,1
    80005df0:	e218                	sd	a4,0(a2)
    80005df2:	00b78023          	sb	a1,0(a5)
    80005df6:	60e2                	ld	ra,24(sp)
    80005df8:	6942                	ld	s2,16(sp)
    80005dfa:	6105                	addi	sp,sp,32
    80005dfc:	8082                	ret
    80005dfe:	e432                	sd	a2,8(sp)
    80005e00:	e02e                	sd	a1,0(sp)
    80005e02:	24a030ef          	jal	ra,8000904c <__sinit>
    80005e06:	6622                	ld	a2,8(sp)
    80005e08:	6582                	ld	a1,0(sp)
    80005e0a:	b7c1                	j	80005dca <_putc_r+0xe>
    80005e0c:	60e2                	ld	ra,24(sp)
    80005e0e:	854a                	mv	a0,s2
    80005e10:	6942                	ld	s2,16(sp)
    80005e12:	6105                	addi	sp,sp,32
    80005e14:	3f70206f          	j	80008a0a <__swbuf_r>

Disassembly of section .text.putc:

0000000080005e18 <putc>:
    80005e18:	1101                	addi	sp,sp,-32
    80005e1a:	e822                	sd	s0,16(sp)
    80005e1c:	e426                	sd	s1,8(sp)
    80005e1e:	e04a                	sd	s2,0(sp)
    80005e20:	ec06                	sd	ra,24(sp)
    80005e22:	8a01b903          	ld	s2,-1888(gp) # 80010180 <_impure_ptr>
    80005e26:	84aa                	mv	s1,a0
    80005e28:	842e                	mv	s0,a1
    80005e2a:	00090563          	beqz	s2,80005e34 <putc+0x1c>
    80005e2e:	05092783          	lw	a5,80(s2)
    80005e32:	cf8d                	beqz	a5,80005e6c <putc+0x54>
    80005e34:	445c                	lw	a5,12(s0)
    80005e36:	fff7871b          	addiw	a4,a5,-1
    80005e3a:	c458                	sw	a4,12(s0)
    80005e3c:	00075a63          	bgez	a4,80005e50 <putc+0x38>
    80005e40:	541c                	lw	a5,40(s0)
    80005e42:	02f74963          	blt	a4,a5,80005e74 <putc+0x5c>
    80005e46:	0ff4f793          	zext.b	a5,s1
    80005e4a:	4729                	li	a4,10
    80005e4c:	02e78463          	beq	a5,a4,80005e74 <putc+0x5c>
    80005e50:	601c                	ld	a5,0(s0)
    80005e52:	0ff4f513          	zext.b	a0,s1
    80005e56:	00178713          	addi	a4,a5,1
    80005e5a:	e018                	sd	a4,0(s0)
    80005e5c:	00978023          	sb	s1,0(a5)
    80005e60:	60e2                	ld	ra,24(sp)
    80005e62:	6442                	ld	s0,16(sp)
    80005e64:	64a2                	ld	s1,8(sp)
    80005e66:	6902                	ld	s2,0(sp)
    80005e68:	6105                	addi	sp,sp,32
    80005e6a:	8082                	ret
    80005e6c:	854a                	mv	a0,s2
    80005e6e:	1de030ef          	jal	ra,8000904c <__sinit>
    80005e72:	b7c9                	j	80005e34 <putc+0x1c>
    80005e74:	8622                	mv	a2,s0
    80005e76:	6442                	ld	s0,16(sp)
    80005e78:	60e2                	ld	ra,24(sp)
    80005e7a:	85a6                	mv	a1,s1
    80005e7c:	854a                	mv	a0,s2
    80005e7e:	64a2                	ld	s1,8(sp)
    80005e80:	6902                	ld	s2,0(sp)
    80005e82:	6105                	addi	sp,sp,32
    80005e84:	3870206f          	j	80008a0a <__swbuf_r>

Disassembly of section .text._sbrk_r:

0000000080005e88 <_sbrk_r>:
    80005e88:	1141                	addi	sp,sp,-16
    80005e8a:	e022                	sd	s0,0(sp)
    80005e8c:	842a                	mv	s0,a0
    80005e8e:	852e                	mv	a0,a1
    80005e90:	8e01a423          	sw	zero,-1816(gp) # 800101c8 <errno>
    80005e94:	e406                	sd	ra,8(sp)
    80005e96:	74c070ef          	jal	ra,8000d5e2 <_sbrk>
    80005e9a:	57fd                	li	a5,-1
    80005e9c:	00f50663          	beq	a0,a5,80005ea8 <_sbrk_r+0x20>
    80005ea0:	60a2                	ld	ra,8(sp)
    80005ea2:	6402                	ld	s0,0(sp)
    80005ea4:	0141                	addi	sp,sp,16
    80005ea6:	8082                	ret
    80005ea8:	8e81a783          	lw	a5,-1816(gp) # 800101c8 <errno>
    80005eac:	dbf5                	beqz	a5,80005ea0 <_sbrk_r+0x18>
    80005eae:	60a2                	ld	ra,8(sp)
    80005eb0:	c01c                	sw	a5,0(s0)
    80005eb2:	6402                	ld	s0,0(sp)
    80005eb4:	0141                	addi	sp,sp,16
    80005eb6:	8082                	ret

Disassembly of section .text.gettimeofday:

0000000080005eb8 <gettimeofday>:
    80005eb8:	862e                	mv	a2,a1
    80005eba:	85aa                	mv	a1,a0
    80005ebc:	8a01b503          	ld	a0,-1888(gp) # 80010180 <_impure_ptr>
    80005ec0:	21b0306f          	j	800098da <_gettimeofday_r>

Disassembly of section .text.__sprint_r.part.0:

0000000080005ec4 <__sprint_r.part.0>:
    80005ec4:	0ac5a783          	lw	a5,172(a1)
    80005ec8:	715d                	addi	sp,sp,-80
    80005eca:	ec56                	sd	s5,24(sp)
    80005ecc:	83b5                	srli	a5,a5,0xd
    80005ece:	e486                	sd	ra,72(sp)
    80005ed0:	e0a2                	sd	s0,64(sp)
    80005ed2:	fc26                	sd	s1,56(sp)
    80005ed4:	f84a                	sd	s2,48(sp)
    80005ed6:	f44e                	sd	s3,40(sp)
    80005ed8:	f052                	sd	s4,32(sp)
    80005eda:	e85a                	sd	s6,16(sp)
    80005edc:	e45e                	sd	s7,8(sp)
    80005ede:	8b85                	andi	a5,a5,1
    80005ee0:	8ab2                	mv	s5,a2
    80005ee2:	c3c1                	beqz	a5,80005f62 <__sprint_r.part.0+0x9e>
    80005ee4:	6a1c                	ld	a5,16(a2)
    80005ee6:	00063b03          	ld	s6,0(a2)
    80005eea:	892e                	mv	s2,a1
    80005eec:	89aa                	mv	s3,a0
    80005eee:	5a7d                	li	s4,-1
    80005ef0:	c7bd                	beqz	a5,80005f5e <__sprint_r.part.0+0x9a>
    80005ef2:	008b3483          	ld	s1,8(s6)
    80005ef6:	000b3403          	ld	s0,0(s6)
    80005efa:	8089                	srli	s1,s1,0x2
    80005efc:	00048b9b          	sext.w	s7,s1
    80005f00:	05705863          	blez	s7,80005f50 <__sprint_r.part.0+0x8c>
    80005f04:	34fd                	addiw	s1,s1,-1
    80005f06:	02049793          	slli	a5,s1,0x20
    80005f0a:	01e7d493          	srli	s1,a5,0x1e
    80005f0e:	00440793          	addi	a5,s0,4
    80005f12:	94be                	add	s1,s1,a5
    80005f14:	a019                	j	80005f1a <__sprint_r.part.0+0x56>
    80005f16:	02848b63          	beq	s1,s0,80005f4c <__sprint_r.part.0+0x88>
    80005f1a:	400c                	lw	a1,0(s0)
    80005f1c:	864a                	mv	a2,s2
    80005f1e:	854e                	mv	a0,s3
    80005f20:	202030ef          	jal	ra,80009122 <_fputwc_r>
    80005f24:	2501                	sext.w	a0,a0
    80005f26:	0411                	addi	s0,s0,4
    80005f28:	ff4517e3          	bne	a0,s4,80005f16 <__sprint_r.part.0+0x52>
    80005f2c:	557d                	li	a0,-1
    80005f2e:	60a6                	ld	ra,72(sp)
    80005f30:	6406                	ld	s0,64(sp)
    80005f32:	000ab823          	sd	zero,16(s5)
    80005f36:	000aa423          	sw	zero,8(s5)
    80005f3a:	74e2                	ld	s1,56(sp)
    80005f3c:	7942                	ld	s2,48(sp)
    80005f3e:	79a2                	ld	s3,40(sp)
    80005f40:	7a02                	ld	s4,32(sp)
    80005f42:	6ae2                	ld	s5,24(sp)
    80005f44:	6b42                	ld	s6,16(sp)
    80005f46:	6ba2                	ld	s7,8(sp)
    80005f48:	6161                	addi	sp,sp,80
    80005f4a:	8082                	ret
    80005f4c:	010ab783          	ld	a5,16(s5)
    80005f50:	0b8a                	slli	s7,s7,0x2
    80005f52:	417787b3          	sub	a5,a5,s7
    80005f56:	00fab823          	sd	a5,16(s5)
    80005f5a:	0b41                	addi	s6,s6,16
    80005f5c:	fbd9                	bnez	a5,80005ef2 <__sprint_r.part.0+0x2e>
    80005f5e:	4501                	li	a0,0
    80005f60:	b7f9                	j	80005f2e <__sprint_r.part.0+0x6a>
    80005f62:	54a030ef          	jal	ra,800094ac <__sfvwrite_r>
    80005f66:	b7e1                	j	80005f2e <__sprint_r.part.0+0x6a>

Disassembly of section .text.__sprint_r:

0000000080005f68 <__sprint_r>:
    80005f68:	6a18                	ld	a4,16(a2)
    80005f6a:	c311                	beqz	a4,80005f6e <__sprint_r+0x6>
    80005f6c:	bfa1                	j	80005ec4 <__sprint_r.part.0>
    80005f6e:	00062423          	sw	zero,8(a2)
    80005f72:	4501                	li	a0,0
    80005f74:	8082                	ret

Disassembly of section .text._vfiprintf_r:

0000000080005f76 <_vfiprintf_r>:
    80005f76:	7105                	addi	sp,sp,-480
    80005f78:	fb52                	sd	s4,432(sp)
    80005f7a:	f756                	sd	s5,424(sp)
    80005f7c:	ef5e                	sd	s7,408(sp)
    80005f7e:	feee                	sd	s11,376(sp)
    80005f80:	ef86                	sd	ra,472(sp)
    80005f82:	eba2                	sd	s0,464(sp)
    80005f84:	e7a6                	sd	s1,456(sp)
    80005f86:	e3ca                	sd	s2,448(sp)
    80005f88:	ff4e                	sd	s3,440(sp)
    80005f8a:	f35a                	sd	s6,416(sp)
    80005f8c:	eb62                	sd	s8,400(sp)
    80005f8e:	e766                	sd	s9,392(sp)
    80005f90:	e36a                	sd	s10,384(sp)
    80005f92:	8aaa                	mv	s5,a0
    80005f94:	8a2e                	mv	s4,a1
    80005f96:	8db2                	mv	s11,a2
    80005f98:	8bb6                	mv	s7,a3
    80005f9a:	c501                	beqz	a0,80005fa2 <_vfiprintf_r+0x2c>
    80005f9c:	493c                	lw	a5,80(a0)
    80005f9e:	3a078063          	beqz	a5,8000633e <_vfiprintf_r+0x3c8>
    80005fa2:	010a1783          	lh	a5,16(s4)
    80005fa6:	03279713          	slli	a4,a5,0x32
    80005faa:	02074163          	bltz	a4,80005fcc <_vfiprintf_r+0x56>
    80005fae:	0aca2703          	lw	a4,172(s4)
    80005fb2:	6689                	lui	a3,0x2
    80005fb4:	8fd5                	or	a5,a5,a3
    80005fb6:	76f9                	lui	a3,0xffffe
    80005fb8:	0107979b          	slliw	a5,a5,0x10
    80005fbc:	16fd                	addi	a3,a3,-1 # ffffffffffffdfff <_end+0xffffffff7cfecdbf>
    80005fbe:	4107d79b          	sraiw	a5,a5,0x10
    80005fc2:	8f75                	and	a4,a4,a3
    80005fc4:	00fa1823          	sh	a5,16(s4)
    80005fc8:	0aea2623          	sw	a4,172(s4)
    80005fcc:	0087f713          	andi	a4,a5,8
    80005fd0:	cb61                	beqz	a4,800060a0 <_vfiprintf_r+0x12a>
    80005fd2:	018a3703          	ld	a4,24(s4)
    80005fd6:	c769                	beqz	a4,800060a0 <_vfiprintf_r+0x12a>
    80005fd8:	8be9                	andi	a5,a5,26
    80005fda:	4729                	li	a4,10
    80005fdc:	0ce78e63          	beq	a5,a4,800060b8 <_vfiprintf_r+0x142>
    80005fe0:	0f010993          	addi	s3,sp,240
    80005fe4:	4c81                	li	s9,0
    80005fe6:	8d66                	mv	s10,s9
    80005fe8:	f8ce                	sd	s3,112(sp)
    80005fea:	e102                	sd	zero,128(sp)
    80005fec:	dc82                	sw	zero,120(sp)
    80005fee:	844e                	mv	s0,s3
    80005ff0:	e402                	sd	zero,8(sp)
    80005ff2:	fc02                	sd	zero,56(sp)
    80005ff4:	f802                	sd	zero,48(sp)
    80005ff6:	e082                	sd	zero,64(sp)
    80005ff8:	00008c17          	auipc	s8,0x8
    80005ffc:	4f0c0c13          	addi	s8,s8,1264 # 8000e4e8 <__clz_tab+0x5e0>
    80006000:	4941                	li	s2,16
    80006002:	00008b17          	auipc	s6,0x8
    80006006:	656b0b13          	addi	s6,s6,1622 # 8000e658 <zeroes.0>
    8000600a:	8cde                	mv	s9,s7
    8000600c:	000dc783          	lbu	a5,0(s11)
    80006010:	24078f63          	beqz	a5,8000626e <_vfiprintf_r+0x2f8>
    80006014:	84ee                	mv	s1,s11
    80006016:	02500713          	li	a4,37
    8000601a:	2ae78763          	beq	a5,a4,800062c8 <_vfiprintf_r+0x352>
    8000601e:	0014c783          	lbu	a5,1(s1)
    80006022:	0485                	addi	s1,s1,1
    80006024:	fbfd                	bnez	a5,8000601a <_vfiprintf_r+0xa4>
    80006026:	41b48bbb          	subw	s7,s1,s11
    8000602a:	240b8263          	beqz	s7,8000626e <_vfiprintf_r+0x2f8>
    8000602e:	57e6                	lw	a5,120(sp)
    80006030:	670a                	ld	a4,128(sp)
    80006032:	01b43023          	sd	s11,0(s0)
    80006036:	0017861b          	addiw	a2,a5,1
    8000603a:	975e                	add	a4,a4,s7
    8000603c:	01743423          	sd	s7,8(s0)
    80006040:	e13a                	sd	a4,128(sp)
    80006042:	dcb2                	sw	a2,120(sp)
    80006044:	479d                	li	a5,7
    80006046:	0441                	addi	s0,s0,16
    80006048:	00c7db63          	bge	a5,a2,8000605e <_vfiprintf_r+0xe8>
    8000604c:	120703e3          	beqz	a4,80006972 <_vfiprintf_r+0x9fc>
    80006050:	1890                	addi	a2,sp,112
    80006052:	85d2                	mv	a1,s4
    80006054:	8556                	mv	a0,s5
    80006056:	e6fff0ef          	jal	ra,80005ec4 <__sprint_r.part.0>
    8000605a:	ed51                	bnez	a0,800060f6 <_vfiprintf_r+0x180>
    8000605c:	844e                	mv	s0,s3
    8000605e:	0004c783          	lbu	a5,0(s1)
    80006062:	017d0d3b          	addw	s10,s10,s7
    80006066:	20078463          	beqz	a5,8000626e <_vfiprintf_r+0x2f8>
    8000606a:	0014c783          	lbu	a5,1(s1)
    8000606e:	00148d93          	addi	s11,s1,1
    80006072:	060103a3          	sb	zero,103(sp)
    80006076:	54fd                	li	s1,-1
    80006078:	4881                	li	a7,0
    8000607a:	4801                	li	a6,0
    8000607c:	05a00b93          	li	s7,90
    80006080:	0d85                	addi	s11,s11,1
    80006082:	2781                	sext.w	a5,a5
    80006084:	fe07871b          	addiw	a4,a5,-32
    80006088:	0007069b          	sext.w	a3,a4
    8000608c:	0cdbe763          	bltu	s7,a3,8000615a <_vfiprintf_r+0x1e4>
    80006090:	02071693          	slli	a3,a4,0x20
    80006094:	01e6d713          	srli	a4,a3,0x1e
    80006098:	9762                	add	a4,a4,s8
    8000609a:	4318                	lw	a4,0(a4)
    8000609c:	9762                	add	a4,a4,s8
    8000609e:	8702                	jr	a4
    800060a0:	85d2                	mv	a1,s4
    800060a2:	8556                	mv	a0,s5
    800060a4:	263020ef          	jal	ra,80008b06 <__swsetup_r>
    800060a8:	3c0510e3          	bnez	a0,80006c68 <_vfiprintf_r+0xcf2>
    800060ac:	010a1783          	lh	a5,16(s4)
    800060b0:	4729                	li	a4,10
    800060b2:	8be9                	andi	a5,a5,26
    800060b4:	f2e796e3          	bne	a5,a4,80005fe0 <_vfiprintf_r+0x6a>
    800060b8:	012a1783          	lh	a5,18(s4)
    800060bc:	f207c2e3          	bltz	a5,80005fe0 <_vfiprintf_r+0x6a>
    800060c0:	645e                	ld	s0,464(sp)
    800060c2:	60fe                	ld	ra,472(sp)
    800060c4:	64be                	ld	s1,456(sp)
    800060c6:	691e                	ld	s2,448(sp)
    800060c8:	79fa                	ld	s3,440(sp)
    800060ca:	7b1a                	ld	s6,416(sp)
    800060cc:	6c5a                	ld	s8,400(sp)
    800060ce:	6cba                	ld	s9,392(sp)
    800060d0:	6d1a                	ld	s10,384(sp)
    800060d2:	86de                	mv	a3,s7
    800060d4:	866e                	mv	a2,s11
    800060d6:	6bfa                	ld	s7,408(sp)
    800060d8:	7df6                	ld	s11,376(sp)
    800060da:	85d2                	mv	a1,s4
    800060dc:	8556                	mv	a0,s5
    800060de:	7a5a                	ld	s4,432(sp)
    800060e0:	7aba                	ld	s5,424(sp)
    800060e2:	613d                	addi	sp,sp,480
    800060e4:	3bd0006f          	j	80006ca0 <__sbprintf>
    800060e8:	1890                	addi	a2,sp,112
    800060ea:	85d2                	mv	a1,s4
    800060ec:	8556                	mv	a0,s5
    800060ee:	dd7ff0ef          	jal	ra,80005ec4 <__sprint_r.part.0>
    800060f2:	16050863          	beqz	a0,80006262 <_vfiprintf_r+0x2ec>
    800060f6:	8cea                	mv	s9,s10
    800060f8:	010a5783          	lhu	a5,16(s4)
    800060fc:	0407f793          	andi	a5,a5,64
    80006100:	360794e3          	bnez	a5,80006c68 <_vfiprintf_r+0xcf2>
    80006104:	60fe                	ld	ra,472(sp)
    80006106:	645e                	ld	s0,464(sp)
    80006108:	64be                	ld	s1,456(sp)
    8000610a:	691e                	ld	s2,448(sp)
    8000610c:	79fa                	ld	s3,440(sp)
    8000610e:	7a5a                	ld	s4,432(sp)
    80006110:	7aba                	ld	s5,424(sp)
    80006112:	7b1a                	ld	s6,416(sp)
    80006114:	6bfa                	ld	s7,408(sp)
    80006116:	6c5a                	ld	s8,400(sp)
    80006118:	6d1a                	ld	s10,384(sp)
    8000611a:	7df6                	ld	s11,376(sp)
    8000611c:	8566                	mv	a0,s9
    8000611e:	6cba                	ld	s9,392(sp)
    80006120:	613d                	addi	sp,sp,480
    80006122:	8082                	ret
    80006124:	4881                	li	a7,0
    80006126:	4625                	li	a2,9
    80006128:	000dc683          	lbu	a3,0(s11)
    8000612c:	0028971b          	slliw	a4,a7,0x2
    80006130:	011708bb          	addw	a7,a4,a7
    80006134:	fd07879b          	addiw	a5,a5,-48
    80006138:	0018989b          	slliw	a7,a7,0x1
    8000613c:	fd06871b          	addiw	a4,a3,-48
    80006140:	011788bb          	addw	a7,a5,a7
    80006144:	0d85                	addi	s11,s11,1
    80006146:	0006879b          	sext.w	a5,a3
    8000614a:	fce67fe3          	bgeu	a2,a4,80006128 <_vfiprintf_r+0x1b2>
    8000614e:	fe07871b          	addiw	a4,a5,-32
    80006152:	0007069b          	sext.w	a3,a4
    80006156:	f2dbfde3          	bgeu	s7,a3,80006090 <_vfiprintf_r+0x11a>
    8000615a:	10078a63          	beqz	a5,8000626e <_vfiprintf_r+0x2f8>
    8000615e:	08f10423          	sb	a5,136(sp)
    80006162:	060103a3          	sb	zero,103(sp)
    80006166:	4e05                	li	t3,1
    80006168:	4305                	li	t1,1
    8000616a:	08810b93          	addi	s7,sp,136
    8000616e:	4481                	li	s1,0
    80006170:	00287f93          	andi	t6,a6,2
    80006174:	000f8363          	beqz	t6,8000617a <_vfiprintf_r+0x204>
    80006178:	2e09                	addiw	t3,t3,2
    8000617a:	5666                	lw	a2,120(sp)
    8000617c:	08487293          	andi	t0,a6,132
    80006180:	678a                	ld	a5,128(sp)
    80006182:	0016051b          	addiw	a0,a2,1
    80006186:	85aa                	mv	a1,a0
    80006188:	00029663          	bnez	t0,80006194 <_vfiprintf_r+0x21e>
    8000618c:	41c8873b          	subw	a4,a7,t3
    80006190:	64e04363          	bgtz	a4,800067d6 <_vfiprintf_r+0x860>
    80006194:	06714703          	lbu	a4,103(sp)
    80006198:	cf19                	beqz	a4,800061b6 <_vfiprintf_r+0x240>
    8000619a:	06710713          	addi	a4,sp,103
    8000619e:	0785                	addi	a5,a5,1
    800061a0:	e018                	sd	a4,0(s0)
    800061a2:	4705                	li	a4,1
    800061a4:	e418                	sd	a4,8(s0)
    800061a6:	e13e                	sd	a5,128(sp)
    800061a8:	dcaa                	sw	a0,120(sp)
    800061aa:	471d                	li	a4,7
    800061ac:	5aa74463          	blt	a4,a0,80006754 <_vfiprintf_r+0x7de>
    800061b0:	862a                	mv	a2,a0
    800061b2:	0441                	addi	s0,s0,16
    800061b4:	2505                	addiw	a0,a0,1
    800061b6:	040f8363          	beqz	t6,800061fc <_vfiprintf_r+0x286>
    800061ba:	10b8                	addi	a4,sp,104
    800061bc:	0789                	addi	a5,a5,2
    800061be:	e018                	sd	a4,0(s0)
    800061c0:	4709                	li	a4,2
    800061c2:	e418                	sd	a4,8(s0)
    800061c4:	e13e                	sd	a5,128(sp)
    800061c6:	dcaa                	sw	a0,120(sp)
    800061c8:	471d                	li	a4,7
    800061ca:	5ca75763          	bge	a4,a0,80006798 <_vfiprintf_r+0x822>
    800061ce:	7a078663          	beqz	a5,8000697a <_vfiprintf_r+0xa04>
    800061d2:	1890                	addi	a2,sp,112
    800061d4:	85d2                	mv	a1,s4
    800061d6:	8556                	mv	a0,s5
    800061d8:	e49a                	sd	t1,72(sp)
    800061da:	f472                	sd	t3,40(sp)
    800061dc:	f046                	sd	a7,32(sp)
    800061de:	ec42                	sd	a6,24(sp)
    800061e0:	e816                	sd	t0,16(sp)
    800061e2:	ce3ff0ef          	jal	ra,80005ec4 <__sprint_r.part.0>
    800061e6:	f901                	bnez	a0,800060f6 <_vfiprintf_r+0x180>
    800061e8:	5666                	lw	a2,120(sp)
    800061ea:	678a                	ld	a5,128(sp)
    800061ec:	6326                	ld	t1,72(sp)
    800061ee:	7e22                	ld	t3,40(sp)
    800061f0:	7882                	ld	a7,32(sp)
    800061f2:	6862                	ld	a6,24(sp)
    800061f4:	62c2                	ld	t0,16(sp)
    800061f6:	844e                	mv	s0,s3
    800061f8:	0016051b          	addiw	a0,a2,1
    800061fc:	08000713          	li	a4,128
    80006200:	3ee28863          	beq	t0,a4,800065f0 <_vfiprintf_r+0x67a>
    80006204:	406484bb          	subw	s1,s1,t1
    80006208:	4a904963          	bgtz	s1,800066ba <_vfiprintf_r+0x744>
    8000620c:	979a                	add	a5,a5,t1
    8000620e:	01743023          	sd	s7,0(s0)
    80006212:	00643423          	sd	t1,8(s0)
    80006216:	e13e                	sd	a5,128(sp)
    80006218:	dcaa                	sw	a0,120(sp)
    8000621a:	471d                	li	a4,7
    8000621c:	3ca75863          	bge	a4,a0,800065ec <_vfiprintf_r+0x676>
    80006220:	66078063          	beqz	a5,80006880 <_vfiprintf_r+0x90a>
    80006224:	1890                	addi	a2,sp,112
    80006226:	85d2                	mv	a1,s4
    80006228:	8556                	mv	a0,s5
    8000622a:	f072                	sd	t3,32(sp)
    8000622c:	ec46                	sd	a7,24(sp)
    8000622e:	e842                	sd	a6,16(sp)
    80006230:	c95ff0ef          	jal	ra,80005ec4 <__sprint_r.part.0>
    80006234:	ec0511e3          	bnez	a0,800060f6 <_vfiprintf_r+0x180>
    80006238:	678a                	ld	a5,128(sp)
    8000623a:	7e02                	ld	t3,32(sp)
    8000623c:	68e2                	ld	a7,24(sp)
    8000623e:	6842                	ld	a6,16(sp)
    80006240:	844e                	mv	s0,s3
    80006242:	00487813          	andi	a6,a6,4
    80006246:	00080663          	beqz	a6,80006252 <_vfiprintf_r+0x2dc>
    8000624a:	41c884bb          	subw	s1,a7,t3
    8000624e:	64904363          	bgtz	s1,80006894 <_vfiprintf_r+0x91e>
    80006252:	8746                	mv	a4,a7
    80006254:	01c8d363          	bge	a7,t3,8000625a <_vfiprintf_r+0x2e4>
    80006258:	8772                	mv	a4,t3
    8000625a:	01a70d3b          	addw	s10,a4,s10
    8000625e:	e80795e3          	bnez	a5,800060e8 <_vfiprintf_r+0x172>
    80006262:	000dc783          	lbu	a5,0(s11)
    80006266:	dc82                	sw	zero,120(sp)
    80006268:	844e                	mv	s0,s3
    8000626a:	da0795e3          	bnez	a5,80006014 <_vfiprintf_r+0x9e>
    8000626e:	678a                	ld	a5,128(sp)
    80006270:	8cea                	mv	s9,s10
    80006272:	e80783e3          	beqz	a5,800060f8 <_vfiprintf_r+0x182>
    80006276:	1890                	addi	a2,sp,112
    80006278:	85d2                	mv	a1,s4
    8000627a:	8556                	mv	a0,s5
    8000627c:	c49ff0ef          	jal	ra,80005ec4 <__sprint_r.part.0>
    80006280:	bda5                	j	800060f8 <_vfiprintf_r+0x182>
    80006282:	01086813          	ori	a6,a6,16
    80006286:	000dc783          	lbu	a5,0(s11)
    8000628a:	2801                	sext.w	a6,a6
    8000628c:	bbd5                	j	80006080 <_vfiprintf_r+0x10a>
    8000628e:	01086813          	ori	a6,a6,16
    80006292:	2801                	sext.w	a6,a6
    80006294:	02087793          	andi	a5,a6,32
    80006298:	008c8e93          	addi	t4,s9,8
    8000629c:	cf8d                	beqz	a5,800062d6 <_vfiprintf_r+0x360>
    8000629e:	000cb783          	ld	a5,0(s9)
    800062a2:	8cbe                	mv	s9,a5
    800062a4:	0407c963          	bltz	a5,800062f6 <_vfiprintf_r+0x380>
    800062a8:	57fd                	li	a5,-1
    800062aa:	06f48263          	beq	s1,a5,8000630e <_vfiprintf_r+0x398>
    800062ae:	f7f87813          	andi	a6,a6,-129
    800062b2:	2801                	sext.w	a6,a6
    800062b4:	040c9d63          	bnez	s9,8000630e <_vfiprintf_r+0x398>
    800062b8:	180496e3          	bnez	s1,80006c44 <_vfiprintf_r+0xcce>
    800062bc:	4e01                	li	t3,0
    800062be:	4301                	li	t1,0
    800062c0:	8cf6                	mv	s9,t4
    800062c2:	0ec10b93          	addi	s7,sp,236
    800062c6:	a0b5                	j	80006332 <_vfiprintf_r+0x3bc>
    800062c8:	41b48bbb          	subw	s7,s1,s11
    800062cc:	d60b91e3          	bnez	s7,8000602e <_vfiprintf_r+0xb8>
    800062d0:	0004c783          	lbu	a5,0(s1)
    800062d4:	bb49                	j	80006066 <_vfiprintf_r+0xf0>
    800062d6:	01087793          	andi	a5,a6,16
    800062da:	f3f1                	bnez	a5,8000629e <_vfiprintf_r+0x328>
    800062dc:	04087793          	andi	a5,a6,64
    800062e0:	000cac83          	lw	s9,0(s9)
    800062e4:	0e078ee3          	beqz	a5,80006be0 <_vfiprintf_r+0xc6a>
    800062e8:	010c9c9b          	slliw	s9,s9,0x10
    800062ec:	410cdc9b          	sraiw	s9,s9,0x10
    800062f0:	87e6                	mv	a5,s9
    800062f2:	fa07dbe3          	bgez	a5,800062a8 <_vfiprintf_r+0x332>
    800062f6:	02d00793          	li	a5,45
    800062fa:	06f103a3          	sb	a5,103(sp)
    800062fe:	57fd                	li	a5,-1
    80006300:	41900cb3          	neg	s9,s9
    80006304:	00f48563          	beq	s1,a5,8000630e <_vfiprintf_r+0x398>
    80006308:	f7f87813          	andi	a6,a6,-129
    8000630c:	2801                	sext.w	a6,a6
    8000630e:	47a5                	li	a5,9
    80006310:	6b97ea63          	bltu	a5,s9,800069c4 <_vfiprintf_r+0xa4e>
    80006314:	030c879b          	addiw	a5,s9,48
    80006318:	0ff7f793          	zext.b	a5,a5
    8000631c:	8cf6                	mv	s9,t4
    8000631e:	0ef105a3          	sb	a5,235(sp)
    80006322:	00048e1b          	sext.w	t3,s1
    80006326:	00904363          	bgtz	s1,8000632c <_vfiprintf_r+0x3b6>
    8000632a:	4e05                	li	t3,1
    8000632c:	4305                	li	t1,1
    8000632e:	0eb10b93          	addi	s7,sp,235
    80006332:	06714783          	lbu	a5,103(sp)
    80006336:	e2078de3          	beqz	a5,80006170 <_vfiprintf_r+0x1fa>
    8000633a:	2e05                	addiw	t3,t3,1
    8000633c:	bd15                	j	80006170 <_vfiprintf_r+0x1fa>
    8000633e:	50f020ef          	jal	ra,8000904c <__sinit>
    80006342:	b185                	j	80005fa2 <_vfiprintf_r+0x2c>
    80006344:	000cbb83          	ld	s7,0(s9)
    80006348:	060103a3          	sb	zero,103(sp)
    8000634c:	0ca1                	addi	s9,s9,8
    8000634e:	040b89e3          	beqz	s7,80006ba0 <_vfiprintf_r+0xc2a>
    80006352:	57fd                	li	a5,-1
    80006354:	ec46                	sd	a7,24(sp)
    80006356:	e842                	sd	a6,16(sp)
    80006358:	7af48163          	beq	s1,a5,80006afa <_vfiprintf_r+0xb84>
    8000635c:	8626                	mv	a2,s1
    8000635e:	4581                	li	a1,0
    80006360:	855e                	mv	a0,s7
    80006362:	1b1050ef          	jal	ra,8000bd12 <memchr>
    80006366:	6842                	ld	a6,16(sp)
    80006368:	68e2                	ld	a7,24(sp)
    8000636a:	0c0503e3          	beqz	a0,80006c30 <_vfiprintf_r+0xcba>
    8000636e:	4175033b          	subw	t1,a0,s7
    80006372:	fff34e13          	not	t3,t1
    80006376:	43fe5e13          	srai	t3,t3,0x3f
    8000637a:	006e7e33          	and	t3,t3,t1
    8000637e:	4481                	li	s1,0
    80006380:	bf4d                	j	80006332 <_vfiprintf_r+0x3bc>
    80006382:	000ca783          	lw	a5,0(s9)
    80006386:	060103a3          	sb	zero,103(sp)
    8000638a:	0ca1                	addi	s9,s9,8
    8000638c:	08f10423          	sb	a5,136(sp)
    80006390:	4e05                	li	t3,1
    80006392:	4305                	li	t1,1
    80006394:	08810b93          	addi	s7,sp,136
    80006398:	bbd9                	j	8000616e <_vfiprintf_r+0x1f8>
    8000639a:	000ca883          	lw	a7,0(s9)
    8000639e:	0ca1                	addi	s9,s9,8
    800063a0:	0808db63          	bgez	a7,80006436 <_vfiprintf_r+0x4c0>
    800063a4:	411008bb          	negw	a7,a7
    800063a8:	00486813          	ori	a6,a6,4
    800063ac:	000dc783          	lbu	a5,0(s11)
    800063b0:	2801                	sext.w	a6,a6
    800063b2:	b1f9                	j	80006080 <_vfiprintf_r+0x10a>
    800063b4:	02b00713          	li	a4,43
    800063b8:	000dc783          	lbu	a5,0(s11)
    800063bc:	06e103a3          	sb	a4,103(sp)
    800063c0:	b1c1                	j	80006080 <_vfiprintf_r+0x10a>
    800063c2:	08086813          	ori	a6,a6,128
    800063c6:	000dc783          	lbu	a5,0(s11)
    800063ca:	2801                	sext.w	a6,a6
    800063cc:	b955                	j	80006080 <_vfiprintf_r+0x10a>
    800063ce:	000dc783          	lbu	a5,0(s11)
    800063d2:	02a00613          	li	a2,42
    800063d6:	001d8713          	addi	a4,s11,1
    800063da:	08c78fe3          	beq	a5,a2,80006c78 <_vfiprintf_r+0xd02>
    800063de:	fd07869b          	addiw	a3,a5,-48
    800063e2:	45a5                	li	a1,9
    800063e4:	8dba                	mv	s11,a4
    800063e6:	4481                	li	s1,0
    800063e8:	4625                	li	a2,9
    800063ea:	c8d5ede3          	bltu	a1,a3,80006084 <_vfiprintf_r+0x10e>
    800063ee:	000dc783          	lbu	a5,0(s11)
    800063f2:	0024971b          	slliw	a4,s1,0x2
    800063f6:	9cb9                	addw	s1,s1,a4
    800063f8:	0014949b          	slliw	s1,s1,0x1
    800063fc:	9cb5                	addw	s1,s1,a3
    800063fe:	fd07869b          	addiw	a3,a5,-48
    80006402:	0d85                	addi	s11,s11,1
    80006404:	fed675e3          	bgeu	a2,a3,800063ee <_vfiprintf_r+0x478>
    80006408:	b9b5                	j	80006084 <_vfiprintf_r+0x10e>
    8000640a:	8556                	mv	a0,s5
    8000640c:	ec46                	sd	a7,24(sp)
    8000640e:	e842                	sd	a6,16(sp)
    80006410:	64c050ef          	jal	ra,8000ba5c <_localeconv_r>
    80006414:	651c                	ld	a5,8(a0)
    80006416:	853e                	mv	a0,a5
    80006418:	e0be                	sd	a5,64(sp)
    8000641a:	df6fc0ef          	jal	ra,80002a10 <strlen>
    8000641e:	87aa                	mv	a5,a0
    80006420:	8556                	mv	a0,s5
    80006422:	f83e                	sd	a5,48(sp)
    80006424:	638050ef          	jal	ra,8000ba5c <_localeconv_r>
    80006428:	6918                	ld	a4,16(a0)
    8000642a:	77c2                	ld	a5,48(sp)
    8000642c:	6842                	ld	a6,16(sp)
    8000642e:	fc3a                	sd	a4,56(sp)
    80006430:	68e2                	ld	a7,24(sp)
    80006432:	62079663          	bnez	a5,80006a5e <_vfiprintf_r+0xae8>
    80006436:	000dc783          	lbu	a5,0(s11)
    8000643a:	b199                	j	80006080 <_vfiprintf_r+0x10a>
    8000643c:	00186813          	ori	a6,a6,1
    80006440:	000dc783          	lbu	a5,0(s11)
    80006444:	2801                	sext.w	a6,a6
    80006446:	b92d                	j	80006080 <_vfiprintf_r+0x10a>
    80006448:	06714703          	lbu	a4,103(sp)
    8000644c:	000dc783          	lbu	a5,0(s11)
    80006450:	c20718e3          	bnez	a4,80006080 <_vfiprintf_r+0x10a>
    80006454:	02000713          	li	a4,32
    80006458:	06e103a3          	sb	a4,103(sp)
    8000645c:	b115                	j	80006080 <_vfiprintf_r+0x10a>
    8000645e:	01086793          	ori	a5,a6,16
    80006462:	2781                	sext.w	a5,a5
    80006464:	0207f713          	andi	a4,a5,32
    80006468:	008c8593          	addi	a1,s9,8
    8000646c:	e709                	bnez	a4,80006476 <_vfiprintf_r+0x500>
    8000646e:	0107f713          	andi	a4,a5,16
    80006472:	5c070d63          	beqz	a4,80006a4c <_vfiprintf_r+0xad6>
    80006476:	000cb703          	ld	a4,0(s9)
    8000647a:	bff7f813          	andi	a6,a5,-1025
    8000647e:	060103a3          	sb	zero,103(sp)
    80006482:	567d                	li	a2,-1
    80006484:	2801                	sext.w	a6,a6
    80006486:	8cae                	mv	s9,a1
    80006488:	08c48f63          	beq	s1,a2,80006526 <_vfiprintf_r+0x5b0>
    8000648c:	b7f7f793          	andi	a5,a5,-1153
    80006490:	2781                	sext.w	a5,a5
    80006492:	6e071263          	bnez	a4,80006b76 <_vfiprintf_r+0xc00>
    80006496:	8342                	mv	t1,a6
    80006498:	883e                	mv	a6,a5
    8000649a:	ecbd                	bnez	s1,80006518 <_vfiprintf_r+0x5a2>
    8000649c:	50071f63          	bnez	a4,800069ba <_vfiprintf_r+0xa44>
    800064a0:	00137313          	andi	t1,t1,1
    800064a4:	58030063          	beqz	t1,80006a24 <_vfiprintf_r+0xaae>
    800064a8:	03000793          	li	a5,48
    800064ac:	0ef105a3          	sb	a5,235(sp)
    800064b0:	8e1a                	mv	t3,t1
    800064b2:	0eb10b93          	addi	s7,sp,235
    800064b6:	bdb5                	j	80006332 <_vfiprintf_r+0x3bc>
    800064b8:	000dc783          	lbu	a5,0(s11)
    800064bc:	06c00713          	li	a4,108
    800064c0:	6ce78863          	beq	a5,a4,80006b90 <_vfiprintf_r+0xc1a>
    800064c4:	01086813          	ori	a6,a6,16
    800064c8:	2801                	sext.w	a6,a6
    800064ca:	be5d                	j	80006080 <_vfiprintf_r+0x10a>
    800064cc:	000dc783          	lbu	a5,0(s11)
    800064d0:	06800713          	li	a4,104
    800064d4:	6ae78663          	beq	a5,a4,80006b80 <_vfiprintf_r+0xc0a>
    800064d8:	04086813          	ori	a6,a6,64
    800064dc:	2801                	sext.w	a6,a6
    800064de:	b64d                	j	80006080 <_vfiprintf_r+0x10a>
    800064e0:	01086313          	ori	t1,a6,16
    800064e4:	2301                	sext.w	t1,t1
    800064e6:	02037793          	andi	a5,t1,32
    800064ea:	008c8e93          	addi	t4,s9,8
    800064ee:	e789                	bnez	a5,800064f8 <_vfiprintf_r+0x582>
    800064f0:	01037793          	andi	a5,t1,16
    800064f4:	54078263          	beqz	a5,80006a38 <_vfiprintf_r+0xac2>
    800064f8:	000cbc83          	ld	s9,0(s9)
    800064fc:	060103a3          	sb	zero,103(sp)
    80006500:	57fd                	li	a5,-1
    80006502:	881a                	mv	a6,t1
    80006504:	e0f485e3          	beq	s1,a5,8000630e <_vfiprintf_r+0x398>
    80006508:	f7f37813          	andi	a6,t1,-129
    8000650c:	2801                	sext.w	a6,a6
    8000650e:	e00c90e3          	bnez	s9,8000630e <_vfiprintf_r+0x398>
    80006512:	8cf6                	mv	s9,t4
    80006514:	4705                	li	a4,1
    80006516:	d0d9                	beqz	s1,8000649c <_vfiprintf_r+0x526>
    80006518:	4785                	li	a5,1
    8000651a:	72f70663          	beq	a4,a5,80006c46 <_vfiprintf_r+0xcd0>
    8000651e:	4789                	li	a5,2
    80006520:	68f70c63          	beq	a4,a5,80006bb8 <_vfiprintf_r+0xc42>
    80006524:	4701                	li	a4,0
    80006526:	0ec10313          	addi	t1,sp,236
    8000652a:	8b9a                	mv	s7,t1
    8000652c:	00777793          	andi	a5,a4,7
    80006530:	03078793          	addi	a5,a5,48
    80006534:	fefb8fa3          	sb	a5,-1(s7)
    80006538:	830d                	srli	a4,a4,0x3
    8000653a:	865e                	mv	a2,s7
    8000653c:	1bfd                	addi	s7,s7,-1
    8000653e:	f77d                	bnez	a4,8000652c <_vfiprintf_r+0x5b6>
    80006540:	00187713          	andi	a4,a6,1
    80006544:	28070063          	beqz	a4,800067c4 <_vfiprintf_r+0x84e>
    80006548:	03000713          	li	a4,48
    8000654c:	26e78c63          	beq	a5,a4,800067c4 <_vfiprintf_r+0x84e>
    80006550:	1679                	addi	a2,a2,-2
    80006552:	40c3033b          	subw	t1,t1,a2
    80006556:	feeb8fa3          	sb	a4,-1(s7)
    8000655a:	00030e1b          	sext.w	t3,t1
    8000655e:	52934263          	blt	t1,s1,80006a82 <_vfiprintf_r+0xb0c>
    80006562:	8bb2                	mv	s7,a2
    80006564:	b3f9                	j	80006332 <_vfiprintf_r+0x3bc>
    80006566:	02086813          	ori	a6,a6,32
    8000656a:	000dc783          	lbu	a5,0(s11)
    8000656e:	2801                	sext.w	a6,a6
    80006570:	be01                	j	80006080 <_vfiprintf_r+0x10a>
    80006572:	77e1                	lui	a5,0xffff8
    80006574:	8307c793          	xori	a5,a5,-2000
    80006578:	00286813          	ori	a6,a6,2
    8000657c:	06f11423          	sh	a5,104(sp)
    80006580:	00008797          	auipc	a5,0x8
    80006584:	f4878793          	addi	a5,a5,-184 # 8000e4c8 <__clz_tab+0x5c0>
    80006588:	000cb703          	ld	a4,0(s9)
    8000658c:	2801                	sext.w	a6,a6
    8000658e:	0ca1                	addi	s9,s9,8
    80006590:	e43e                	sd	a5,8(sp)
    80006592:	060103a3          	sb	zero,103(sp)
    80006596:	57fd                	li	a5,-1
    80006598:	20f48863          	beq	s1,a5,800067a8 <_vfiprintf_r+0x832>
    8000659c:	f7f87793          	andi	a5,a6,-129
    800065a0:	2781                	sext.w	a5,a5
    800065a2:	1e071f63          	bnez	a4,800067a0 <_vfiprintf_r+0x82a>
    800065a6:	8342                	mv	t1,a6
    800065a8:	4709                	li	a4,2
    800065aa:	883e                	mv	a6,a5
    800065ac:	b5fd                	j	8000649a <_vfiprintf_r+0x524>
    800065ae:	02087793          	andi	a5,a6,32
    800065b2:	000cb703          	ld	a4,0(s9)
    800065b6:	e385                	bnez	a5,800065d6 <_vfiprintf_r+0x660>
    800065b8:	01087793          	andi	a5,a6,16
    800065bc:	ef89                	bnez	a5,800065d6 <_vfiprintf_r+0x660>
    800065be:	04087793          	andi	a5,a6,64
    800065c2:	64079563          	bnez	a5,80006c0c <_vfiprintf_r+0xc96>
    800065c6:	20087813          	andi	a6,a6,512
    800065ca:	6a080263          	beqz	a6,80006c6e <_vfiprintf_r+0xcf8>
    800065ce:	01a70023          	sb	s10,0(a4)
    800065d2:	0ca1                	addi	s9,s9,8
    800065d4:	bc25                	j	8000600c <_vfiprintf_r+0x96>
    800065d6:	01a73023          	sd	s10,0(a4)
    800065da:	0ca1                	addi	s9,s9,8
    800065dc:	bc05                	j	8000600c <_vfiprintf_r+0x96>
    800065de:	4705                	li	a4,1
    800065e0:	879a                	mv	a5,t1
    800065e2:	f9de                	sd	s7,240(sp)
    800065e4:	fd9a                	sd	t1,248(sp)
    800065e6:	e11a                	sd	t1,128(sp)
    800065e8:	dcba                	sw	a4,120(sp)
    800065ea:	844e                	mv	s0,s3
    800065ec:	0441                	addi	s0,s0,16
    800065ee:	b991                	j	80006242 <_vfiprintf_r+0x2cc>
    800065f0:	41c8873b          	subw	a4,a7,t3
    800065f4:	c0e058e3          	blez	a4,80006204 <_vfiprintf_r+0x28e>
    800065f8:	45c1                	li	a1,16
    800065fa:	66e5d163          	bge	a1,a4,80006c5c <_vfiprintf_r+0xce6>
    800065fe:	00008e97          	auipc	t4,0x8
    80006602:	05ae8e93          	addi	t4,t4,90 # 8000e658 <zeroes.0>
    80006606:	f026                	sd	s1,32(sp)
    80006608:	86a2                	mv	a3,s0
    8000660a:	4f41                	li	t5,16
    8000660c:	4f9d                	li	t6,7
    8000660e:	e842                	sd	a6,16(sp)
    80006610:	ec46                	sd	a7,24(sp)
    80006612:	f472                	sd	t3,40(sp)
    80006614:	e49a                	sd	t1,72(sp)
    80006616:	843a                	mv	s0,a4
    80006618:	84f6                	mv	s1,t4
    8000661a:	a801                	j	8000662a <_vfiprintf_r+0x6b4>
    8000661c:	0026059b          	addiw	a1,a2,2
    80006620:	06c1                	addi	a3,a3,16
    80006622:	862a                	mv	a2,a0
    80006624:	3441                	addiw	s0,s0,-16
    80006626:	028f5f63          	bge	t5,s0,80006664 <_vfiprintf_r+0x6ee>
    8000662a:	0016051b          	addiw	a0,a2,1
    8000662e:	07c1                	addi	a5,a5,16
    80006630:	e284                	sd	s1,0(a3)
    80006632:	01e6b423          	sd	t5,8(a3)
    80006636:	e13e                	sd	a5,128(sp)
    80006638:	dcaa                	sw	a0,120(sp)
    8000663a:	feafd1e3          	bge	t6,a0,8000661c <_vfiprintf_r+0x6a6>
    8000663e:	10078763          	beqz	a5,8000674c <_vfiprintf_r+0x7d6>
    80006642:	1890                	addi	a2,sp,112
    80006644:	85d2                	mv	a1,s4
    80006646:	8556                	mv	a0,s5
    80006648:	87dff0ef          	jal	ra,80005ec4 <__sprint_r.part.0>
    8000664c:	aa0515e3          	bnez	a0,800060f6 <_vfiprintf_r+0x180>
    80006650:	5666                	lw	a2,120(sp)
    80006652:	4f41                	li	t5,16
    80006654:	3441                	addiw	s0,s0,-16
    80006656:	678a                	ld	a5,128(sp)
    80006658:	86ce                	mv	a3,s3
    8000665a:	0016059b          	addiw	a1,a2,1
    8000665e:	4f9d                	li	t6,7
    80006660:	fc8f45e3          	blt	t5,s0,8000662a <_vfiprintf_r+0x6b4>
    80006664:	8ea6                	mv	t4,s1
    80006666:	6842                	ld	a6,16(sp)
    80006668:	68e2                	ld	a7,24(sp)
    8000666a:	7e22                	ld	t3,40(sp)
    8000666c:	6326                	ld	t1,72(sp)
    8000666e:	7482                	ld	s1,32(sp)
    80006670:	8722                	mv	a4,s0
    80006672:	8436                	mv	s0,a3
    80006674:	97ba                	add	a5,a5,a4
    80006676:	e418                	sd	a4,8(s0)
    80006678:	01d43023          	sd	t4,0(s0)
    8000667c:	e13e                	sd	a5,128(sp)
    8000667e:	dcae                	sw	a1,120(sp)
    80006680:	471d                	li	a4,7
    80006682:	3ab75563          	bge	a4,a1,80006a2c <_vfiprintf_r+0xab6>
    80006686:	56078763          	beqz	a5,80006bf4 <_vfiprintf_r+0xc7e>
    8000668a:	1890                	addi	a2,sp,112
    8000668c:	85d2                	mv	a1,s4
    8000668e:	8556                	mv	a0,s5
    80006690:	f41a                	sd	t1,40(sp)
    80006692:	f072                	sd	t3,32(sp)
    80006694:	ec46                	sd	a7,24(sp)
    80006696:	e842                	sd	a6,16(sp)
    80006698:	82dff0ef          	jal	ra,80005ec4 <__sprint_r.part.0>
    8000669c:	a4051de3          	bnez	a0,800060f6 <_vfiprintf_r+0x180>
    800066a0:	7322                	ld	t1,40(sp)
    800066a2:	5666                	lw	a2,120(sp)
    800066a4:	678a                	ld	a5,128(sp)
    800066a6:	406484bb          	subw	s1,s1,t1
    800066aa:	7e02                	ld	t3,32(sp)
    800066ac:	68e2                	ld	a7,24(sp)
    800066ae:	6842                	ld	a6,16(sp)
    800066b0:	844e                	mv	s0,s3
    800066b2:	0016051b          	addiw	a0,a2,1
    800066b6:	b4905be3          	blez	s1,8000620c <_vfiprintf_r+0x296>
    800066ba:	00008e97          	auipc	t4,0x8
    800066be:	f9ee8e93          	addi	t4,t4,-98 # 8000e658 <zeroes.0>
    800066c2:	06995563          	bge	s2,s1,8000672c <_vfiprintf_r+0x7b6>
    800066c6:	8722                	mv	a4,s0
    800066c8:	4f1d                	li	t5,7
    800066ca:	8426                	mv	s0,s1
    800066cc:	e842                	sd	a6,16(sp)
    800066ce:	ec46                	sd	a7,24(sp)
    800066d0:	f072                	sd	t3,32(sp)
    800066d2:	f41a                	sd	t1,40(sp)
    800066d4:	84da                	mv	s1,s6
    800066d6:	a801                	j	800066e6 <_vfiprintf_r+0x770>
    800066d8:	0026051b          	addiw	a0,a2,2
    800066dc:	0741                	addi	a4,a4,16
    800066de:	862e                	mv	a2,a1
    800066e0:	3441                	addiw	s0,s0,-16
    800066e2:	02895e63          	bge	s2,s0,8000671e <_vfiprintf_r+0x7a8>
    800066e6:	0016059b          	addiw	a1,a2,1
    800066ea:	07c1                	addi	a5,a5,16
    800066ec:	01673023          	sd	s6,0(a4)
    800066f0:	01273423          	sd	s2,8(a4)
    800066f4:	e13e                	sd	a5,128(sp)
    800066f6:	dcae                	sw	a1,120(sp)
    800066f8:	febf50e3          	bge	t5,a1,800066d8 <_vfiprintf_r+0x762>
    800066fc:	c7a1                	beqz	a5,80006744 <_vfiprintf_r+0x7ce>
    800066fe:	1890                	addi	a2,sp,112
    80006700:	85d2                	mv	a1,s4
    80006702:	8556                	mv	a0,s5
    80006704:	fc0ff0ef          	jal	ra,80005ec4 <__sprint_r.part.0>
    80006708:	9e0517e3          	bnez	a0,800060f6 <_vfiprintf_r+0x180>
    8000670c:	5666                	lw	a2,120(sp)
    8000670e:	3441                	addiw	s0,s0,-16
    80006710:	678a                	ld	a5,128(sp)
    80006712:	874e                	mv	a4,s3
    80006714:	0016051b          	addiw	a0,a2,1
    80006718:	4f1d                	li	t5,7
    8000671a:	fc8946e3          	blt	s2,s0,800066e6 <_vfiprintf_r+0x770>
    8000671e:	6842                	ld	a6,16(sp)
    80006720:	68e2                	ld	a7,24(sp)
    80006722:	7e02                	ld	t3,32(sp)
    80006724:	7322                	ld	t1,40(sp)
    80006726:	8ea6                	mv	t4,s1
    80006728:	84a2                	mv	s1,s0
    8000672a:	843a                	mv	s0,a4
    8000672c:	97a6                	add	a5,a5,s1
    8000672e:	01d43023          	sd	t4,0(s0)
    80006732:	e404                	sd	s1,8(s0)
    80006734:	e13e                	sd	a5,128(sp)
    80006736:	dcaa                	sw	a0,120(sp)
    80006738:	471d                	li	a4,7
    8000673a:	20a74663          	blt	a4,a0,80006946 <_vfiprintf_r+0x9d0>
    8000673e:	0441                	addi	s0,s0,16
    80006740:	2505                	addiw	a0,a0,1
    80006742:	b4e9                	j	8000620c <_vfiprintf_r+0x296>
    80006744:	4505                	li	a0,1
    80006746:	4601                	li	a2,0
    80006748:	874e                	mv	a4,s3
    8000674a:	bf59                	j	800066e0 <_vfiprintf_r+0x76a>
    8000674c:	4585                	li	a1,1
    8000674e:	4601                	li	a2,0
    80006750:	86ce                	mv	a3,s3
    80006752:	bdc9                	j	80006624 <_vfiprintf_r+0x6ae>
    80006754:	cb95                	beqz	a5,80006788 <_vfiprintf_r+0x812>
    80006756:	1890                	addi	a2,sp,112
    80006758:	85d2                	mv	a1,s4
    8000675a:	8556                	mv	a0,s5
    8000675c:	e89a                	sd	t1,80(sp)
    8000675e:	e4f2                	sd	t3,72(sp)
    80006760:	f446                	sd	a7,40(sp)
    80006762:	f042                	sd	a6,32(sp)
    80006764:	ec16                	sd	t0,24(sp)
    80006766:	e87e                	sd	t6,16(sp)
    80006768:	f5cff0ef          	jal	ra,80005ec4 <__sprint_r.part.0>
    8000676c:	980515e3          	bnez	a0,800060f6 <_vfiprintf_r+0x180>
    80006770:	5666                	lw	a2,120(sp)
    80006772:	678a                	ld	a5,128(sp)
    80006774:	6346                	ld	t1,80(sp)
    80006776:	6e26                	ld	t3,72(sp)
    80006778:	78a2                	ld	a7,40(sp)
    8000677a:	7802                	ld	a6,32(sp)
    8000677c:	62e2                	ld	t0,24(sp)
    8000677e:	6fc2                	ld	t6,16(sp)
    80006780:	844e                	mv	s0,s3
    80006782:	0016051b          	addiw	a0,a2,1
    80006786:	bc05                	j	800061b6 <_vfiprintf_r+0x240>
    80006788:	2e0f8863          	beqz	t6,80006a78 <_vfiprintf_r+0xb02>
    8000678c:	10bc                	addi	a5,sp,104
    8000678e:	f9be                	sd	a5,240(sp)
    80006790:	4789                	li	a5,2
    80006792:	fdbe                	sd	a5,248(sp)
    80006794:	4505                	li	a0,1
    80006796:	844e                	mv	s0,s3
    80006798:	862a                	mv	a2,a0
    8000679a:	0441                	addi	s0,s0,16
    8000679c:	2505                	addiw	a0,a0,1
    8000679e:	bcb9                	j	800061fc <_vfiprintf_r+0x286>
    800067a0:	883e                	mv	a6,a5
    800067a2:	4789                	li	a5,2
    800067a4:	d80781e3          	beqz	a5,80006526 <_vfiprintf_r+0x5b0>
    800067a8:	66a2                	ld	a3,8(sp)
    800067aa:	0ec10313          	addi	t1,sp,236
    800067ae:	8b9a                	mv	s7,t1
    800067b0:	00f77793          	andi	a5,a4,15
    800067b4:	97b6                	add	a5,a5,a3
    800067b6:	0007c783          	lbu	a5,0(a5)
    800067ba:	8311                	srli	a4,a4,0x4
    800067bc:	1bfd                	addi	s7,s7,-1
    800067be:	00fb8023          	sb	a5,0(s7)
    800067c2:	f77d                	bnez	a4,800067b0 <_vfiprintf_r+0x83a>
    800067c4:	4173033b          	subw	t1,t1,s7
    800067c8:	00030e1b          	sext.w	t3,t1
    800067cc:	b69353e3          	bge	t1,s1,80006332 <_vfiprintf_r+0x3bc>
    800067d0:	00048e1b          	sext.w	t3,s1
    800067d4:	beb9                	j	80006332 <_vfiprintf_r+0x3bc>
    800067d6:	4ec1                	li	t4,16
    800067d8:	46eed163          	bge	t4,a4,80006c3a <_vfiprintf_r+0xcc4>
    800067dc:	00008e97          	auipc	t4,0x8
    800067e0:	e9ce8e93          	addi	t4,t4,-356 # 8000e678 <blanks.1>
    800067e4:	e4a6                	sd	s1,72(sp)
    800067e6:	86a2                	mv	a3,s0
    800067e8:	4f41                	li	t5,16
    800067ea:	439d                	li	t2,7
    800067ec:	e87e                	sd	t6,16(sp)
    800067ee:	ec16                	sd	t0,24(sp)
    800067f0:	f042                	sd	a6,32(sp)
    800067f2:	f446                	sd	a7,40(sp)
    800067f4:	e8f2                	sd	t3,80(sp)
    800067f6:	ec9a                	sd	t1,88(sp)
    800067f8:	843a                	mv	s0,a4
    800067fa:	84f6                	mv	s1,t4
    800067fc:	a811                	j	80006810 <_vfiprintf_r+0x89a>
    800067fe:	0026059b          	addiw	a1,a2,2
    80006802:	06c1                	addi	a3,a3,16
    80006804:	862a                	mv	a2,a0
    80006806:	3441                	addiw	s0,s0,-16
    80006808:	048f5063          	bge	t5,s0,80006848 <_vfiprintf_r+0x8d2>
    8000680c:	0016059b          	addiw	a1,a2,1
    80006810:	07c1                	addi	a5,a5,16
    80006812:	e284                	sd	s1,0(a3)
    80006814:	01e6b423          	sd	t5,8(a3)
    80006818:	e13e                	sd	a5,128(sp)
    8000681a:	0005851b          	sext.w	a0,a1
    8000681e:	dcae                	sw	a1,120(sp)
    80006820:	fca3dfe3          	bge	t2,a0,800067fe <_vfiprintf_r+0x888>
    80006824:	cbb1                	beqz	a5,80006878 <_vfiprintf_r+0x902>
    80006826:	1890                	addi	a2,sp,112
    80006828:	85d2                	mv	a1,s4
    8000682a:	8556                	mv	a0,s5
    8000682c:	e98ff0ef          	jal	ra,80005ec4 <__sprint_r.part.0>
    80006830:	8c0513e3          	bnez	a0,800060f6 <_vfiprintf_r+0x180>
    80006834:	5666                	lw	a2,120(sp)
    80006836:	4f41                	li	t5,16
    80006838:	3441                	addiw	s0,s0,-16
    8000683a:	678a                	ld	a5,128(sp)
    8000683c:	86ce                	mv	a3,s3
    8000683e:	0016059b          	addiw	a1,a2,1
    80006842:	439d                	li	t2,7
    80006844:	fc8f44e3          	blt	t5,s0,8000680c <_vfiprintf_r+0x896>
    80006848:	8ea6                	mv	t4,s1
    8000684a:	6fc2                	ld	t6,16(sp)
    8000684c:	62e2                	ld	t0,24(sp)
    8000684e:	7802                	ld	a6,32(sp)
    80006850:	78a2                	ld	a7,40(sp)
    80006852:	6e46                	ld	t3,80(sp)
    80006854:	6366                	ld	t1,88(sp)
    80006856:	64a6                	ld	s1,72(sp)
    80006858:	8722                	mv	a4,s0
    8000685a:	8436                	mv	s0,a3
    8000685c:	97ba                	add	a5,a5,a4
    8000685e:	e418                	sd	a4,8(s0)
    80006860:	01d43023          	sd	t4,0(s0)
    80006864:	e13e                	sd	a5,128(sp)
    80006866:	dcae                	sw	a1,120(sp)
    80006868:	471d                	li	a4,7
    8000686a:	10b74c63          	blt	a4,a1,80006982 <_vfiprintf_r+0xa0c>
    8000686e:	0441                	addi	s0,s0,16
    80006870:	0015851b          	addiw	a0,a1,1
    80006874:	862e                	mv	a2,a1
    80006876:	ba39                	j	80006194 <_vfiprintf_r+0x21e>
    80006878:	4601                	li	a2,0
    8000687a:	4585                	li	a1,1
    8000687c:	86ce                	mv	a3,s3
    8000687e:	b761                	j	80006806 <_vfiprintf_r+0x890>
    80006880:	dc82                	sw	zero,120(sp)
    80006882:	00487813          	andi	a6,a6,4
    80006886:	0a080963          	beqz	a6,80006938 <_vfiprintf_r+0x9c2>
    8000688a:	41c884bb          	subw	s1,a7,t3
    8000688e:	0a905563          	blez	s1,80006938 <_vfiprintf_r+0x9c2>
    80006892:	844e                	mv	s0,s3
    80006894:	4741                	li	a4,16
    80006896:	5666                	lw	a2,120(sp)
    80006898:	3a975b63          	bge	a4,s1,80006c4e <_vfiprintf_r+0xcd8>
    8000689c:	00008e97          	auipc	t4,0x8
    800068a0:	ddce8e93          	addi	t4,t4,-548 # 8000e678 <blanks.1>
    800068a4:	86a2                	mv	a3,s0
    800068a6:	4bc1                	li	s7,16
    800068a8:	8426                	mv	s0,s1
    800068aa:	481d                	li	a6,7
    800068ac:	e846                	sd	a7,16(sp)
    800068ae:	ec72                	sd	t3,24(sp)
    800068b0:	84f6                	mv	s1,t4
    800068b2:	a801                	j	800068c2 <_vfiprintf_r+0x94c>
    800068b4:	0026071b          	addiw	a4,a2,2
    800068b8:	06c1                	addi	a3,a3,16
    800068ba:	862e                	mv	a2,a1
    800068bc:	3441                	addiw	s0,s0,-16
    800068be:	028bdd63          	bge	s7,s0,800068f8 <_vfiprintf_r+0x982>
    800068c2:	0016059b          	addiw	a1,a2,1
    800068c6:	07c1                	addi	a5,a5,16
    800068c8:	e284                	sd	s1,0(a3)
    800068ca:	0176b423          	sd	s7,8(a3)
    800068ce:	e13e                	sd	a5,128(sp)
    800068d0:	dcae                	sw	a1,120(sp)
    800068d2:	feb851e3          	bge	a6,a1,800068b4 <_vfiprintf_r+0x93e>
    800068d6:	cfa9                	beqz	a5,80006930 <_vfiprintf_r+0x9ba>
    800068d8:	1890                	addi	a2,sp,112
    800068da:	85d2                	mv	a1,s4
    800068dc:	8556                	mv	a0,s5
    800068de:	de6ff0ef          	jal	ra,80005ec4 <__sprint_r.part.0>
    800068e2:	80051ae3          	bnez	a0,800060f6 <_vfiprintf_r+0x180>
    800068e6:	5666                	lw	a2,120(sp)
    800068e8:	3441                	addiw	s0,s0,-16
    800068ea:	678a                	ld	a5,128(sp)
    800068ec:	86ce                	mv	a3,s3
    800068ee:	0016071b          	addiw	a4,a2,1
    800068f2:	481d                	li	a6,7
    800068f4:	fc8bc7e3          	blt	s7,s0,800068c2 <_vfiprintf_r+0x94c>
    800068f8:	68c2                	ld	a7,16(sp)
    800068fa:	6e62                	ld	t3,24(sp)
    800068fc:	8ea6                	mv	t4,s1
    800068fe:	84a2                	mv	s1,s0
    80006900:	8436                	mv	s0,a3
    80006902:	97a6                	add	a5,a5,s1
    80006904:	01d43023          	sd	t4,0(s0)
    80006908:	e404                	sd	s1,8(s0)
    8000690a:	e13e                	sd	a5,128(sp)
    8000690c:	dcba                	sw	a4,120(sp)
    8000690e:	461d                	li	a2,7
    80006910:	94e651e3          	bge	a2,a4,80006252 <_vfiprintf_r+0x2dc>
    80006914:	c395                	beqz	a5,80006938 <_vfiprintf_r+0x9c2>
    80006916:	1890                	addi	a2,sp,112
    80006918:	85d2                	mv	a1,s4
    8000691a:	8556                	mv	a0,s5
    8000691c:	ec72                	sd	t3,24(sp)
    8000691e:	e846                	sd	a7,16(sp)
    80006920:	da4ff0ef          	jal	ra,80005ec4 <__sprint_r.part.0>
    80006924:	fc051963          	bnez	a0,800060f6 <_vfiprintf_r+0x180>
    80006928:	678a                	ld	a5,128(sp)
    8000692a:	6e62                	ld	t3,24(sp)
    8000692c:	68c2                	ld	a7,16(sp)
    8000692e:	b215                	j	80006252 <_vfiprintf_r+0x2dc>
    80006930:	4705                	li	a4,1
    80006932:	4601                	li	a2,0
    80006934:	86ce                	mv	a3,s3
    80006936:	b759                	j	800068bc <_vfiprintf_r+0x946>
    80006938:	87c6                	mv	a5,a7
    8000693a:	01c8d363          	bge	a7,t3,80006940 <_vfiprintf_r+0x9ca>
    8000693e:	87f2                	mv	a5,t3
    80006940:	01a78d3b          	addw	s10,a5,s10
    80006944:	ba39                	j	80006262 <_vfiprintf_r+0x2ec>
    80006946:	c8078ce3          	beqz	a5,800065de <_vfiprintf_r+0x668>
    8000694a:	1890                	addi	a2,sp,112
    8000694c:	85d2                	mv	a1,s4
    8000694e:	8556                	mv	a0,s5
    80006950:	f41a                	sd	t1,40(sp)
    80006952:	f072                	sd	t3,32(sp)
    80006954:	ec46                	sd	a7,24(sp)
    80006956:	e842                	sd	a6,16(sp)
    80006958:	d6cff0ef          	jal	ra,80005ec4 <__sprint_r.part.0>
    8000695c:	f8051d63          	bnez	a0,800060f6 <_vfiprintf_r+0x180>
    80006960:	5566                	lw	a0,120(sp)
    80006962:	678a                	ld	a5,128(sp)
    80006964:	7322                	ld	t1,40(sp)
    80006966:	7e02                	ld	t3,32(sp)
    80006968:	68e2                	ld	a7,24(sp)
    8000696a:	6842                	ld	a6,16(sp)
    8000696c:	844e                	mv	s0,s3
    8000696e:	2505                	addiw	a0,a0,1
    80006970:	b871                	j	8000620c <_vfiprintf_r+0x296>
    80006972:	dc82                	sw	zero,120(sp)
    80006974:	844e                	mv	s0,s3
    80006976:	ee8ff06f          	j	8000605e <_vfiprintf_r+0xe8>
    8000697a:	4505                	li	a0,1
    8000697c:	4601                	li	a2,0
    8000697e:	844e                	mv	s0,s3
    80006980:	b8b5                	j	800061fc <_vfiprintf_r+0x286>
    80006982:	18078c63          	beqz	a5,80006b1a <_vfiprintf_r+0xba4>
    80006986:	1890                	addi	a2,sp,112
    80006988:	85d2                	mv	a1,s4
    8000698a:	8556                	mv	a0,s5
    8000698c:	e89a                	sd	t1,80(sp)
    8000698e:	e4f2                	sd	t3,72(sp)
    80006990:	f446                	sd	a7,40(sp)
    80006992:	f042                	sd	a6,32(sp)
    80006994:	ec16                	sd	t0,24(sp)
    80006996:	e87e                	sd	t6,16(sp)
    80006998:	d2cff0ef          	jal	ra,80005ec4 <__sprint_r.part.0>
    8000699c:	f4051d63          	bnez	a0,800060f6 <_vfiprintf_r+0x180>
    800069a0:	5666                	lw	a2,120(sp)
    800069a2:	678a                	ld	a5,128(sp)
    800069a4:	6346                	ld	t1,80(sp)
    800069a6:	6e26                	ld	t3,72(sp)
    800069a8:	78a2                	ld	a7,40(sp)
    800069aa:	7802                	ld	a6,32(sp)
    800069ac:	62e2                	ld	t0,24(sp)
    800069ae:	6fc2                	ld	t6,16(sp)
    800069b0:	844e                	mv	s0,s3
    800069b2:	0016051b          	addiw	a0,a2,1
    800069b6:	fdeff06f          	j	80006194 <_vfiprintf_r+0x21e>
    800069ba:	4e01                	li	t3,0
    800069bc:	4301                	li	t1,0
    800069be:	0ec10b93          	addi	s7,sp,236
    800069c2:	ba85                	j	80006332 <_vfiprintf_r+0x3bc>
    800069c4:	0ec10313          	addi	t1,sp,236
    800069c8:	76e2                	ld	a3,56(sp)
    800069ca:	40087f13          	andi	t5,a6,1024
    800069ce:	4581                	li	a1,0
    800069d0:	861a                	mv	a2,t1
    800069d2:	4729                	li	a4,10
    800069d4:	4e25                	li	t3,9
    800069d6:	0ff00f93          	li	t6,255
    800069da:	a039                	j	800069e8 <_vfiprintf_r+0xa72>
    800069dc:	02ecd7b3          	divu	a5,s9,a4
    800069e0:	039e7763          	bgeu	t3,s9,80006a0e <_vfiprintf_r+0xa98>
    800069e4:	8cbe                	mv	s9,a5
    800069e6:	865e                	mv	a2,s7
    800069e8:	fff60b93          	addi	s7,a2,-1
    800069ec:	2585                	addiw	a1,a1,1
    800069ee:	02ecf7b3          	remu	a5,s9,a4
    800069f2:	0307879b          	addiw	a5,a5,48
    800069f6:	fef60fa3          	sb	a5,-1(a2)
    800069fa:	fe0f01e3          	beqz	t5,800069dc <_vfiprintf_r+0xa66>
    800069fe:	0006c783          	lbu	a5,0(a3)
    80006a02:	fcb79de3          	bne	a5,a1,800069dc <_vfiprintf_r+0xa66>
    80006a06:	fdf78be3          	beq	a5,t6,800069dc <_vfiprintf_r+0xa66>
    80006a0a:	139e6463          	bltu	t3,s9,80006b32 <_vfiprintf_r+0xbbc>
    80006a0e:	4173033b          	subw	t1,t1,s7
    80006a12:	fc36                	sd	a3,56(sp)
    80006a14:	00030e1b          	sext.w	t3,t1
    80006a18:	00935463          	bge	t1,s1,80006a20 <_vfiprintf_r+0xaaa>
    80006a1c:	00048e1b          	sext.w	t3,s1
    80006a20:	8cf6                	mv	s9,t4
    80006a22:	ba01                	j	80006332 <_vfiprintf_r+0x3bc>
    80006a24:	4e01                	li	t3,0
    80006a26:	0ec10b93          	addi	s7,sp,236
    80006a2a:	b221                	j	80006332 <_vfiprintf_r+0x3bc>
    80006a2c:	0441                	addi	s0,s0,16
    80006a2e:	0015851b          	addiw	a0,a1,1
    80006a32:	862e                	mv	a2,a1
    80006a34:	fd0ff06f          	j	80006204 <_vfiprintf_r+0x28e>
    80006a38:	04037793          	andi	a5,t1,64
    80006a3c:	000cac83          	lw	s9,0(s9)
    80006a40:	18078463          	beqz	a5,80006bc8 <_vfiprintf_r+0xc52>
    80006a44:	1cc2                	slli	s9,s9,0x30
    80006a46:	030cdc93          	srli	s9,s9,0x30
    80006a4a:	bc4d                	j	800064fc <_vfiprintf_r+0x586>
    80006a4c:	0407f613          	andi	a2,a5,64
    80006a50:	000ca703          	lw	a4,0(s9)
    80006a54:	18060063          	beqz	a2,80006bd4 <_vfiprintf_r+0xc5e>
    80006a58:	1742                	slli	a4,a4,0x30
    80006a5a:	9341                	srli	a4,a4,0x30
    80006a5c:	bc39                	j	8000647a <_vfiprintf_r+0x504>
    80006a5e:	000dc783          	lbu	a5,0(s11)
    80006a62:	e0070f63          	beqz	a4,80006080 <_vfiprintf_r+0x10a>
    80006a66:	00074703          	lbu	a4,0(a4)
    80006a6a:	e0070b63          	beqz	a4,80006080 <_vfiprintf_r+0x10a>
    80006a6e:	40086813          	ori	a6,a6,1024
    80006a72:	2801                	sext.w	a6,a6
    80006a74:	e0cff06f          	j	80006080 <_vfiprintf_r+0x10a>
    80006a78:	4601                	li	a2,0
    80006a7a:	4505                	li	a0,1
    80006a7c:	844e                	mv	s0,s3
    80006a7e:	f7eff06f          	j	800061fc <_vfiprintf_r+0x286>
    80006a82:	00048e1b          	sext.w	t3,s1
    80006a86:	8bb2                	mv	s7,a2
    80006a88:	b06d                	j	80006332 <_vfiprintf_r+0x3bc>
    80006a8a:	87c2                	mv	a5,a6
    80006a8c:	bae1                	j	80006464 <_vfiprintf_r+0x4ee>
    80006a8e:	00008717          	auipc	a4,0x8
    80006a92:	a2270713          	addi	a4,a4,-1502 # 8000e4b0 <__clz_tab+0x5a8>
    80006a96:	e43a                	sd	a4,8(sp)
    80006a98:	02087713          	andi	a4,a6,32
    80006a9c:	008c8613          	addi	a2,s9,8
    80006aa0:	eb31                	bnez	a4,80006af4 <_vfiprintf_r+0xb7e>
    80006aa2:	01087713          	andi	a4,a6,16
    80006aa6:	e739                	bnez	a4,80006af4 <_vfiprintf_r+0xb7e>
    80006aa8:	04087593          	andi	a1,a6,64
    80006aac:	000ca703          	lw	a4,0(s9)
    80006ab0:	10058663          	beqz	a1,80006bbc <_vfiprintf_r+0xc46>
    80006ab4:	1742                	slli	a4,a4,0x30
    80006ab6:	9341                	srli	a4,a4,0x30
    80006ab8:	00187593          	andi	a1,a6,1
    80006abc:	c999                	beqz	a1,80006ad2 <_vfiprintf_r+0xb5c>
    80006abe:	cb11                	beqz	a4,80006ad2 <_vfiprintf_r+0xb5c>
    80006ac0:	00286813          	ori	a6,a6,2
    80006ac4:	03000593          	li	a1,48
    80006ac8:	06b10423          	sb	a1,104(sp)
    80006acc:	06f104a3          	sb	a5,105(sp)
    80006ad0:	2801                	sext.w	a6,a6
    80006ad2:	bff87813          	andi	a6,a6,-1025
    80006ad6:	2801                	sext.w	a6,a6
    80006ad8:	8cb2                	mv	s9,a2
    80006ada:	bc65                	j	80006592 <_vfiprintf_r+0x61c>
    80006adc:	8342                	mv	t1,a6
    80006ade:	b421                	j	800064e6 <_vfiprintf_r+0x570>
    80006ae0:	00008717          	auipc	a4,0x8
    80006ae4:	9e870713          	addi	a4,a4,-1560 # 8000e4c8 <__clz_tab+0x5c0>
    80006ae8:	e43a                	sd	a4,8(sp)
    80006aea:	02087713          	andi	a4,a6,32
    80006aee:	008c8613          	addi	a2,s9,8
    80006af2:	db45                	beqz	a4,80006aa2 <_vfiprintf_r+0xb2c>
    80006af4:	000cb703          	ld	a4,0(s9)
    80006af8:	b7c1                	j	80006ab8 <_vfiprintf_r+0xb42>
    80006afa:	855e                	mv	a0,s7
    80006afc:	f15fb0ef          	jal	ra,80002a10 <strlen>
    80006b00:	0005031b          	sext.w	t1,a0
    80006b04:	fff34e13          	not	t3,t1
    80006b08:	43fe5e13          	srai	t3,t3,0x3f
    80006b0c:	6842                	ld	a6,16(sp)
    80006b0e:	68e2                	ld	a7,24(sp)
    80006b10:	006e7e33          	and	t3,t3,t1
    80006b14:	4481                	li	s1,0
    80006b16:	81dff06f          	j	80006332 <_vfiprintf_r+0x3bc>
    80006b1a:	06714703          	lbu	a4,103(sp)
    80006b1e:	c375                	beqz	a4,80006c02 <_vfiprintf_r+0xc8c>
    80006b20:	06710793          	addi	a5,sp,103
    80006b24:	f9be                	sd	a5,240(sp)
    80006b26:	4785                	li	a5,1
    80006b28:	fdbe                	sd	a5,248(sp)
    80006b2a:	4505                	li	a0,1
    80006b2c:	844e                	mv	s0,s3
    80006b2e:	e82ff06f          	j	800061b0 <_vfiprintf_r+0x23a>
    80006b32:	77c2                	ld	a5,48(sp)
    80006b34:	6586                	ld	a1,64(sp)
    80006b36:	e49a                	sd	t1,72(sp)
    80006b38:	40fb8bb3          	sub	s7,s7,a5
    80006b3c:	863e                	mv	a2,a5
    80006b3e:	855e                	mv	a0,s7
    80006b40:	fc76                	sd	t4,56(sp)
    80006b42:	f47a                	sd	t5,40(sp)
    80006b44:	f046                	sd	a7,32(sp)
    80006b46:	ec42                	sd	a6,24(sp)
    80006b48:	e836                	sd	a3,16(sp)
    80006b4a:	59c060ef          	jal	ra,8000d0e6 <strncpy>
    80006b4e:	66c2                	ld	a3,16(sp)
    80006b50:	47a9                	li	a5,10
    80006b52:	02fcd7b3          	divu	a5,s9,a5
    80006b56:	0016c603          	lbu	a2,1(a3)
    80006b5a:	6862                	ld	a6,24(sp)
    80006b5c:	7882                	ld	a7,32(sp)
    80006b5e:	00c03633          	snez	a2,a2
    80006b62:	7f22                	ld	t5,40(sp)
    80006b64:	7ee2                	ld	t4,56(sp)
    80006b66:	6326                	ld	t1,72(sp)
    80006b68:	96b2                	add	a3,a3,a2
    80006b6a:	4581                	li	a1,0
    80006b6c:	4729                	li	a4,10
    80006b6e:	4e25                	li	t3,9
    80006b70:	0ff00f93          	li	t6,255
    80006b74:	bd85                	j	800069e4 <_vfiprintf_r+0xa6e>
    80006b76:	883e                	mv	a6,a5
    80006b78:	4781                	li	a5,0
    80006b7a:	9a0786e3          	beqz	a5,80006526 <_vfiprintf_r+0x5b0>
    80006b7e:	b12d                	j	800067a8 <_vfiprintf_r+0x832>
    80006b80:	20086813          	ori	a6,a6,512
    80006b84:	001dc783          	lbu	a5,1(s11)
    80006b88:	2801                	sext.w	a6,a6
    80006b8a:	0d85                	addi	s11,s11,1
    80006b8c:	cf4ff06f          	j	80006080 <_vfiprintf_r+0x10a>
    80006b90:	02086813          	ori	a6,a6,32
    80006b94:	001dc783          	lbu	a5,1(s11)
    80006b98:	2801                	sext.w	a6,a6
    80006b9a:	0d85                	addi	s11,s11,1
    80006b9c:	ce4ff06f          	j	80006080 <_vfiprintf_r+0x10a>
    80006ba0:	4799                	li	a5,6
    80006ba2:	0004831b          	sext.w	t1,s1
    80006ba6:	0497ec63          	bltu	a5,s1,80006bfe <_vfiprintf_r+0xc88>
    80006baa:	8e1a                	mv	t3,t1
    80006bac:	00008b97          	auipc	s7,0x8
    80006bb0:	934b8b93          	addi	s7,s7,-1740 # 8000e4e0 <__clz_tab+0x5d8>
    80006bb4:	dbaff06f          	j	8000616e <_vfiprintf_r+0x1f8>
    80006bb8:	4701                	li	a4,0
    80006bba:	b6fd                	j	800067a8 <_vfiprintf_r+0x832>
    80006bbc:	20087593          	andi	a1,a6,512
    80006bc0:	c5ad                	beqz	a1,80006c2a <_vfiprintf_r+0xcb4>
    80006bc2:	0ff77713          	zext.b	a4,a4
    80006bc6:	bdcd                	j	80006ab8 <_vfiprintf_r+0xb42>
    80006bc8:	20037793          	andi	a5,t1,512
    80006bcc:	cbb9                	beqz	a5,80006c22 <_vfiprintf_r+0xcac>
    80006bce:	0ffcfc93          	zext.b	s9,s9
    80006bd2:	b22d                	j	800064fc <_vfiprintf_r+0x586>
    80006bd4:	2007f613          	andi	a2,a5,512
    80006bd8:	c231                	beqz	a2,80006c1c <_vfiprintf_r+0xca6>
    80006bda:	0ff77713          	zext.b	a4,a4
    80006bde:	b871                	j	8000647a <_vfiprintf_r+0x504>
    80006be0:	20087793          	andi	a5,a6,512
    80006be4:	cb8d                	beqz	a5,80006c16 <_vfiprintf_r+0xca0>
    80006be6:	018c9c9b          	slliw	s9,s9,0x18
    80006bea:	418cdc9b          	sraiw	s9,s9,0x18
    80006bee:	87e6                	mv	a5,s9
    80006bf0:	eb4ff06f          	j	800062a4 <_vfiprintf_r+0x32e>
    80006bf4:	4505                	li	a0,1
    80006bf6:	4601                	li	a2,0
    80006bf8:	844e                	mv	s0,s3
    80006bfa:	e0aff06f          	j	80006204 <_vfiprintf_r+0x28e>
    80006bfe:	4319                	li	t1,6
    80006c00:	b76d                	j	80006baa <_vfiprintf_r+0xc34>
    80006c02:	4601                	li	a2,0
    80006c04:	4505                	li	a0,1
    80006c06:	844e                	mv	s0,s3
    80006c08:	daeff06f          	j	800061b6 <_vfiprintf_r+0x240>
    80006c0c:	01a71023          	sh	s10,0(a4)
    80006c10:	0ca1                	addi	s9,s9,8
    80006c12:	bfaff06f          	j	8000600c <_vfiprintf_r+0x96>
    80006c16:	87e6                	mv	a5,s9
    80006c18:	e8cff06f          	j	800062a4 <_vfiprintf_r+0x32e>
    80006c1c:	1702                	slli	a4,a4,0x20
    80006c1e:	9301                	srli	a4,a4,0x20
    80006c20:	b8a9                	j	8000647a <_vfiprintf_r+0x504>
    80006c22:	1c82                	slli	s9,s9,0x20
    80006c24:	020cdc93          	srli	s9,s9,0x20
    80006c28:	b8d1                	j	800064fc <_vfiprintf_r+0x586>
    80006c2a:	1702                	slli	a4,a4,0x20
    80006c2c:	9301                	srli	a4,a4,0x20
    80006c2e:	b569                	j	80006ab8 <_vfiprintf_r+0xb42>
    80006c30:	8e26                	mv	t3,s1
    80006c32:	8326                	mv	t1,s1
    80006c34:	4481                	li	s1,0
    80006c36:	efcff06f          	j	80006332 <_vfiprintf_r+0x3bc>
    80006c3a:	00008e97          	auipc	t4,0x8
    80006c3e:	a3ee8e93          	addi	t4,t4,-1474 # 8000e678 <blanks.1>
    80006c42:	b929                	j	8000685c <_vfiprintf_r+0x8e6>
    80006c44:	8cf6                	mv	s9,t4
    80006c46:	03000793          	li	a5,48
    80006c4a:	ed4ff06f          	j	8000631e <_vfiprintf_r+0x3a8>
    80006c4e:	0016071b          	addiw	a4,a2,1
    80006c52:	00008e97          	auipc	t4,0x8
    80006c56:	a26e8e93          	addi	t4,t4,-1498 # 8000e678 <blanks.1>
    80006c5a:	b165                	j	80006902 <_vfiprintf_r+0x98c>
    80006c5c:	85aa                	mv	a1,a0
    80006c5e:	00008e97          	auipc	t4,0x8
    80006c62:	9fae8e93          	addi	t4,t4,-1542 # 8000e658 <zeroes.0>
    80006c66:	b439                	j	80006674 <_vfiprintf_r+0x6fe>
    80006c68:	5cfd                	li	s9,-1
    80006c6a:	c9aff06f          	j	80006104 <_vfiprintf_r+0x18e>
    80006c6e:	01a72023          	sw	s10,0(a4)
    80006c72:	0ca1                	addi	s9,s9,8
    80006c74:	b98ff06f          	j	8000600c <_vfiprintf_r+0x96>
    80006c78:	000ca783          	lw	a5,0(s9)
    80006c7c:	0ca1                	addi	s9,s9,8
    80006c7e:	0007849b          	sext.w	s1,a5
    80006c82:	0007d363          	bgez	a5,80006c88 <_vfiprintf_r+0xd12>
    80006c86:	54fd                	li	s1,-1
    80006c88:	001dc783          	lbu	a5,1(s11)
    80006c8c:	8dba                	mv	s11,a4
    80006c8e:	bf2ff06f          	j	80006080 <_vfiprintf_r+0x10a>

Disassembly of section .text.vfiprintf:

0000000080006c92 <vfiprintf>:
    80006c92:	86b2                	mv	a3,a2
    80006c94:	862e                	mv	a2,a1
    80006c96:	85aa                	mv	a1,a0
    80006c98:	8a01b503          	ld	a0,-1888(gp) # 80010180 <_impure_ptr>
    80006c9c:	adaff06f          	j	80005f76 <_vfiprintf_r>

Disassembly of section .text.__sbprintf:

0000000080006ca0 <__sbprintf>:
    80006ca0:	01059783          	lh	a5,16(a1)
    80006ca4:	0125d703          	lhu	a4,18(a1)
    80006ca8:	0ac5a303          	lw	t1,172(a1)
    80006cac:	9bf5                	andi	a5,a5,-3
    80006cae:	0107979b          	slliw	a5,a5,0x10
    80006cb2:	0305b883          	ld	a7,48(a1)
    80006cb6:	0405b803          	ld	a6,64(a1)
    80006cba:	0107171b          	slliw	a4,a4,0x10
    80006cbe:	0107d79b          	srliw	a5,a5,0x10
    80006cc2:	b3010113          	addi	sp,sp,-1232
    80006cc6:	8fd9                	or	a5,a5,a4
    80006cc8:	4c813023          	sd	s0,1216(sp)
    80006ccc:	40000713          	li	a4,1024
    80006cd0:	c83e                	sw	a5,16(sp)
    80006cd2:	842e                	mv	s0,a1
    80006cd4:	191c                	addi	a5,sp,176
    80006cd6:	858a                	mv	a1,sp
    80006cd8:	4a913c23          	sd	s1,1208(sp)
    80006cdc:	4b213823          	sd	s2,1200(sp)
    80006ce0:	4c113423          	sd	ra,1224(sp)
    80006ce4:	892a                	mv	s2,a0
    80006ce6:	d71a                	sw	t1,172(sp)
    80006ce8:	f846                	sd	a7,48(sp)
    80006cea:	e0c2                	sd	a6,64(sp)
    80006cec:	e03e                	sd	a5,0(sp)
    80006cee:	ec3e                	sd	a5,24(sp)
    80006cf0:	c63a                	sw	a4,12(sp)
    80006cf2:	d03a                	sw	a4,32(sp)
    80006cf4:	d402                	sw	zero,40(sp)
    80006cf6:	a80ff0ef          	jal	ra,80005f76 <_vfiprintf_r>
    80006cfa:	84aa                	mv	s1,a0
    80006cfc:	02055963          	bgez	a0,80006d2e <__sbprintf+0x8e>
    80006d00:	01015783          	lhu	a5,16(sp)
    80006d04:	0407f793          	andi	a5,a5,64
    80006d08:	c799                	beqz	a5,80006d16 <__sbprintf+0x76>
    80006d0a:	01045783          	lhu	a5,16(s0)
    80006d0e:	0407e793          	ori	a5,a5,64
    80006d12:	00f41823          	sh	a5,16(s0)
    80006d16:	4c813083          	ld	ra,1224(sp)
    80006d1a:	4c013403          	ld	s0,1216(sp)
    80006d1e:	4b013903          	ld	s2,1200(sp)
    80006d22:	8526                	mv	a0,s1
    80006d24:	4b813483          	ld	s1,1208(sp)
    80006d28:	4d010113          	addi	sp,sp,1232
    80006d2c:	8082                	ret
    80006d2e:	858a                	mv	a1,sp
    80006d30:	854a                	mv	a0,s2
    80006d32:	032020ef          	jal	ra,80008d64 <_fflush_r>
    80006d36:	d569                	beqz	a0,80006d00 <__sbprintf+0x60>
    80006d38:	54fd                	li	s1,-1
    80006d3a:	b7d9                	j	80006d00 <__sbprintf+0x60>

0000000080006d3c <__sbprintf>:
    80006d3c:	01059783          	lh	a5,16(a1)
    80006d40:	0125d703          	lhu	a4,18(a1)
    80006d44:	0ac5a303          	lw	t1,172(a1)
    80006d48:	9bf5                	andi	a5,a5,-3
    80006d4a:	0107979b          	slliw	a5,a5,0x10
    80006d4e:	0305b883          	ld	a7,48(a1)
    80006d52:	0405b803          	ld	a6,64(a1)
    80006d56:	0107171b          	slliw	a4,a4,0x10
    80006d5a:	0107d79b          	srliw	a5,a5,0x10
    80006d5e:	b3010113          	addi	sp,sp,-1232
    80006d62:	8fd9                	or	a5,a5,a4
    80006d64:	4c813023          	sd	s0,1216(sp)
    80006d68:	40000713          	li	a4,1024
    80006d6c:	c83e                	sw	a5,16(sp)
    80006d6e:	842e                	mv	s0,a1
    80006d70:	191c                	addi	a5,sp,176
    80006d72:	858a                	mv	a1,sp
    80006d74:	4a913c23          	sd	s1,1208(sp)
    80006d78:	4b213823          	sd	s2,1200(sp)
    80006d7c:	4c113423          	sd	ra,1224(sp)
    80006d80:	892a                	mv	s2,a0
    80006d82:	d71a                	sw	t1,172(sp)
    80006d84:	f846                	sd	a7,48(sp)
    80006d86:	e0c2                	sd	a6,64(sp)
    80006d88:	e03e                	sd	a5,0(sp)
    80006d8a:	ec3e                	sd	a5,24(sp)
    80006d8c:	c63a                	sw	a4,12(sp)
    80006d8e:	d03a                	sw	a4,32(sp)
    80006d90:	d402                	sw	zero,40(sp)
    80006d92:	046000ef          	jal	ra,80006dd8 <_vfprintf_r>
    80006d96:	84aa                	mv	s1,a0
    80006d98:	02055963          	bgez	a0,80006dca <__sbprintf+0x8e>
    80006d9c:	01015783          	lhu	a5,16(sp)
    80006da0:	0407f793          	andi	a5,a5,64
    80006da4:	c799                	beqz	a5,80006db2 <__sbprintf+0x76>
    80006da6:	01045783          	lhu	a5,16(s0)
    80006daa:	0407e793          	ori	a5,a5,64
    80006dae:	00f41823          	sh	a5,16(s0)
    80006db2:	4c813083          	ld	ra,1224(sp)
    80006db6:	4c013403          	ld	s0,1216(sp)
    80006dba:	4b013903          	ld	s2,1200(sp)
    80006dbe:	8526                	mv	a0,s1
    80006dc0:	4b813483          	ld	s1,1208(sp)
    80006dc4:	4d010113          	addi	sp,sp,1232
    80006dc8:	8082                	ret
    80006dca:	858a                	mv	a1,sp
    80006dcc:	854a                	mv	a0,s2
    80006dce:	797010ef          	jal	ra,80008d64 <_fflush_r>
    80006dd2:	d569                	beqz	a0,80006d9c <__sbprintf+0x60>
    80006dd4:	54fd                	li	s1,-1
    80006dd6:	b7d9                	j	80006d9c <__sbprintf+0x60>

Disassembly of section .text._vfprintf_r:

0000000080006dd8 <_vfprintf_r>:
    80006dd8:	d9010113          	addi	sp,sp,-624
    80006ddc:	26113423          	sd	ra,616(sp)
    80006de0:	26813023          	sd	s0,608(sp)
    80006de4:	25213823          	sd	s2,592(sp)
    80006de8:	e02e                	sd	a1,0(sp)
    80006dea:	8932                	mv	s2,a2
    80006dec:	ec36                	sd	a3,24(sp)
    80006dee:	24913c23          	sd	s1,600(sp)
    80006df2:	25313423          	sd	s3,584(sp)
    80006df6:	25413023          	sd	s4,576(sp)
    80006dfa:	23513c23          	sd	s5,568(sp)
    80006dfe:	23613823          	sd	s6,560(sp)
    80006e02:	23713423          	sd	s7,552(sp)
    80006e06:	23813023          	sd	s8,544(sp)
    80006e0a:	21913c23          	sd	s9,536(sp)
    80006e0e:	21a13823          	sd	s10,528(sp)
    80006e12:	21b13423          	sd	s11,520(sp)
    80006e16:	842a                	mv	s0,a0
    80006e18:	e0aa                	sd	a0,64(sp)
    80006e1a:	443040ef          	jal	ra,8000ba5c <_localeconv_r>
    80006e1e:	611c                	ld	a5,0(a0)
    80006e20:	853e                	mv	a0,a5
    80006e22:	e8be                	sd	a5,80(sp)
    80006e24:	bedfb0ef          	jal	ra,80002a10 <strlen>
    80006e28:	e4aa                	sd	a0,72(sp)
    80006e2a:	f982                	sd	zero,240(sp)
    80006e2c:	fd82                	sd	zero,248(sp)
    80006e2e:	c401                	beqz	s0,80006e36 <_vfprintf_r+0x5e>
    80006e30:	4838                	lw	a4,80(s0)
    80006e32:	46070e63          	beqz	a4,800072ae <_vfprintf_r+0x4d6>
    80006e36:	6782                	ld	a5,0(sp)
    80006e38:	01079703          	lh	a4,16(a5)
    80006e3c:	03271693          	slli	a3,a4,0x32
    80006e40:	0206c163          	bltz	a3,80006e62 <_vfprintf_r+0x8a>
    80006e44:	0ac7a683          	lw	a3,172(a5)
    80006e48:	6609                	lui	a2,0x2
    80006e4a:	8f51                	or	a4,a4,a2
    80006e4c:	7679                	lui	a2,0xffffe
    80006e4e:	0107171b          	slliw	a4,a4,0x10
    80006e52:	167d                	addi	a2,a2,-1 # ffffffffffffdfff <_end+0xffffffff7cfecdbf>
    80006e54:	4107571b          	sraiw	a4,a4,0x10
    80006e58:	8ef1                	and	a3,a3,a2
    80006e5a:	00e79823          	sh	a4,16(a5)
    80006e5e:	0ad7a623          	sw	a3,172(a5)
    80006e62:	00877693          	andi	a3,a4,8
    80006e66:	24068f63          	beqz	a3,800070c4 <_vfprintf_r+0x2ec>
    80006e6a:	6782                	ld	a5,0(sp)
    80006e6c:	6f94                	ld	a3,24(a5)
    80006e6e:	24068b63          	beqz	a3,800070c4 <_vfprintf_r+0x2ec>
    80006e72:	8b69                	andi	a4,a4,26
    80006e74:	46a9                	li	a3,10
    80006e76:	26d70563          	beq	a4,a3,800070e0 <_vfprintf_r+0x308>
    80006e7a:	8aca                	mv	s5,s2
    80006e7c:	000ac703          	lbu	a4,0(s5)
    80006e80:	031c                	addi	a5,sp,384
    80006e82:	e23e                	sd	a5,256(sp)
    80006e84:	ea02                	sd	zero,272(sp)
    80006e86:	10012423          	sw	zero,264(sp)
    80006e8a:	f402                	sd	zero,40(sp)
    80006e8c:	ec82                	sd	zero,88(sp)
    80006e8e:	f082                	sd	zero,96(sp)
    80006e90:	f482                	sd	zero,104(sp)
    80006e92:	f882                	sd	zero,112(sp)
    80006e94:	fc82                	sd	zero,120(sp)
    80006e96:	e402                	sd	zero,8(sp)
    80006e98:	6486                	ld	s1,64(sp)
    80006e9a:	4dc1                	li	s11,16
    80006e9c:	843e                	mv	s0,a5
    80006e9e:	1c070363          	beqz	a4,80007064 <_vfprintf_r+0x28c>
    80006ea2:	89d6                	mv	s3,s5
    80006ea4:	02500693          	li	a3,37
    80006ea8:	24d70963          	beq	a4,a3,800070fa <_vfprintf_r+0x322>
    80006eac:	0019c703          	lbu	a4,1(s3)
    80006eb0:	0985                	addi	s3,s3,1
    80006eb2:	fb7d                	bnez	a4,80006ea8 <_vfprintf_r+0xd0>
    80006eb4:	41598b3b          	subw	s6,s3,s5
    80006eb8:	1a0b0663          	beqz	s6,80007064 <_vfprintf_r+0x28c>
    80006ebc:	10812703          	lw	a4,264(sp)
    80006ec0:	6d52                	ld	s10,272(sp)
    80006ec2:	01543023          	sd	s5,0(s0)
    80006ec6:	0017069b          	addiw	a3,a4,1
    80006eca:	9d5a                	add	s10,s10,s6
    80006ecc:	01643423          	sd	s6,8(s0)
    80006ed0:	ea6a                	sd	s10,272(sp)
    80006ed2:	10d12423          	sw	a3,264(sp)
    80006ed6:	471d                	li	a4,7
    80006ed8:	0441                	addi	s0,s0,16
    80006eda:	22d74763          	blt	a4,a3,80007108 <_vfprintf_r+0x330>
    80006ede:	67a2                	ld	a5,8(sp)
    80006ee0:	0009c703          	lbu	a4,0(s3)
    80006ee4:	016787bb          	addw	a5,a5,s6
    80006ee8:	e43e                	sd	a5,8(sp)
    80006eea:	16070d63          	beqz	a4,80007064 <_vfprintf_r+0x28c>
    80006eee:	5e7d                	li	t3,-1
    80006ef0:	0019ce83          	lbu	t4,1(s3)
    80006ef4:	0c0107a3          	sb	zero,207(sp)
    80006ef8:	0985                	addi	s3,s3,1
    80006efa:	4b81                	li	s7,0
    80006efc:	4901                	li	s2,0
    80006efe:	05a00b13          	li	s6,90
    80006f02:	8a72                	mv	s4,t3
    80006f04:	0985                	addi	s3,s3,1
    80006f06:	2e81                	sext.w	t4,t4
    80006f08:	fe0e879b          	addiw	a5,t4,-32
    80006f0c:	0007871b          	sext.w	a4,a5
    80006f10:	04eb6963          	bltu	s6,a4,80006f62 <_vfprintf_r+0x18a>
    80006f14:	02079713          	slli	a4,a5,0x20
    80006f18:	01e75793          	srli	a5,a4,0x1e
    80006f1c:	00007717          	auipc	a4,0x7
    80006f20:	7d870713          	addi	a4,a4,2008 # 8000e6f4 <blanks.1+0x6c>
    80006f24:	97ba                	add	a5,a5,a4
    80006f26:	439c                	lw	a5,0(a5)
    80006f28:	97ba                	add	a5,a5,a4
    80006f2a:	8782                	jr	a5
    80006f2c:	4b81                	li	s7,0
    80006f2e:	46a5                	li	a3,9
    80006f30:	0009c703          	lbu	a4,0(s3)
    80006f34:	002b979b          	slliw	a5,s7,0x2
    80006f38:	01778bbb          	addw	s7,a5,s7
    80006f3c:	fd0e8e9b          	addiw	t4,t4,-48
    80006f40:	001b9b9b          	slliw	s7,s7,0x1
    80006f44:	fd07079b          	addiw	a5,a4,-48
    80006f48:	017e8bbb          	addw	s7,t4,s7
    80006f4c:	0985                	addi	s3,s3,1
    80006f4e:	00070e9b          	sext.w	t4,a4
    80006f52:	fcf6ffe3          	bgeu	a3,a5,80006f30 <_vfprintf_r+0x158>
    80006f56:	fe0e879b          	addiw	a5,t4,-32
    80006f5a:	0007871b          	sext.w	a4,a5
    80006f5e:	faeb7be3          	bgeu	s6,a4,80006f14 <_vfprintf_r+0x13c>
    80006f62:	100e8163          	beqz	t4,80007064 <_vfprintf_r+0x28c>
    80006f66:	11d10c23          	sb	t4,280(sp)
    80006f6a:	0c0107a3          	sb	zero,207(sp)
    80006f6e:	4b05                	li	s6,1
    80006f70:	4c85                	li	s9,1
    80006f72:	11810a93          	addi	s5,sp,280
    80006f76:	e802                	sd	zero,16(sp)
    80006f78:	4e01                	li	t3,0
    80006f7a:	fc02                	sd	zero,56(sp)
    80006f7c:	f802                	sd	zero,48(sp)
    80006f7e:	f002                	sd	zero,32(sp)
    80006f80:	00297293          	andi	t0,s2,2
    80006f84:	00028363          	beqz	t0,80006f8a <_vfprintf_r+0x1b2>
    80006f88:	2b09                	addiw	s6,s6,2
    80006f8a:	08497c13          	andi	s8,s2,132
    80006f8e:	000c1663          	bnez	s8,80006f9a <_vfprintf_r+0x1c2>
    80006f92:	416b8d3b          	subw	s10,s7,s6
    80006f96:	05a04ae3          	bgtz	s10,800077ea <_vfprintf_r+0xa12>
    80006f9a:	0cf14603          	lbu	a2,207(sp)
    80006f9e:	6d52                	ld	s10,272(sp)
    80006fa0:	c21d                	beqz	a2,80006fc6 <_vfprintf_r+0x1ee>
    80006fa2:	10812603          	lw	a2,264(sp)
    80006fa6:	0cf10593          	addi	a1,sp,207
    80006faa:	e00c                	sd	a1,0(s0)
    80006fac:	2605                	addiw	a2,a2,1
    80006fae:	4585                	li	a1,1
    80006fb0:	0d05                	addi	s10,s10,1
    80006fb2:	e40c                	sd	a1,8(s0)
    80006fb4:	10c12423          	sw	a2,264(sp)
    80006fb8:	0006059b          	sext.w	a1,a2
    80006fbc:	ea6a                	sd	s10,272(sp)
    80006fbe:	461d                	li	a2,7
    80006fc0:	0441                	addi	s0,s0,16
    80006fc2:	20b64963          	blt	a2,a1,800071d4 <_vfprintf_r+0x3fc>
    80006fc6:	02028363          	beqz	t0,80006fec <_vfprintf_r+0x214>
    80006fca:	10812603          	lw	a2,264(sp)
    80006fce:	4589                	li	a1,2
    80006fd0:	0d09                	addi	s10,s10,2
    80006fd2:	2605                	addiw	a2,a2,1
    80006fd4:	099c                	addi	a5,sp,208
    80006fd6:	e40c                	sd	a1,8(s0)
    80006fd8:	e01c                	sd	a5,0(s0)
    80006fda:	0006059b          	sext.w	a1,a2
    80006fde:	10c12423          	sw	a2,264(sp)
    80006fe2:	ea6a                	sd	s10,272(sp)
    80006fe4:	461d                	li	a2,7
    80006fe6:	0441                	addi	s0,s0,16
    80006fe8:	0cb64ae3          	blt	a2,a1,800078bc <_vfprintf_r+0xae4>
    80006fec:	08000613          	li	a2,128
    80006ff0:	6acc0d63          	beq	s8,a2,800076aa <_vfprintf_r+0x8d2>
    80006ff4:	419e0a3b          	subw	s4,t3,s9
    80006ff8:	75404863          	bgtz	s4,80007748 <_vfprintf_r+0x970>
    80006ffc:	10097613          	andi	a2,s2,256
    80007000:	54061f63          	bnez	a2,8000755e <_vfprintf_r+0x786>
    80007004:	10812583          	lw	a1,264(sp)
    80007008:	01ac8633          	add	a2,s9,s10
    8000700c:	01543023          	sd	s5,0(s0)
    80007010:	0015869b          	addiw	a3,a1,1
    80007014:	01943423          	sd	s9,8(s0)
    80007018:	ea32                	sd	a2,272(sp)
    8000701a:	10d12423          	sw	a3,264(sp)
    8000701e:	479d                	li	a5,7
    80007020:	26d7cd63          	blt	a5,a3,8000729a <_vfprintf_r+0x4c2>
    80007024:	0441                	addi	s0,s0,16
    80007026:	00497913          	andi	s2,s2,4
    8000702a:	00090663          	beqz	s2,80007036 <_vfprintf_r+0x25e>
    8000702e:	416b893b          	subw	s2,s7,s6
    80007032:	0b2043e3          	bgtz	s2,800078d8 <_vfprintf_r+0xb00>
    80007036:	87de                	mv	a5,s7
    80007038:	016bd363          	bge	s7,s6,8000703e <_vfprintf_r+0x266>
    8000703c:	87da                	mv	a5,s6
    8000703e:	6722                	ld	a4,8(sp)
    80007040:	9fb9                	addw	a5,a5,a4
    80007042:	e43e                	sd	a5,8(sp)
    80007044:	78061563          	bnez	a2,800077ce <_vfprintf_r+0x9f6>
    80007048:	67c2                	ld	a5,16(sp)
    8000704a:	10012423          	sw	zero,264(sp)
    8000704e:	c789                	beqz	a5,80007058 <_vfprintf_r+0x280>
    80007050:	65c2                	ld	a1,16(sp)
    80007052:	8526                	mv	a0,s1
    80007054:	20a020ef          	jal	ra,8000925e <_free_r>
    80007058:	0300                	addi	s0,sp,384
    8000705a:	8ace                	mv	s5,s3
    8000705c:	000ac703          	lbu	a4,0(s5)
    80007060:	e40711e3          	bnez	a4,80006ea2 <_vfprintf_r+0xca>
    80007064:	67d2                	ld	a5,272(sp)
    80007066:	c399                	beqz	a5,8000706c <_vfprintf_r+0x294>
    80007068:	3600106f          	j	800083c8 <_vfprintf_r+0x15f0>
    8000706c:	6782                	ld	a5,0(sp)
    8000706e:	0107d783          	lhu	a5,16(a5)
    80007072:	0407f793          	andi	a5,a5,64
    80007076:	c399                	beqz	a5,8000707c <_vfprintf_r+0x2a4>
    80007078:	77e0106f          	j	800087f6 <_vfprintf_r+0x1a1e>
    8000707c:	26813083          	ld	ra,616(sp)
    80007080:	26013403          	ld	s0,608(sp)
    80007084:	6522                	ld	a0,8(sp)
    80007086:	25813483          	ld	s1,600(sp)
    8000708a:	25013903          	ld	s2,592(sp)
    8000708e:	24813983          	ld	s3,584(sp)
    80007092:	24013a03          	ld	s4,576(sp)
    80007096:	23813a83          	ld	s5,568(sp)
    8000709a:	23013b03          	ld	s6,560(sp)
    8000709e:	22813b83          	ld	s7,552(sp)
    800070a2:	22013c03          	ld	s8,544(sp)
    800070a6:	21813c83          	ld	s9,536(sp)
    800070aa:	21013d03          	ld	s10,528(sp)
    800070ae:	20813d83          	ld	s11,520(sp)
    800070b2:	27010113          	addi	sp,sp,624
    800070b6:	8082                	ret
    800070b8:	01096913          	ori	s2,s2,16
    800070bc:	0009ce83          	lbu	t4,0(s3)
    800070c0:	2901                	sext.w	s2,s2
    800070c2:	b589                	j	80006f04 <_vfprintf_r+0x12c>
    800070c4:	6582                	ld	a1,0(sp)
    800070c6:	6506                	ld	a0,64(sp)
    800070c8:	23f010ef          	jal	ra,80008b06 <__swsetup_r>
    800070cc:	c119                	beqz	a0,800070d2 <_vfprintf_r+0x2fa>
    800070ce:	7280106f          	j	800087f6 <_vfprintf_r+0x1a1e>
    800070d2:	6782                	ld	a5,0(sp)
    800070d4:	46a9                	li	a3,10
    800070d6:	01079703          	lh	a4,16(a5)
    800070da:	8b69                	andi	a4,a4,26
    800070dc:	d8d71fe3          	bne	a4,a3,80006e7a <_vfprintf_r+0xa2>
    800070e0:	6782                	ld	a5,0(sp)
    800070e2:	01279703          	lh	a4,18(a5)
    800070e6:	d8074ae3          	bltz	a4,80006e7a <_vfprintf_r+0xa2>
    800070ea:	66e2                	ld	a3,24(sp)
    800070ec:	6506                	ld	a0,64(sp)
    800070ee:	864a                	mv	a2,s2
    800070f0:	85be                	mv	a1,a5
    800070f2:	c4bff0ef          	jal	ra,80006d3c <__sbprintf>
    800070f6:	e42a                	sd	a0,8(sp)
    800070f8:	b751                	j	8000707c <_vfprintf_r+0x2a4>
    800070fa:	41598b3b          	subw	s6,s3,s5
    800070fe:	da0b1fe3          	bnez	s6,80006ebc <_vfprintf_r+0xe4>
    80007102:	0009c703          	lbu	a4,0(s3)
    80007106:	b3d5                	j	80006eea <_vfprintf_r+0x112>
    80007108:	6582                	ld	a1,0(sp)
    8000710a:	0210                	addi	a2,sp,256
    8000710c:	8526                	mv	a0,s1
    8000710e:	e5bfe0ef          	jal	ra,80005f68 <__sprint_r>
    80007112:	fd29                	bnez	a0,8000706c <_vfprintf_r+0x294>
    80007114:	0300                	addi	s0,sp,384
    80007116:	b3e1                	j	80006ede <_vfprintf_r+0x106>
    80007118:	00897713          	andi	a4,s2,8
    8000711c:	8e52                	mv	t3,s4
    8000711e:	300711e3          	bnez	a4,80007c20 <_vfprintf_r+0xe48>
    80007122:	67e2                	ld	a5,24(sp)
    80007124:	f052                	sd	s4,32(sp)
    80007126:	e876                	sd	t4,16(sp)
    80007128:	2388                	fld	fa0,0(a5)
    8000712a:	00878a13          	addi	s4,a5,8
    8000712e:	ec52                	sd	s4,24(sp)
    80007130:	b13fd0ef          	jal	ra,80004c42 <__extenddftf2>
    80007134:	7e02                	ld	t3,32(sp)
    80007136:	6ec2                	ld	t4,16(sp)
    80007138:	872a                	mv	a4,a0
    8000713a:	1988                	addi	a0,sp,240
    8000713c:	f072                	sd	t3,32(sp)
    8000713e:	e876                	sd	t4,16(sp)
    80007140:	f9ba                	sd	a4,240(sp)
    80007142:	fdae                	sd	a1,248(sp)
    80007144:	0d1040ef          	jal	ra,8000ba14 <_ldcheck>
    80007148:	cdaa                	sw	a0,216(sp)
    8000714a:	4709                	li	a4,2
    8000714c:	6ec2                	ld	t4,16(sp)
    8000714e:	7e02                	ld	t3,32(sp)
    80007150:	56e503e3          	beq	a0,a4,80007eb6 <_vfprintf_r+0x10de>
    80007154:	4705                	li	a4,1
    80007156:	66e50fe3          	beq	a0,a4,80007fd4 <_vfprintf_r+0x11fc>
    8000715a:	06100713          	li	a4,97
    8000715e:	00ee9463          	bne	t4,a4,80007166 <_vfprintf_r+0x38e>
    80007162:	53e0106f          	j	800086a0 <_vfprintf_r+0x18c8>
    80007166:	04100713          	li	a4,65
    8000716a:	00ee9463          	bne	t4,a4,80007172 <_vfprintf_r+0x39a>
    8000716e:	2880106f          	j	800083f6 <_vfprintf_r+0x161e>
    80007172:	577d                	li	a4,-1
    80007174:	00ee1463          	bne	t3,a4,8000717c <_vfprintf_r+0x3a4>
    80007178:	7820106f          	j	800088fa <_vfprintf_r+0x1b22>
    8000717c:	fdfef713          	andi	a4,t4,-33
    80007180:	04700693          	li	a3,71
    80007184:	00d71463          	bne	a4,a3,8000718c <_vfprintf_r+0x3b4>
    80007188:	7640106f          	j	800088ec <_vfprintf_r+0x1b14>
    8000718c:	10096713          	ori	a4,s2,256
    80007190:	7b6e                	ld	s6,248(sp)
    80007192:	0007079b          	sext.w	a5,a4
    80007196:	e13e                	sd	a5,128(sp)
    80007198:	f84a                	sd	s2,48(sp)
    8000719a:	7a4e                	ld	s4,240(sp)
    8000719c:	000b5463          	bgez	s6,800071a4 <_vfprintf_r+0x3cc>
    800071a0:	4c00106f          	j	80008660 <_vfprintf_r+0x1888>
    800071a4:	e502                	sd	zero,136(sp)
    800071a6:	e802                	sd	zero,16(sp)
    800071a8:	fbfe871b          	addiw	a4,t4,-65
    800071ac:	0007061b          	sext.w	a2,a4
    800071b0:	02500693          	li	a3,37
    800071b4:	00c6f463          	bgeu	a3,a2,800071bc <_vfprintf_r+0x3e4>
    800071b8:	0360106f          	j	800081ee <_vfprintf_r+0x1416>
    800071bc:	02071613          	slli	a2,a4,0x20
    800071c0:	00007697          	auipc	a3,0x7
    800071c4:	6a068693          	addi	a3,a3,1696 # 8000e860 <blanks.1+0x1d8>
    800071c8:	01e65713          	srli	a4,a2,0x1e
    800071cc:	9736                	add	a4,a4,a3
    800071ce:	4318                	lw	a4,0(a4)
    800071d0:	9736                	add	a4,a4,a3
    800071d2:	8702                	jr	a4
    800071d4:	6582                	ld	a1,0(sp)
    800071d6:	0210                	addi	a2,sp,256
    800071d8:	8526                	mv	a0,s1
    800071da:	e972                	sd	t3,144(sp)
    800071dc:	e576                	sd	t4,136(sp)
    800071de:	e116                	sd	t0,128(sp)
    800071e0:	d89fe0ef          	jal	ra,80005f68 <__sprint_r>
    800071e4:	5e051c63          	bnez	a0,800077dc <_vfprintf_r+0xa04>
    800071e8:	6d52                	ld	s10,272(sp)
    800071ea:	6e4a                	ld	t3,144(sp)
    800071ec:	6eaa                	ld	t4,136(sp)
    800071ee:	628a                	ld	t0,128(sp)
    800071f0:	0300                	addi	s0,sp,384
    800071f2:	bbd1                	j	80006fc6 <_vfprintf_r+0x1ee>
    800071f4:	77a2                	ld	a5,40(sp)
    800071f6:	4685                	li	a3,1
    800071f8:	01040c13          	addi	s8,s0,16
    800071fc:	08f6d5e3          	bge	a3,a5,80007a86 <_vfprintf_r+0xcae>
    80007200:	10812583          	lw	a1,264(sp)
    80007204:	4685                	li	a3,1
    80007206:	0d05                	addi	s10,s10,1
    80007208:	2585                	addiw	a1,a1,1
    8000720a:	e414                	sd	a3,8(s0)
    8000720c:	01543023          	sd	s5,0(s0)
    80007210:	ea6a                	sd	s10,272(sp)
    80007212:	0005869b          	sext.w	a3,a1
    80007216:	10b12423          	sw	a1,264(sp)
    8000721a:	461d                	li	a2,7
    8000721c:	36d640e3          	blt	a2,a3,80007d7c <_vfprintf_r+0xfa4>
    80007220:	67a6                	ld	a5,72(sp)
    80007222:	6746                	ld	a4,80(sp)
    80007224:	0016841b          	addiw	s0,a3,1
    80007228:	01a78cb3          	add	s9,a5,s10
    8000722c:	00ec3023          	sd	a4,0(s8)
    80007230:	00fc3423          	sd	a5,8(s8)
    80007234:	ea66                	sd	s9,272(sp)
    80007236:	10812423          	sw	s0,264(sp)
    8000723a:	469d                	li	a3,7
    8000723c:	0c41                	addi	s8,s8,16
    8000723e:	3486cde3          	blt	a3,s0,80007d98 <_vfprintf_r+0xfc0>
    80007242:	754e                	ld	a0,240(sp)
    80007244:	75ee                	ld	a1,248(sp)
    80007246:	4601                	li	a2,0
    80007248:	4681                	li	a3,0
    8000724a:	f9efc0ef          	jal	ra,800039e8 <__eqtf2>
    8000724e:	77a2                	ld	a5,40(sp)
    80007250:	fff78a1b          	addiw	s4,a5,-1
    80007254:	06050ce3          	beqz	a0,80007acc <_vfprintf_r+0xcf4>
    80007258:	001a8793          	addi	a5,s5,1
    8000725c:	2405                	addiw	s0,s0,1
    8000725e:	9cd2                	add	s9,s9,s4
    80007260:	00fc3023          	sd	a5,0(s8)
    80007264:	014c3423          	sd	s4,8(s8)
    80007268:	ea66                	sd	s9,272(sp)
    8000726a:	10812423          	sw	s0,264(sp)
    8000726e:	479d                	li	a5,7
    80007270:	0487c0e3          	blt	a5,s0,80007ab0 <_vfprintf_r+0xcd8>
    80007274:	0c41                	addi	s8,s8,16
    80007276:	7706                	ld	a4,96(sp)
    80007278:	0014069b          	addiw	a3,s0,1
    8000727c:	119c                	addi	a5,sp,224
    8000727e:	01970633          	add	a2,a4,s9
    80007282:	00fc3023          	sd	a5,0(s8)
    80007286:	00ec3423          	sd	a4,8(s8)
    8000728a:	ea32                	sd	a2,272(sp)
    8000728c:	10d12423          	sw	a3,264(sp)
    80007290:	479d                	li	a5,7
    80007292:	010c0413          	addi	s0,s8,16
    80007296:	d8d7d8e3          	bge	a5,a3,80007026 <_vfprintf_r+0x24e>
    8000729a:	6582                	ld	a1,0(sp)
    8000729c:	0210                	addi	a2,sp,256
    8000729e:	8526                	mv	a0,s1
    800072a0:	cc9fe0ef          	jal	ra,80005f68 <__sprint_r>
    800072a4:	52051c63          	bnez	a0,800077dc <_vfprintf_r+0xa04>
    800072a8:	6652                	ld	a2,272(sp)
    800072aa:	0300                	addi	s0,sp,384
    800072ac:	bbad                	j	80007026 <_vfprintf_r+0x24e>
    800072ae:	6506                	ld	a0,64(sp)
    800072b0:	59d010ef          	jal	ra,8000904c <__sinit>
    800072b4:	b649                	j	80006e36 <_vfprintf_r+0x5e>
    800072b6:	6762                	ld	a4,24(sp)
    800072b8:	0c0107a3          	sb	zero,207(sp)
    800072bc:	4b05                	li	s6,1
    800072be:	431c                	lw	a5,0(a4)
    800072c0:	0721                	addi	a4,a4,8
    800072c2:	ec3a                	sd	a4,24(sp)
    800072c4:	10f10c23          	sb	a5,280(sp)
    800072c8:	4c85                	li	s9,1
    800072ca:	11810a93          	addi	s5,sp,280
    800072ce:	b165                	j	80006f76 <_vfprintf_r+0x19e>
    800072d0:	67e2                	ld	a5,24(sp)
    800072d2:	0c0107a3          	sb	zero,207(sp)
    800072d6:	8e52                	mv	t3,s4
    800072d8:	0007ba83          	ld	s5,0(a5)
    800072dc:	00878a13          	addi	s4,a5,8
    800072e0:	200a8ee3          	beqz	s5,80007cfc <_vfprintf_r+0xf24>
    800072e4:	577d                	li	a4,-1
    800072e6:	40ee09e3          	beq	t3,a4,80007ef8 <_vfprintf_r+0x1120>
    800072ea:	8672                	mv	a2,t3
    800072ec:	4581                	li	a1,0
    800072ee:	8556                	mv	a0,s5
    800072f0:	f076                	sd	t4,32(sp)
    800072f2:	ec72                	sd	t3,24(sp)
    800072f4:	21f040ef          	jal	ra,8000bd12 <memchr>
    800072f8:	e82a                	sd	a0,16(sp)
    800072fa:	6e62                	ld	t3,24(sp)
    800072fc:	7e82                	ld	t4,32(sp)
    800072fe:	e119                	bnez	a0,80007304 <_vfprintf_r+0x52c>
    80007300:	3ce0106f          	j	800086ce <_vfprintf_r+0x18f6>
    80007304:	67c2                	ld	a5,16(sp)
    80007306:	0cf14603          	lbu	a2,207(sp)
    8000730a:	ec52                	sd	s4,24(sp)
    8000730c:	41578cbb          	subw	s9,a5,s5
    80007310:	fffcc713          	not	a4,s9
    80007314:	977d                	srai	a4,a4,0x3f
    80007316:	e802                	sd	zero,16(sp)
    80007318:	fc02                	sd	zero,56(sp)
    8000731a:	f802                	sd	zero,48(sp)
    8000731c:	f002                	sd	zero,32(sp)
    8000731e:	01977b33          	and	s6,a4,s9
    80007322:	4e01                	li	t3,0
    80007324:	c4060ee3          	beqz	a2,80006f80 <_vfprintf_r+0x1a8>
    80007328:	2b05                	addiw	s6,s6,1
    8000732a:	b999                	j	80006f80 <_vfprintf_r+0x1a8>
    8000732c:	67e2                	ld	a5,24(sp)
    8000732e:	0007ab83          	lw	s7,0(a5)
    80007332:	07a1                	addi	a5,a5,8
    80007334:	080bdbe3          	bgez	s7,80007bca <_vfprintf_r+0xdf2>
    80007338:	41700bbb          	negw	s7,s7
    8000733c:	ec3e                	sd	a5,24(sp)
    8000733e:	00496913          	ori	s2,s2,4
    80007342:	0009ce83          	lbu	t4,0(s3)
    80007346:	2901                	sext.w	s2,s2
    80007348:	be75                	j	80006f04 <_vfprintf_r+0x12c>
    8000734a:	02b00793          	li	a5,43
    8000734e:	0009ce83          	lbu	t4,0(s3)
    80007352:	0cf107a3          	sb	a5,207(sp)
    80007356:	b67d                	j	80006f04 <_vfprintf_r+0x12c>
    80007358:	08096913          	ori	s2,s2,128
    8000735c:	0009ce83          	lbu	t4,0(s3)
    80007360:	2901                	sext.w	s2,s2
    80007362:	b64d                	j	80006f04 <_vfprintf_r+0x12c>
    80007364:	0009ce83          	lbu	t4,0(s3)
    80007368:	02a00693          	li	a3,42
    8000736c:	00198793          	addi	a5,s3,1
    80007370:	00de9463          	bne	t4,a3,80007378 <_vfprintf_r+0x5a0>
    80007374:	61c0106f          	j	80008990 <_vfprintf_r+0x1bb8>
    80007378:	fd0e871b          	addiw	a4,t4,-48
    8000737c:	4625                	li	a2,9
    8000737e:	89be                	mv	s3,a5
    80007380:	4a01                	li	s4,0
    80007382:	46a5                	li	a3,9
    80007384:	b8e662e3          	bltu	a2,a4,80006f08 <_vfprintf_r+0x130>
    80007388:	0009ce83          	lbu	t4,0(s3)
    8000738c:	002a179b          	slliw	a5,s4,0x2
    80007390:	01478e3b          	addw	t3,a5,s4
    80007394:	001e1e1b          	slliw	t3,t3,0x1
    80007398:	00ee0a3b          	addw	s4,t3,a4
    8000739c:	fd0e871b          	addiw	a4,t4,-48
    800073a0:	0985                	addi	s3,s3,1
    800073a2:	fee6f3e3          	bgeu	a3,a4,80007388 <_vfprintf_r+0x5b0>
    800073a6:	b68d                	j	80006f08 <_vfprintf_r+0x130>
    800073a8:	8526                	mv	a0,s1
    800073aa:	6b2040ef          	jal	ra,8000ba5c <_localeconv_r>
    800073ae:	651c                	ld	a5,8(a0)
    800073b0:	853e                	mv	a0,a5
    800073b2:	fcbe                	sd	a5,120(sp)
    800073b4:	e5cfb0ef          	jal	ra,80002a10 <strlen>
    800073b8:	87aa                	mv	a5,a0
    800073ba:	8526                	mv	a0,s1
    800073bc:	8c3e                	mv	s8,a5
    800073be:	f8be                	sd	a5,112(sp)
    800073c0:	69c040ef          	jal	ra,8000ba5c <_localeconv_r>
    800073c4:	691c                	ld	a5,16(a0)
    800073c6:	0009ce83          	lbu	t4,0(s3)
    800073ca:	f4be                	sd	a5,104(sp)
    800073cc:	b20c0ce3          	beqz	s8,80006f04 <_vfprintf_r+0x12c>
    800073d0:	b2078ae3          	beqz	a5,80006f04 <_vfprintf_r+0x12c>
    800073d4:	0007c783          	lbu	a5,0(a5)
    800073d8:	b20786e3          	beqz	a5,80006f04 <_vfprintf_r+0x12c>
    800073dc:	40096913          	ori	s2,s2,1024
    800073e0:	2901                	sext.w	s2,s2
    800073e2:	b60d                	j	80006f04 <_vfprintf_r+0x12c>
    800073e4:	00196913          	ori	s2,s2,1
    800073e8:	0009ce83          	lbu	t4,0(s3)
    800073ec:	2901                	sext.w	s2,s2
    800073ee:	be19                	j	80006f04 <_vfprintf_r+0x12c>
    800073f0:	0cf14783          	lbu	a5,207(sp)
    800073f4:	0009ce83          	lbu	t4,0(s3)
    800073f8:	b00796e3          	bnez	a5,80006f04 <_vfprintf_r+0x12c>
    800073fc:	02000793          	li	a5,32
    80007400:	0cf107a3          	sb	a5,207(sp)
    80007404:	b601                	j	80006f04 <_vfprintf_r+0x12c>
    80007406:	01096c13          	ori	s8,s2,16
    8000740a:	8e52                	mv	t3,s4
    8000740c:	2c01                	sext.w	s8,s8
    8000740e:	66e2                	ld	a3,24(sp)
    80007410:	020c7793          	andi	a5,s8,32
    80007414:	00868713          	addi	a4,a3,8
    80007418:	76078d63          	beqz	a5,80007b92 <_vfprintf_r+0xdba>
    8000741c:	0006bb03          	ld	s6,0(a3)
    80007420:	4785                	li	a5,1
    80007422:	ec3a                	sd	a4,24(sp)
    80007424:	4701                	li	a4,0
    80007426:	0ce107a3          	sb	a4,207(sp)
    8000742a:	577d                	li	a4,-1
    8000742c:	1eee0e63          	beq	t3,a4,80007628 <_vfprintf_r+0x850>
    80007430:	f7fc7913          	andi	s2,s8,-129
    80007434:	2901                	sext.w	s2,s2
    80007436:	1e0b1863          	bnez	s6,80007626 <_vfprintf_r+0x84e>
    8000743a:	220e1b63          	bnez	t3,80007670 <_vfprintf_r+0x898>
    8000743e:	76079a63          	bnez	a5,80007bb2 <_vfprintf_r+0xdda>
    80007442:	001c7c93          	andi	s9,s8,1
    80007446:	17c10a93          	addi	s5,sp,380
    8000744a:	780c9563          	bnez	s9,80007bd4 <_vfprintf_r+0xdfc>
    8000744e:	0cf14603          	lbu	a2,207(sp)
    80007452:	8766                	mv	a4,s9
    80007454:	01ccd363          	bge	s9,t3,8000745a <_vfprintf_r+0x682>
    80007458:	8772                	mv	a4,t3
    8000745a:	e802                	sd	zero,16(sp)
    8000745c:	fc02                	sd	zero,56(sp)
    8000745e:	f802                	sd	zero,48(sp)
    80007460:	f002                	sd	zero,32(sp)
    80007462:	00070b1b          	sext.w	s6,a4
    80007466:	ec0611e3          	bnez	a2,80007328 <_vfprintf_r+0x550>
    8000746a:	be19                	j	80006f80 <_vfprintf_r+0x1a8>
    8000746c:	00896913          	ori	s2,s2,8
    80007470:	0009ce83          	lbu	t4,0(s3)
    80007474:	2901                	sext.w	s2,s2
    80007476:	b479                	j	80006f04 <_vfprintf_r+0x12c>
    80007478:	01096913          	ori	s2,s2,16
    8000747c:	8e52                	mv	t3,s4
    8000747e:	2901                	sext.w	s2,s2
    80007480:	66e2                	ld	a3,24(sp)
    80007482:	02097793          	andi	a5,s2,32
    80007486:	00868713          	addi	a4,a3,8
    8000748a:	6a078d63          	beqz	a5,80007b44 <_vfprintf_r+0xd6c>
    8000748e:	629c                	ld	a5,0(a3)
    80007490:	8b3e                	mv	s6,a5
    80007492:	6c07ca63          	bltz	a5,80007b66 <_vfprintf_r+0xd8e>
    80007496:	57fd                	li	a5,-1
    80007498:	40fe0463          	beq	t3,a5,800078a0 <_vfprintf_r+0xac8>
    8000749c:	f7f97c13          	andi	s8,s2,-129
    800074a0:	2c01                	sext.w	s8,s8
    800074a2:	200b18e3          	bnez	s6,80007eb2 <_vfprintf_r+0x10da>
    800074a6:	000e0463          	beqz	t3,800074ae <_vfprintf_r+0x6d6>
    800074aa:	4560106f          	j	80008900 <_vfprintf_r+0x1b28>
    800074ae:	4c81                	li	s9,0
    800074b0:	ec3a                	sd	a4,24(sp)
    800074b2:	8962                	mv	s2,s8
    800074b4:	17c10a93          	addi	s5,sp,380
    800074b8:	bf59                	j	8000744e <_vfprintf_r+0x676>
    800074ba:	01096913          	ori	s2,s2,16
    800074be:	8e52                	mv	t3,s4
    800074c0:	2901                	sext.w	s2,s2
    800074c2:	66e2                	ld	a3,24(sp)
    800074c4:	02097793          	andi	a5,s2,32
    800074c8:	00868713          	addi	a4,a3,8
    800074cc:	6a078563          	beqz	a5,80007b76 <_vfprintf_r+0xd9e>
    800074d0:	0006bb03          	ld	s6,0(a3)
    800074d4:	bff97c13          	andi	s8,s2,-1025
    800074d8:	2c01                	sext.w	s8,s8
    800074da:	ec3a                	sd	a4,24(sp)
    800074dc:	4781                	li	a5,0
    800074de:	b799                	j	80007424 <_vfprintf_r+0x64c>
    800074e0:	02096913          	ori	s2,s2,32
    800074e4:	0009ce83          	lbu	t4,0(s3)
    800074e8:	2901                	sext.w	s2,s2
    800074ea:	bc29                	j	80006f04 <_vfprintf_r+0x12c>
    800074ec:	6762                	ld	a4,24(sp)
    800074ee:	02097793          	andi	a5,s2,32
    800074f2:	6318                	ld	a4,0(a4)
    800074f4:	70078663          	beqz	a5,80007c00 <_vfprintf_r+0xe28>
    800074f8:	67a2                	ld	a5,8(sp)
    800074fa:	e31c                	sd	a5,0(a4)
    800074fc:	67e2                	ld	a5,24(sp)
    800074fe:	8ace                	mv	s5,s3
    80007500:	07a1                	addi	a5,a5,8
    80007502:	ec3e                	sd	a5,24(sp)
    80007504:	bea1                	j	8000705c <_vfprintf_r+0x284>
    80007506:	0009ce83          	lbu	t4,0(s3)
    8000750a:	06c00793          	li	a5,108
    8000750e:	7cfe8f63          	beq	t4,a5,80007cec <_vfprintf_r+0xf14>
    80007512:	01096913          	ori	s2,s2,16
    80007516:	2901                	sext.w	s2,s2
    80007518:	b2f5                	j	80006f04 <_vfprintf_r+0x12c>
    8000751a:	0009ce83          	lbu	t4,0(s3)
    8000751e:	06800793          	li	a5,104
    80007522:	78fe8963          	beq	t4,a5,80007cb4 <_vfprintf_r+0xedc>
    80007526:	04096913          	ori	s2,s2,64
    8000752a:	2901                	sext.w	s2,s2
    8000752c:	bae1                	j	80006f04 <_vfprintf_r+0x12c>
    8000752e:	6762                	ld	a4,24(sp)
    80007530:	77e1                	lui	a5,0xffff8
    80007532:	8307c793          	xori	a5,a5,-2000
    80007536:	0cf11823          	sh	a5,208(sp)
    8000753a:	00870793          	addi	a5,a4,8
    8000753e:	00296c13          	ori	s8,s2,2
    80007542:	ec3e                	sd	a5,24(sp)
    80007544:	00007797          	auipc	a5,0x7
    80007548:	18c78793          	addi	a5,a5,396 # 8000e6d0 <blanks.1+0x48>
    8000754c:	ecbe                	sd	a5,88(sp)
    8000754e:	00073b03          	ld	s6,0(a4)
    80007552:	8e52                	mv	t3,s4
    80007554:	2c01                	sext.w	s8,s8
    80007556:	4789                	li	a5,2
    80007558:	07800e93          	li	t4,120
    8000755c:	b5e1                	j	80007424 <_vfprintf_r+0x64c>
    8000755e:	06500693          	li	a3,101
    80007562:	c9d6d9e3          	bge	a3,t4,800071f4 <_vfprintf_r+0x41c>
    80007566:	754e                	ld	a0,240(sp)
    80007568:	75ee                	ld	a1,248(sp)
    8000756a:	4601                	li	a2,0
    8000756c:	4681                	li	a3,0
    8000756e:	c7afc0ef          	jal	ra,800039e8 <__eqtf2>
    80007572:	3e051463          	bnez	a0,8000795a <_vfprintf_r+0xb82>
    80007576:	10812783          	lw	a5,264(sp)
    8000757a:	00007697          	auipc	a3,0x7
    8000757e:	17668693          	addi	a3,a3,374 # 8000e6f0 <blanks.1+0x68>
    80007582:	e014                	sd	a3,0(s0)
    80007584:	2785                	addiw	a5,a5,1
    80007586:	4685                	li	a3,1
    80007588:	0d05                	addi	s10,s10,1
    8000758a:	e414                	sd	a3,8(s0)
    8000758c:	10f12423          	sw	a5,264(sp)
    80007590:	0007869b          	sext.w	a3,a5
    80007594:	ea6a                	sd	s10,272(sp)
    80007596:	479d                	li	a5,7
    80007598:	0441                	addi	s0,s0,16
    8000759a:	0ed7c2e3          	blt	a5,a3,80007e7e <_vfprintf_r+0x10a6>
    8000759e:	47ee                	lw	a5,216(sp)
    800075a0:	7722                	ld	a4,40(sp)
    800075a2:	60e7dc63          	bge	a5,a4,80007bba <_vfprintf_r+0xde2>
    800075a6:	10812783          	lw	a5,264(sp)
    800075aa:	6726                	ld	a4,72(sp)
    800075ac:	66c6                	ld	a3,80(sp)
    800075ae:	0441                	addi	s0,s0,16
    800075b0:	01a70633          	add	a2,a4,s10
    800075b4:	fed43823          	sd	a3,-16(s0)
    800075b8:	0017869b          	addiw	a3,a5,1
    800075bc:	fee43c23          	sd	a4,-8(s0)
    800075c0:	ea32                	sd	a2,272(sp)
    800075c2:	10d12423          	sw	a3,264(sp)
    800075c6:	479d                	li	a5,7
    800075c8:	70d7c563          	blt	a5,a3,80007cd2 <_vfprintf_r+0xefa>
    800075cc:	77a2                	ld	a5,40(sp)
    800075ce:	fff78c1b          	addiw	s8,a5,-1
    800075d2:	a5805ae3          	blez	s8,80007026 <_vfprintf_r+0x24e>
    800075d6:	46c1                	li	a3,16
    800075d8:	10812783          	lw	a5,264(sp)
    800075dc:	00007d17          	auipc	s10,0x7
    800075e0:	08cd0d13          	addi	s10,s10,140 # 8000e668 <zeroes.0>
    800075e4:	0b86d8e3          	bge	a3,s8,80007e94 <_vfprintf_r+0x10bc>
    800075e8:	6a82                	ld	s5,0(sp)
    800075ea:	4cc1                	li	s9,16
    800075ec:	4a1d                	li	s4,7
    800075ee:	a021                	j	800075f6 <_vfprintf_r+0x81e>
    800075f0:	3c41                	addiw	s8,s8,-16
    800075f2:	0b8cd1e3          	bge	s9,s8,80007e94 <_vfprintf_r+0x10bc>
    800075f6:	2785                	addiw	a5,a5,1
    800075f8:	0641                	addi	a2,a2,16
    800075fa:	01a43023          	sd	s10,0(s0)
    800075fe:	01943423          	sd	s9,8(s0)
    80007602:	ea32                	sd	a2,272(sp)
    80007604:	10f12423          	sw	a5,264(sp)
    80007608:	0441                	addi	s0,s0,16
    8000760a:	fefa53e3          	bge	s4,a5,800075f0 <_vfprintf_r+0x818>
    8000760e:	0210                	addi	a2,sp,256
    80007610:	85d6                	mv	a1,s5
    80007612:	8526                	mv	a0,s1
    80007614:	955fe0ef          	jal	ra,80005f68 <__sprint_r>
    80007618:	1c051263          	bnez	a0,800077dc <_vfprintf_r+0xa04>
    8000761c:	6652                	ld	a2,272(sp)
    8000761e:	10812783          	lw	a5,264(sp)
    80007622:	0300                	addi	s0,sp,384
    80007624:	b7f1                	j	800075f0 <_vfprintf_r+0x818>
    80007626:	8c4a                	mv	s8,s2
    80007628:	4705                	li	a4,1
    8000762a:	26e78d63          	beq	a5,a4,800078a4 <_vfprintf_r+0xacc>
    8000762e:	4709                	li	a4,2
    80007630:	04e78963          	beq	a5,a4,80007682 <_vfprintf_r+0x8aa>
    80007634:	17c10a13          	addi	s4,sp,380
    80007638:	8ad2                	mv	s5,s4
    8000763a:	007b7713          	andi	a4,s6,7
    8000763e:	03070713          	addi	a4,a4,48
    80007642:	feea8fa3          	sb	a4,-1(s5)
    80007646:	003b5b13          	srli	s6,s6,0x3
    8000764a:	8656                	mv	a2,s5
    8000764c:	1afd                	addi	s5,s5,-1
    8000764e:	fe0b16e3          	bnez	s6,8000763a <_vfprintf_r+0x862>
    80007652:	001c7593          	andi	a1,s8,1
    80007656:	c5b1                	beqz	a1,800076a2 <_vfprintf_r+0x8ca>
    80007658:	03000593          	li	a1,48
    8000765c:	04b70363          	beq	a4,a1,800076a2 <_vfprintf_r+0x8ca>
    80007660:	1679                	addi	a2,a2,-2
    80007662:	feba8fa3          	sb	a1,-1(s5)
    80007666:	40ca0cbb          	subw	s9,s4,a2
    8000766a:	8962                	mv	s2,s8
    8000766c:	8ab2                	mv	s5,a2
    8000766e:	b3c5                	j	8000744e <_vfprintf_r+0x676>
    80007670:	4705                	li	a4,1
    80007672:	00e79463          	bne	a5,a4,8000767a <_vfprintf_r+0x8a2>
    80007676:	0c80106f          	j	8000873e <_vfprintf_r+0x1966>
    8000767a:	4709                	li	a4,2
    8000767c:	8c4a                	mv	s8,s2
    8000767e:	fae79be3          	bne	a5,a4,80007634 <_vfprintf_r+0x85c>
    80007682:	6766                	ld	a4,88(sp)
    80007684:	17c10a13          	addi	s4,sp,380
    80007688:	8ad2                	mv	s5,s4
    8000768a:	00fb7793          	andi	a5,s6,15
    8000768e:	97ba                	add	a5,a5,a4
    80007690:	0007c783          	lbu	a5,0(a5)
    80007694:	004b5b13          	srli	s6,s6,0x4
    80007698:	1afd                	addi	s5,s5,-1
    8000769a:	00fa8023          	sb	a5,0(s5)
    8000769e:	fe0b16e3          	bnez	s6,8000768a <_vfprintf_r+0x8b2>
    800076a2:	415a0cbb          	subw	s9,s4,s5
    800076a6:	8962                	mv	s2,s8
    800076a8:	b35d                	j	8000744e <_vfprintf_r+0x676>
    800076aa:	416b8a3b          	subw	s4,s7,s6
    800076ae:	954053e3          	blez	s4,80006ff4 <_vfprintf_r+0x21c>
    800076b2:	4541                	li	a0,16
    800076b4:	85ea                	mv	a1,s10
    800076b6:	10812603          	lw	a2,264(sp)
    800076ba:	00007d17          	auipc	s10,0x7
    800076be:	faed0d13          	addi	s10,s10,-82 # 8000e668 <zeroes.0>
    800076c2:	07455063          	bge	a0,s4,80007722 <_vfprintf_r+0x94a>
    800076c6:	87a2                	mv	a5,s0
    800076c8:	48c1                	li	a7,16
    800076ca:	8452                	mv	s0,s4
    800076cc:	4c1d                	li	s8,7
    800076ce:	8a4a                	mv	s4,s2
    800076d0:	e176                	sd	t4,128(sp)
    800076d2:	896a                	mv	s2,s10
    800076d4:	8d56                	mv	s10,s5
    800076d6:	8af2                	mv	s5,t3
    800076d8:	a021                	j	800076e0 <_vfprintf_r+0x908>
    800076da:	3441                	addiw	s0,s0,-16
    800076dc:	0288dc63          	bge	a7,s0,80007714 <_vfprintf_r+0x93c>
    800076e0:	2605                	addiw	a2,a2,1
    800076e2:	05c1                	addi	a1,a1,16
    800076e4:	0127b023          	sd	s2,0(a5)
    800076e8:	0117b423          	sd	a7,8(a5)
    800076ec:	ea2e                	sd	a1,272(sp)
    800076ee:	10c12423          	sw	a2,264(sp)
    800076f2:	07c1                	addi	a5,a5,16
    800076f4:	fecc53e3          	bge	s8,a2,800076da <_vfprintf_r+0x902>
    800076f8:	6582                	ld	a1,0(sp)
    800076fa:	0210                	addi	a2,sp,256
    800076fc:	8526                	mv	a0,s1
    800076fe:	86bfe0ef          	jal	ra,80005f68 <__sprint_r>
    80007702:	ed69                	bnez	a0,800077dc <_vfprintf_r+0xa04>
    80007704:	48c1                	li	a7,16
    80007706:	3441                	addiw	s0,s0,-16
    80007708:	65d2                	ld	a1,272(sp)
    8000770a:	10812603          	lw	a2,264(sp)
    8000770e:	031c                	addi	a5,sp,384
    80007710:	fc88c8e3          	blt	a7,s0,800076e0 <_vfprintf_r+0x908>
    80007714:	6e8a                	ld	t4,128(sp)
    80007716:	8e56                	mv	t3,s5
    80007718:	8aea                	mv	s5,s10
    8000771a:	8d4a                	mv	s10,s2
    8000771c:	8952                	mv	s2,s4
    8000771e:	8a22                	mv	s4,s0
    80007720:	843e                	mv	s0,a5
    80007722:	0016051b          	addiw	a0,a2,1
    80007726:	95d2                	add	a1,a1,s4
    80007728:	01a43023          	sd	s10,0(s0)
    8000772c:	01443423          	sd	s4,8(s0)
    80007730:	ea2e                	sd	a1,272(sp)
    80007732:	10a12423          	sw	a0,264(sp)
    80007736:	461d                	li	a2,7
    80007738:	50a64863          	blt	a2,a0,80007c48 <_vfprintf_r+0xe70>
    8000773c:	419e0a3b          	subw	s4,t3,s9
    80007740:	0441                	addi	s0,s0,16
    80007742:	8d2e                	mv	s10,a1
    80007744:	8b405ce3          	blez	s4,80006ffc <_vfprintf_r+0x224>
    80007748:	85ea                	mv	a1,s10
    8000774a:	10812603          	lw	a2,264(sp)
    8000774e:	00007d17          	auipc	s10,0x7
    80007752:	f1ad0d13          	addi	s10,s10,-230 # 8000e668 <zeroes.0>
    80007756:	054ddb63          	bge	s11,s4,800077ac <_vfprintf_r+0x9d4>
    8000775a:	87a2                	mv	a5,s0
    8000775c:	4c1d                	li	s8,7
    8000775e:	8452                	mv	s0,s4
    80007760:	8a4a                	mv	s4,s2
    80007762:	8976                	mv	s2,t4
    80007764:	a021                	j	8000776c <_vfprintf_r+0x994>
    80007766:	3441                	addiw	s0,s0,-16
    80007768:	028dde63          	bge	s11,s0,800077a4 <_vfprintf_r+0x9cc>
    8000776c:	2605                	addiw	a2,a2,1
    8000776e:	05c1                	addi	a1,a1,16
    80007770:	00007697          	auipc	a3,0x7
    80007774:	ef868693          	addi	a3,a3,-264 # 8000e668 <zeroes.0>
    80007778:	e394                	sd	a3,0(a5)
    8000777a:	01b7b423          	sd	s11,8(a5)
    8000777e:	ea2e                	sd	a1,272(sp)
    80007780:	10c12423          	sw	a2,264(sp)
    80007784:	07c1                	addi	a5,a5,16
    80007786:	fecc50e3          	bge	s8,a2,80007766 <_vfprintf_r+0x98e>
    8000778a:	6582                	ld	a1,0(sp)
    8000778c:	0210                	addi	a2,sp,256
    8000778e:	8526                	mv	a0,s1
    80007790:	fd8fe0ef          	jal	ra,80005f68 <__sprint_r>
    80007794:	e521                	bnez	a0,800077dc <_vfprintf_r+0xa04>
    80007796:	3441                	addiw	s0,s0,-16
    80007798:	65d2                	ld	a1,272(sp)
    8000779a:	10812603          	lw	a2,264(sp)
    8000779e:	031c                	addi	a5,sp,384
    800077a0:	fc8dc6e3          	blt	s11,s0,8000776c <_vfprintf_r+0x994>
    800077a4:	8eca                	mv	t4,s2
    800077a6:	8952                	mv	s2,s4
    800077a8:	8a22                	mv	s4,s0
    800077aa:	843e                	mv	s0,a5
    800077ac:	0016051b          	addiw	a0,a2,1
    800077b0:	95d2                	add	a1,a1,s4
    800077b2:	01a43023          	sd	s10,0(s0)
    800077b6:	01443423          	sd	s4,8(s0)
    800077ba:	ea2e                	sd	a1,272(sp)
    800077bc:	10a12423          	sw	a0,264(sp)
    800077c0:	461d                	li	a2,7
    800077c2:	36a64463          	blt	a2,a0,80007b2a <_vfprintf_r+0xd52>
    800077c6:	0441                	addi	s0,s0,16
    800077c8:	8d2e                	mv	s10,a1
    800077ca:	833ff06f          	j	80006ffc <_vfprintf_r+0x224>
    800077ce:	6582                	ld	a1,0(sp)
    800077d0:	0210                	addi	a2,sp,256
    800077d2:	8526                	mv	a0,s1
    800077d4:	f94fe0ef          	jal	ra,80005f68 <__sprint_r>
    800077d8:	860508e3          	beqz	a0,80007048 <_vfprintf_r+0x270>
    800077dc:	65c2                	ld	a1,16(sp)
    800077de:	880587e3          	beqz	a1,8000706c <_vfprintf_r+0x294>
    800077e2:	6506                	ld	a0,64(sp)
    800077e4:	27b010ef          	jal	ra,8000925e <_free_r>
    800077e8:	b051                	j	8000706c <_vfprintf_r+0x294>
    800077ea:	4541                	li	a0,16
    800077ec:	65d2                	ld	a1,272(sp)
    800077ee:	10812603          	lw	a2,264(sp)
    800077f2:	00007a17          	auipc	s4,0x7
    800077f6:	e96a0a13          	addi	s4,s4,-362 # 8000e688 <blanks.1>
    800077fa:	07a55563          	bge	a0,s10,80007864 <_vfprintf_r+0xa8c>
    800077fe:	8752                	mv	a4,s4
    80007800:	87a2                	mv	a5,s0
    80007802:	8a4a                	mv	s4,s2
    80007804:	846a                	mv	s0,s10
    80007806:	4841                	li	a6,16
    80007808:	8d56                	mv	s10,s5
    8000780a:	439d                	li	t2,7
    8000780c:	e116                	sd	t0,128(sp)
    8000780e:	e576                	sd	t4,136(sp)
    80007810:	8af2                	mv	s5,t3
    80007812:	893a                	mv	s2,a4
    80007814:	a021                	j	8000781c <_vfprintf_r+0xa44>
    80007816:	3441                	addiw	s0,s0,-16
    80007818:	02885d63          	bge	a6,s0,80007852 <_vfprintf_r+0xa7a>
    8000781c:	2605                	addiw	a2,a2,1
    8000781e:	05c1                	addi	a1,a1,16
    80007820:	0127b023          	sd	s2,0(a5)
    80007824:	0107b423          	sd	a6,8(a5)
    80007828:	ea2e                	sd	a1,272(sp)
    8000782a:	10c12423          	sw	a2,264(sp)
    8000782e:	07c1                	addi	a5,a5,16
    80007830:	fec3d3e3          	bge	t2,a2,80007816 <_vfprintf_r+0xa3e>
    80007834:	6582                	ld	a1,0(sp)
    80007836:	0210                	addi	a2,sp,256
    80007838:	8526                	mv	a0,s1
    8000783a:	f2efe0ef          	jal	ra,80005f68 <__sprint_r>
    8000783e:	fd59                	bnez	a0,800077dc <_vfprintf_r+0xa04>
    80007840:	4841                	li	a6,16
    80007842:	3441                	addiw	s0,s0,-16
    80007844:	65d2                	ld	a1,272(sp)
    80007846:	10812603          	lw	a2,264(sp)
    8000784a:	031c                	addi	a5,sp,384
    8000784c:	439d                	li	t2,7
    8000784e:	fc8847e3          	blt	a6,s0,8000781c <_vfprintf_r+0xa44>
    80007852:	628a                	ld	t0,128(sp)
    80007854:	6eaa                	ld	t4,136(sp)
    80007856:	8e56                	mv	t3,s5
    80007858:	8aea                	mv	s5,s10
    8000785a:	8d22                	mv	s10,s0
    8000785c:	843e                	mv	s0,a5
    8000785e:	87ca                	mv	a5,s2
    80007860:	8952                	mv	s2,s4
    80007862:	8a3e                	mv	s4,a5
    80007864:	2605                	addiw	a2,a2,1
    80007866:	95ea                	add	a1,a1,s10
    80007868:	01443023          	sd	s4,0(s0)
    8000786c:	01a43423          	sd	s10,8(s0)
    80007870:	ea2e                	sd	a1,272(sp)
    80007872:	10c12423          	sw	a2,264(sp)
    80007876:	0006059b          	sext.w	a1,a2
    8000787a:	461d                	li	a2,7
    8000787c:	0441                	addi	s0,s0,16
    8000787e:	f0b65e63          	bge	a2,a1,80006f9a <_vfprintf_r+0x1c2>
    80007882:	6582                	ld	a1,0(sp)
    80007884:	0210                	addi	a2,sp,256
    80007886:	8526                	mv	a0,s1
    80007888:	e972                	sd	t3,144(sp)
    8000788a:	e576                	sd	t4,136(sp)
    8000788c:	e116                	sd	t0,128(sp)
    8000788e:	edafe0ef          	jal	ra,80005f68 <__sprint_r>
    80007892:	f529                	bnez	a0,800077dc <_vfprintf_r+0xa04>
    80007894:	6e4a                	ld	t3,144(sp)
    80007896:	6eaa                	ld	t4,136(sp)
    80007898:	628a                	ld	t0,128(sp)
    8000789a:	0300                	addi	s0,sp,384
    8000789c:	efeff06f          	j	80006f9a <_vfprintf_r+0x1c2>
    800078a0:	8c4a                	mv	s8,s2
    800078a2:	ec3a                	sd	a4,24(sp)
    800078a4:	47a5                	li	a5,9
    800078a6:	5167e763          	bltu	a5,s6,80007db4 <_vfprintf_r+0xfdc>
    800078aa:	030b0b1b          	addiw	s6,s6,48
    800078ae:	17610da3          	sb	s6,379(sp)
    800078b2:	8962                	mv	s2,s8
    800078b4:	4c85                	li	s9,1
    800078b6:	17b10a93          	addi	s5,sp,379
    800078ba:	be51                	j	8000744e <_vfprintf_r+0x676>
    800078bc:	6582                	ld	a1,0(sp)
    800078be:	0210                	addi	a2,sp,256
    800078c0:	8526                	mv	a0,s1
    800078c2:	e572                	sd	t3,136(sp)
    800078c4:	e176                	sd	t4,128(sp)
    800078c6:	ea2fe0ef          	jal	ra,80005f68 <__sprint_r>
    800078ca:	f909                	bnez	a0,800077dc <_vfprintf_r+0xa04>
    800078cc:	6d52                	ld	s10,272(sp)
    800078ce:	6e2a                	ld	t3,136(sp)
    800078d0:	6e8a                	ld	t4,128(sp)
    800078d2:	0300                	addi	s0,sp,384
    800078d4:	f18ff06f          	j	80006fec <_vfprintf_r+0x214>
    800078d8:	46c1                	li	a3,16
    800078da:	10812783          	lw	a5,264(sp)
    800078de:	00007a17          	auipc	s4,0x7
    800078e2:	daaa0a13          	addi	s4,s4,-598 # 8000e688 <blanks.1>
    800078e6:	0526d363          	bge	a3,s2,8000792c <_vfprintf_r+0xb54>
    800078ea:	6a82                	ld	s5,0(sp)
    800078ec:	4c41                	li	s8,16
    800078ee:	4c9d                	li	s9,7
    800078f0:	a021                	j	800078f8 <_vfprintf_r+0xb20>
    800078f2:	3941                	addiw	s2,s2,-16
    800078f4:	032c5c63          	bge	s8,s2,8000792c <_vfprintf_r+0xb54>
    800078f8:	2785                	addiw	a5,a5,1
    800078fa:	0641                	addi	a2,a2,16
    800078fc:	01443023          	sd	s4,0(s0)
    80007900:	01843423          	sd	s8,8(s0)
    80007904:	ea32                	sd	a2,272(sp)
    80007906:	10f12423          	sw	a5,264(sp)
    8000790a:	0441                	addi	s0,s0,16
    8000790c:	fefcd3e3          	bge	s9,a5,800078f2 <_vfprintf_r+0xb1a>
    80007910:	0210                	addi	a2,sp,256
    80007912:	85d6                	mv	a1,s5
    80007914:	8526                	mv	a0,s1
    80007916:	e52fe0ef          	jal	ra,80005f68 <__sprint_r>
    8000791a:	ec0511e3          	bnez	a0,800077dc <_vfprintf_r+0xa04>
    8000791e:	3941                	addiw	s2,s2,-16
    80007920:	6652                	ld	a2,272(sp)
    80007922:	10812783          	lw	a5,264(sp)
    80007926:	0300                	addi	s0,sp,384
    80007928:	fd2c48e3          	blt	s8,s2,800078f8 <_vfprintf_r+0xb20>
    8000792c:	0017869b          	addiw	a3,a5,1
    80007930:	964a                	add	a2,a2,s2
    80007932:	01443023          	sd	s4,0(s0)
    80007936:	01243423          	sd	s2,8(s0)
    8000793a:	ea32                	sd	a2,272(sp)
    8000793c:	10d12423          	sw	a3,264(sp)
    80007940:	479d                	li	a5,7
    80007942:	eed7da63          	bge	a5,a3,80007036 <_vfprintf_r+0x25e>
    80007946:	6582                	ld	a1,0(sp)
    80007948:	0210                	addi	a2,sp,256
    8000794a:	8526                	mv	a0,s1
    8000794c:	e1cfe0ef          	jal	ra,80005f68 <__sprint_r>
    80007950:	e80516e3          	bnez	a0,800077dc <_vfprintf_r+0xa04>
    80007954:	6652                	ld	a2,272(sp)
    80007956:	ee0ff06f          	j	80007036 <_vfprintf_r+0x25e>
    8000795a:	456e                	lw	a0,216(sp)
    8000795c:	4aa05863          	blez	a0,80007e0c <_vfprintf_r+0x1034>
    80007960:	77a2                	ld	a5,40(sp)
    80007962:	00fa8733          	add	a4,s5,a5
    80007966:	e13a                	sd	a4,128(sp)
    80007968:	7702                	ld	a4,32(sp)
    8000796a:	86ba                	mv	a3,a4
    8000796c:	2ce7c863          	blt	a5,a4,80007c3c <_vfprintf_r+0xe64>
    80007970:	00068a1b          	sext.w	s4,a3
    80007974:	03405263          	blez	s4,80007998 <_vfprintf_r+0xbc0>
    80007978:	10812603          	lw	a2,264(sp)
    8000797c:	9d52                	add	s10,s10,s4
    8000797e:	01543023          	sd	s5,0(s0)
    80007982:	0016059b          	addiw	a1,a2,1
    80007986:	01443423          	sd	s4,8(s0)
    8000798a:	ea6a                	sd	s10,272(sp)
    8000798c:	10b12423          	sw	a1,264(sp)
    80007990:	461d                	li	a2,7
    80007992:	0441                	addi	s0,s0,16
    80007994:	1cb647e3          	blt	a2,a1,80008362 <_vfprintf_r+0x158a>
    80007998:	fffa4613          	not	a2,s4
    8000799c:	7782                	ld	a5,32(sp)
    8000799e:	967d                	srai	a2,a2,0x3f
    800079a0:	00ca76b3          	and	a3,s4,a2
    800079a4:	40d78a3b          	subw	s4,a5,a3
    800079a8:	37404863          	bgtz	s4,80007d18 <_vfprintf_r+0xf40>
    800079ac:	7782                	ld	a5,32(sp)
    800079ae:	40097693          	andi	a3,s2,1024
    800079b2:	9abe                	add	s5,s5,a5
    800079b4:	6a069063          	bnez	a3,80008054 <_vfprintf_r+0x127c>
    800079b8:	46ee                	lw	a3,216(sp)
    800079ba:	77a2                	ld	a5,40(sp)
    800079bc:	00f6c663          	blt	a3,a5,800079c8 <_vfprintf_r+0xbf0>
    800079c0:	00197613          	andi	a2,s2,1
    800079c4:	1a060ce3          	beqz	a2,8000837c <_vfprintf_r+0x15a4>
    800079c8:	10812583          	lw	a1,264(sp)
    800079cc:	67a6                	ld	a5,72(sp)
    800079ce:	6746                	ld	a4,80(sp)
    800079d0:	0015851b          	addiw	a0,a1,1
    800079d4:	01a78633          	add	a2,a5,s10
    800079d8:	e018                	sd	a4,0(s0)
    800079da:	e41c                	sd	a5,8(s0)
    800079dc:	ea32                	sd	a2,272(sp)
    800079de:	10a12423          	sw	a0,264(sp)
    800079e2:	459d                	li	a1,7
    800079e4:	0441                	addi	s0,s0,16
    800079e6:	4ca5c8e3          	blt	a1,a0,800086b6 <_vfprintf_r+0x18de>
    800079ea:	678a                	ld	a5,128(sp)
    800079ec:	41578c33          	sub	s8,a5,s5
    800079f0:	77a2                	ld	a5,40(sp)
    800079f2:	000c051b          	sext.w	a0,s8
    800079f6:	40d785bb          	subw	a1,a5,a3
    800079fa:	00a5d363          	bge	a1,a0,80007a00 <_vfprintf_r+0xc28>
    800079fe:	8c2e                	mv	s8,a1
    80007a00:	2c01                	sext.w	s8,s8
    80007a02:	03805163          	blez	s8,80007a24 <_vfprintf_r+0xc4c>
    80007a06:	10812683          	lw	a3,264(sp)
    80007a0a:	9662                	add	a2,a2,s8
    80007a0c:	01543023          	sd	s5,0(s0)
    80007a10:	2685                	addiw	a3,a3,1
    80007a12:	01843423          	sd	s8,8(s0)
    80007a16:	ea32                	sd	a2,272(sp)
    80007a18:	10d12423          	sw	a3,264(sp)
    80007a1c:	479d                	li	a5,7
    80007a1e:	0441                	addi	s0,s0,16
    80007a20:	4ed7cfe3          	blt	a5,a3,8000871e <_vfprintf_r+0x1946>
    80007a24:	fffc4793          	not	a5,s8
    80007a28:	97fd                	srai	a5,a5,0x3f
    80007a2a:	00fc7c33          	and	s8,s8,a5
    80007a2e:	41858c3b          	subw	s8,a1,s8
    80007a32:	df805a63          	blez	s8,80007026 <_vfprintf_r+0x24e>
    80007a36:	46c1                	li	a3,16
    80007a38:	10812783          	lw	a5,264(sp)
    80007a3c:	00007d17          	auipc	s10,0x7
    80007a40:	c2cd0d13          	addi	s10,s10,-980 # 8000e668 <zeroes.0>
    80007a44:	4586d863          	bge	a3,s8,80007e94 <_vfprintf_r+0x10bc>
    80007a48:	6a82                	ld	s5,0(sp)
    80007a4a:	4cc1                	li	s9,16
    80007a4c:	4a1d                	li	s4,7
    80007a4e:	a021                	j	80007a56 <_vfprintf_r+0xc7e>
    80007a50:	3c41                	addiw	s8,s8,-16
    80007a52:	458cd163          	bge	s9,s8,80007e94 <_vfprintf_r+0x10bc>
    80007a56:	2785                	addiw	a5,a5,1
    80007a58:	0641                	addi	a2,a2,16
    80007a5a:	01a43023          	sd	s10,0(s0)
    80007a5e:	01943423          	sd	s9,8(s0)
    80007a62:	ea32                	sd	a2,272(sp)
    80007a64:	10f12423          	sw	a5,264(sp)
    80007a68:	0441                	addi	s0,s0,16
    80007a6a:	fefa53e3          	bge	s4,a5,80007a50 <_vfprintf_r+0xc78>
    80007a6e:	0210                	addi	a2,sp,256
    80007a70:	85d6                	mv	a1,s5
    80007a72:	8526                	mv	a0,s1
    80007a74:	cf4fe0ef          	jal	ra,80005f68 <__sprint_r>
    80007a78:	d60512e3          	bnez	a0,800077dc <_vfprintf_r+0xa04>
    80007a7c:	6652                	ld	a2,272(sp)
    80007a7e:	10812783          	lw	a5,264(sp)
    80007a82:	0300                	addi	s0,sp,384
    80007a84:	b7f1                	j	80007a50 <_vfprintf_r+0xc78>
    80007a86:	00197613          	andi	a2,s2,1
    80007a8a:	f6061b63          	bnez	a2,80007200 <_vfprintf_r+0x428>
    80007a8e:	10812603          	lw	a2,264(sp)
    80007a92:	001d0c93          	addi	s9,s10,1
    80007a96:	01543023          	sd	s5,0(s0)
    80007a9a:	0016079b          	addiw	a5,a2,1
    80007a9e:	e414                	sd	a3,8(s0)
    80007aa0:	10f12423          	sw	a5,264(sp)
    80007aa4:	0007841b          	sext.w	s0,a5
    80007aa8:	ea66                	sd	s9,272(sp)
    80007aaa:	479d                	li	a5,7
    80007aac:	fc87d563          	bge	a5,s0,80007276 <_vfprintf_r+0x49e>
    80007ab0:	6582                	ld	a1,0(sp)
    80007ab2:	0210                	addi	a2,sp,256
    80007ab4:	8526                	mv	a0,s1
    80007ab6:	cb2fe0ef          	jal	ra,80005f68 <__sprint_r>
    80007aba:	d20511e3          	bnez	a0,800077dc <_vfprintf_r+0xa04>
    80007abe:	6cd2                	ld	s9,272(sp)
    80007ac0:	10812403          	lw	s0,264(sp)
    80007ac4:	18010c13          	addi	s8,sp,384
    80007ac8:	faeff06f          	j	80007276 <_vfprintf_r+0x49e>
    80007acc:	7722                	ld	a4,40(sp)
    80007ace:	4785                	li	a5,1
    80007ad0:	fae7d363          	bge	a5,a4,80007276 <_vfprintf_r+0x49e>
    80007ad4:	47c5                	li	a5,17
    80007ad6:	00007d17          	auipc	s10,0x7
    80007ada:	b92d0d13          	addi	s10,s10,-1134 # 8000e668 <zeroes.0>
    80007ade:	44e7d963          	bge	a5,a4,80007f30 <_vfprintf_r+0x1158>
    80007ae2:	87ea                	mv	a5,s10
    80007ae4:	4841                	li	a6,16
    80007ae6:	8d52                	mv	s10,s4
    80007ae8:	4a9d                	li	s5,7
    80007aea:	8a4a                	mv	s4,s2
    80007aec:	893e                	mv	s2,a5
    80007aee:	a021                	j	80007af6 <_vfprintf_r+0xd1e>
    80007af0:	3d41                	addiw	s10,s10,-16
    80007af2:	43a85b63          	bge	a6,s10,80007f28 <_vfprintf_r+0x1150>
    80007af6:	2405                	addiw	s0,s0,1
    80007af8:	0cc1                	addi	s9,s9,16
    80007afa:	012c3023          	sd	s2,0(s8)
    80007afe:	010c3423          	sd	a6,8(s8)
    80007b02:	ea66                	sd	s9,272(sp)
    80007b04:	10812423          	sw	s0,264(sp)
    80007b08:	0c41                	addi	s8,s8,16
    80007b0a:	fe8ad3e3          	bge	s5,s0,80007af0 <_vfprintf_r+0xd18>
    80007b0e:	6582                	ld	a1,0(sp)
    80007b10:	0210                	addi	a2,sp,256
    80007b12:	8526                	mv	a0,s1
    80007b14:	c54fe0ef          	jal	ra,80005f68 <__sprint_r>
    80007b18:	cc0512e3          	bnez	a0,800077dc <_vfprintf_r+0xa04>
    80007b1c:	6cd2                	ld	s9,272(sp)
    80007b1e:	10812403          	lw	s0,264(sp)
    80007b22:	18010c13          	addi	s8,sp,384
    80007b26:	4841                	li	a6,16
    80007b28:	b7e1                	j	80007af0 <_vfprintf_r+0xd18>
    80007b2a:	6582                	ld	a1,0(sp)
    80007b2c:	0210                	addi	a2,sp,256
    80007b2e:	8526                	mv	a0,s1
    80007b30:	e176                	sd	t4,128(sp)
    80007b32:	c36fe0ef          	jal	ra,80005f68 <__sprint_r>
    80007b36:	ca0513e3          	bnez	a0,800077dc <_vfprintf_r+0xa04>
    80007b3a:	6d52                	ld	s10,272(sp)
    80007b3c:	6e8a                	ld	t4,128(sp)
    80007b3e:	0300                	addi	s0,sp,384
    80007b40:	cbcff06f          	j	80006ffc <_vfprintf_r+0x224>
    80007b44:	01097793          	andi	a5,s2,16
    80007b48:	ebc5                	bnez	a5,80007bf8 <_vfprintf_r+0xe20>
    80007b4a:	66e2                	ld	a3,24(sp)
    80007b4c:	04097793          	andi	a5,s2,64
    80007b50:	0006ab03          	lw	s6,0(a3)
    80007b54:	44078b63          	beqz	a5,80007faa <_vfprintf_r+0x11d2>
    80007b58:	010b1b1b          	slliw	s6,s6,0x10
    80007b5c:	410b5b1b          	sraiw	s6,s6,0x10
    80007b60:	87da                	mv	a5,s6
    80007b62:	9207dae3          	bgez	a5,80007496 <_vfprintf_r+0x6be>
    80007b66:	ec3a                	sd	a4,24(sp)
    80007b68:	41600b33          	neg	s6,s6
    80007b6c:	8c4a                	mv	s8,s2
    80007b6e:	02d00713          	li	a4,45
    80007b72:	4785                	li	a5,1
    80007b74:	b84d                	j	80007426 <_vfprintf_r+0x64e>
    80007b76:	01097793          	andi	a5,s2,16
    80007b7a:	ebbd                	bnez	a5,80007bf0 <_vfprintf_r+0xe18>
    80007b7c:	66e2                	ld	a3,24(sp)
    80007b7e:	04097793          	andi	a5,s2,64
    80007b82:	0006ab03          	lw	s6,0(a3)
    80007b86:	40078363          	beqz	a5,80007f8c <_vfprintf_r+0x11b4>
    80007b8a:	1b42                	slli	s6,s6,0x30
    80007b8c:	030b5b13          	srli	s6,s6,0x30
    80007b90:	b291                	j	800074d4 <_vfprintf_r+0x6fc>
    80007b92:	010c7793          	andi	a5,s8,16
    80007b96:	e7b1                	bnez	a5,80007be2 <_vfprintf_r+0xe0a>
    80007b98:	66e2                	ld	a3,24(sp)
    80007b9a:	040c7793          	andi	a5,s8,64
    80007b9e:	0006ab03          	lw	s6,0(a3)
    80007ba2:	40078f63          	beqz	a5,80007fc0 <_vfprintf_r+0x11e8>
    80007ba6:	1b42                	slli	s6,s6,0x30
    80007ba8:	030b5b13          	srli	s6,s6,0x30
    80007bac:	ec3a                	sd	a4,24(sp)
    80007bae:	4785                	li	a5,1
    80007bb0:	b895                	j	80007424 <_vfprintf_r+0x64c>
    80007bb2:	4c81                	li	s9,0
    80007bb4:	17c10a93          	addi	s5,sp,380
    80007bb8:	b859                	j	8000744e <_vfprintf_r+0x676>
    80007bba:	00197793          	andi	a5,s2,1
    80007bbe:	866a                	mv	a2,s10
    80007bc0:	c6078363          	beqz	a5,80007026 <_vfprintf_r+0x24e>
    80007bc4:	b2cd                	j	800075a6 <_vfprintf_r+0x7ce>
    80007bc6:	8e52                	mv	t3,s4
    80007bc8:	b865                	j	80007480 <_vfprintf_r+0x6a8>
    80007bca:	0009ce83          	lbu	t4,0(s3)
    80007bce:	ec3e                	sd	a5,24(sp)
    80007bd0:	b34ff06f          	j	80006f04 <_vfprintf_r+0x12c>
    80007bd4:	03000793          	li	a5,48
    80007bd8:	16f10da3          	sb	a5,379(sp)
    80007bdc:	17b10a93          	addi	s5,sp,379
    80007be0:	b0bd                	j	8000744e <_vfprintf_r+0x676>
    80007be2:	67e2                	ld	a5,24(sp)
    80007be4:	ec3a                	sd	a4,24(sp)
    80007be6:	0007bb03          	ld	s6,0(a5)
    80007bea:	4785                	li	a5,1
    80007bec:	839ff06f          	j	80007424 <_vfprintf_r+0x64c>
    80007bf0:	67e2                	ld	a5,24(sp)
    80007bf2:	0007bb03          	ld	s6,0(a5)
    80007bf6:	b8f9                	j	800074d4 <_vfprintf_r+0x6fc>
    80007bf8:	67e2                	ld	a5,24(sp)
    80007bfa:	639c                	ld	a5,0(a5)
    80007bfc:	8b3e                	mv	s6,a5
    80007bfe:	b851                	j	80007492 <_vfprintf_r+0x6ba>
    80007c00:	01097793          	andi	a5,s2,16
    80007c04:	8e079ae3          	bnez	a5,800074f8 <_vfprintf_r+0x720>
    80007c08:	04097793          	andi	a5,s2,64
    80007c0c:	78079663          	bnez	a5,80008398 <_vfprintf_r+0x15c0>
    80007c10:	20097913          	andi	s2,s2,512
    80007c14:	67a2                	ld	a5,8(sp)
    80007c16:	4a0908e3          	beqz	s2,800088c6 <_vfprintf_r+0x1aee>
    80007c1a:	00f70023          	sb	a5,0(a4)
    80007c1e:	b8f9                	j	800074fc <_vfprintf_r+0x724>
    80007c20:	67e2                	ld	a5,24(sp)
    80007c22:	00f78a13          	addi	s4,a5,15
    80007c26:	ff0a7a13          	andi	s4,s4,-16
    80007c2a:	010a0793          	addi	a5,s4,16
    80007c2e:	000a3703          	ld	a4,0(s4)
    80007c32:	008a3583          	ld	a1,8(s4)
    80007c36:	ec3e                	sd	a5,24(sp)
    80007c38:	d02ff06f          	j	8000713a <_vfprintf_r+0x362>
    80007c3c:	86be                	mv	a3,a5
    80007c3e:	00068a1b          	sext.w	s4,a3
    80007c42:	d3404be3          	bgtz	s4,80007978 <_vfprintf_r+0xba0>
    80007c46:	bb89                	j	80007998 <_vfprintf_r+0xbc0>
    80007c48:	6582                	ld	a1,0(sp)
    80007c4a:	0210                	addi	a2,sp,256
    80007c4c:	8526                	mv	a0,s1
    80007c4e:	e572                	sd	t3,136(sp)
    80007c50:	e176                	sd	t4,128(sp)
    80007c52:	b16fe0ef          	jal	ra,80005f68 <__sprint_r>
    80007c56:	b80513e3          	bnez	a0,800077dc <_vfprintf_r+0xa04>
    80007c5a:	6d52                	ld	s10,272(sp)
    80007c5c:	6e2a                	ld	t3,136(sp)
    80007c5e:	6e8a                	ld	t4,128(sp)
    80007c60:	0300                	addi	s0,sp,384
    80007c62:	b92ff06f          	j	80006ff4 <_vfprintf_r+0x21c>
    80007c66:	00007797          	auipc	a5,0x7
    80007c6a:	a5278793          	addi	a5,a5,-1454 # 8000e6b8 <blanks.1+0x30>
    80007c6e:	8e52                	mv	t3,s4
    80007c70:	ecbe                	sd	a5,88(sp)
    80007c72:	66e2                	ld	a3,24(sp)
    80007c74:	02097793          	andi	a5,s2,32
    80007c78:	00868713          	addi	a4,a3,8
    80007c7c:	cbe5                	beqz	a5,80007d6c <_vfprintf_r+0xf94>
    80007c7e:	0006bb03          	ld	s6,0(a3)
    80007c82:	00197793          	andi	a5,s2,1
    80007c86:	cf81                	beqz	a5,80007c9e <_vfprintf_r+0xec6>
    80007c88:	000b0b63          	beqz	s6,80007c9e <_vfprintf_r+0xec6>
    80007c8c:	00296913          	ori	s2,s2,2
    80007c90:	03000793          	li	a5,48
    80007c94:	0cf10823          	sb	a5,208(sp)
    80007c98:	0dd108a3          	sb	t4,209(sp)
    80007c9c:	2901                	sext.w	s2,s2
    80007c9e:	bff97c13          	andi	s8,s2,-1025
    80007ca2:	2c01                	sext.w	s8,s8
    80007ca4:	ec3a                	sd	a4,24(sp)
    80007ca6:	4789                	li	a5,2
    80007ca8:	f7cff06f          	j	80007424 <_vfprintf_r+0x64c>
    80007cac:	8e52                	mv	t3,s4
    80007cae:	8c4a                	mv	s8,s2
    80007cb0:	f5eff06f          	j	8000740e <_vfprintf_r+0x636>
    80007cb4:	20096913          	ori	s2,s2,512
    80007cb8:	0019ce83          	lbu	t4,1(s3)
    80007cbc:	2901                	sext.w	s2,s2
    80007cbe:	0985                	addi	s3,s3,1
    80007cc0:	a44ff06f          	j	80006f04 <_vfprintf_r+0x12c>
    80007cc4:	00007797          	auipc	a5,0x7
    80007cc8:	a0c78793          	addi	a5,a5,-1524 # 8000e6d0 <blanks.1+0x48>
    80007ccc:	8e52                	mv	t3,s4
    80007cce:	ecbe                	sd	a5,88(sp)
    80007cd0:	b74d                	j	80007c72 <_vfprintf_r+0xe9a>
    80007cd2:	6582                	ld	a1,0(sp)
    80007cd4:	0210                	addi	a2,sp,256
    80007cd6:	8526                	mv	a0,s1
    80007cd8:	a90fe0ef          	jal	ra,80005f68 <__sprint_r>
    80007cdc:	b00510e3          	bnez	a0,800077dc <_vfprintf_r+0xa04>
    80007ce0:	6652                	ld	a2,272(sp)
    80007ce2:	0300                	addi	s0,sp,384
    80007ce4:	b0e5                	j	800075cc <_vfprintf_r+0x7f4>
    80007ce6:	8e52                	mv	t3,s4
    80007ce8:	fdaff06f          	j	800074c2 <_vfprintf_r+0x6ea>
    80007cec:	02096913          	ori	s2,s2,32
    80007cf0:	0019ce83          	lbu	t4,1(s3)
    80007cf4:	2901                	sext.w	s2,s2
    80007cf6:	0985                	addi	s3,s3,1
    80007cf8:	a0cff06f          	j	80006f04 <_vfprintf_r+0x12c>
    80007cfc:	4799                	li	a5,6
    80007cfe:	86f2                	mv	a3,t3
    80007d00:	67c7ec63          	bltu	a5,t3,80008378 <_vfprintf_r+0x15a0>
    80007d04:	00068c9b          	sext.w	s9,a3
    80007d08:	8b66                	mv	s6,s9
    80007d0a:	ec52                	sd	s4,24(sp)
    80007d0c:	00007a97          	auipc	s5,0x7
    80007d10:	9dca8a93          	addi	s5,s5,-1572 # 8000e6e8 <blanks.1+0x60>
    80007d14:	a62ff06f          	j	80006f76 <_vfprintf_r+0x19e>
    80007d18:	4541                	li	a0,16
    80007d1a:	866a                	mv	a2,s10
    80007d1c:	10812583          	lw	a1,264(sp)
    80007d20:	00007d17          	auipc	s10,0x7
    80007d24:	948d0d13          	addi	s10,s10,-1720 # 8000e668 <zeroes.0>
    80007d28:	2d455c63          	bge	a0,s4,80008000 <_vfprintf_r+0x1228>
    80007d2c:	6c02                	ld	s8,0(sp)
    80007d2e:	4841                	li	a6,16
    80007d30:	4c9d                	li	s9,7
    80007d32:	a021                	j	80007d3a <_vfprintf_r+0xf62>
    80007d34:	3a41                	addiw	s4,s4,-16
    80007d36:	2d485563          	bge	a6,s4,80008000 <_vfprintf_r+0x1228>
    80007d3a:	2585                	addiw	a1,a1,1
    80007d3c:	0641                	addi	a2,a2,16
    80007d3e:	01a43023          	sd	s10,0(s0)
    80007d42:	01043423          	sd	a6,8(s0)
    80007d46:	ea32                	sd	a2,272(sp)
    80007d48:	10b12423          	sw	a1,264(sp)
    80007d4c:	0441                	addi	s0,s0,16
    80007d4e:	febcd3e3          	bge	s9,a1,80007d34 <_vfprintf_r+0xf5c>
    80007d52:	0210                	addi	a2,sp,256
    80007d54:	85e2                	mv	a1,s8
    80007d56:	8526                	mv	a0,s1
    80007d58:	a10fe0ef          	jal	ra,80005f68 <__sprint_r>
    80007d5c:	a80510e3          	bnez	a0,800077dc <_vfprintf_r+0xa04>
    80007d60:	6652                	ld	a2,272(sp)
    80007d62:	10812583          	lw	a1,264(sp)
    80007d66:	0300                	addi	s0,sp,384
    80007d68:	4841                	li	a6,16
    80007d6a:	b7e9                	j	80007d34 <_vfprintf_r+0xf5c>
    80007d6c:	01097793          	andi	a5,s2,16
    80007d70:	0e078c63          	beqz	a5,80007e68 <_vfprintf_r+0x1090>
    80007d74:	67e2                	ld	a5,24(sp)
    80007d76:	0007bb03          	ld	s6,0(a5)
    80007d7a:	b721                	j	80007c82 <_vfprintf_r+0xeaa>
    80007d7c:	6582                	ld	a1,0(sp)
    80007d7e:	0210                	addi	a2,sp,256
    80007d80:	8526                	mv	a0,s1
    80007d82:	9e6fe0ef          	jal	ra,80005f68 <__sprint_r>
    80007d86:	a4051be3          	bnez	a0,800077dc <_vfprintf_r+0xa04>
    80007d8a:	6d52                	ld	s10,272(sp)
    80007d8c:	10812683          	lw	a3,264(sp)
    80007d90:	18010c13          	addi	s8,sp,384
    80007d94:	c8cff06f          	j	80007220 <_vfprintf_r+0x448>
    80007d98:	6582                	ld	a1,0(sp)
    80007d9a:	0210                	addi	a2,sp,256
    80007d9c:	8526                	mv	a0,s1
    80007d9e:	9cafe0ef          	jal	ra,80005f68 <__sprint_r>
    80007da2:	a2051de3          	bnez	a0,800077dc <_vfprintf_r+0xa04>
    80007da6:	6cd2                	ld	s9,272(sp)
    80007da8:	10812403          	lw	s0,264(sp)
    80007dac:	18010c13          	addi	s8,sp,384
    80007db0:	c92ff06f          	j	80007242 <_vfprintf_r+0x46a>
    80007db4:	17c10a13          	addi	s4,sp,380
    80007db8:	7826                	ld	a6,104(sp)
    80007dba:	400c7c93          	andi	s9,s8,1024
    80007dbe:	4681                	li	a3,0
    80007dc0:	85d2                	mv	a1,s4
    80007dc2:	4929                	li	s2,10
    80007dc4:	4d25                	li	s10,9
    80007dc6:	0ff00713          	li	a4,255
    80007dca:	a039                	j	80007dd8 <_vfprintf_r+0x1000>
    80007dcc:	032b57b3          	divu	a5,s6,s2
    80007dd0:	036d7763          	bgeu	s10,s6,80007dfe <_vfprintf_r+0x1026>
    80007dd4:	8b3e                	mv	s6,a5
    80007dd6:	85d6                	mv	a1,s5
    80007dd8:	fff58a93          	addi	s5,a1,-1
    80007ddc:	2685                	addiw	a3,a3,1
    80007dde:	032b77b3          	remu	a5,s6,s2
    80007de2:	0307879b          	addiw	a5,a5,48
    80007de6:	fef58fa3          	sb	a5,-1(a1)
    80007dea:	fe0c81e3          	beqz	s9,80007dcc <_vfprintf_r+0xff4>
    80007dee:	00084783          	lbu	a5,0(a6)
    80007df2:	fcf69de3          	bne	a3,a5,80007dcc <_vfprintf_r+0xff4>
    80007df6:	fce78be3          	beq	a5,a4,80007dcc <_vfprintf_r+0xff4>
    80007dfa:	236d6363          	bltu	s10,s6,80008020 <_vfprintf_r+0x1248>
    80007dfe:	f436                	sd	a3,40(sp)
    80007e00:	f4c2                	sd	a6,104(sp)
    80007e02:	415a0cbb          	subw	s9,s4,s5
    80007e06:	8962                	mv	s2,s8
    80007e08:	e46ff06f          	j	8000744e <_vfprintf_r+0x676>
    80007e0c:	10812683          	lw	a3,264(sp)
    80007e10:	00007597          	auipc	a1,0x7
    80007e14:	8e058593          	addi	a1,a1,-1824 # 8000e6f0 <blanks.1+0x68>
    80007e18:	e00c                	sd	a1,0(s0)
    80007e1a:	2685                	addiw	a3,a3,1
    80007e1c:	4585                	li	a1,1
    80007e1e:	001d0613          	addi	a2,s10,1
    80007e22:	e40c                	sd	a1,8(s0)
    80007e24:	10d12423          	sw	a3,264(sp)
    80007e28:	0006859b          	sext.w	a1,a3
    80007e2c:	ea32                	sd	a2,272(sp)
    80007e2e:	469d                	li	a3,7
    80007e30:	0441                	addi	s0,s0,16
    80007e32:	38b6ce63          	blt	a3,a1,800081ce <_vfprintf_r+0x13f6>
    80007e36:	10051a63          	bnez	a0,80007f4a <_vfprintf_r+0x1172>
    80007e3a:	77a2                	ld	a5,40(sp)
    80007e3c:	00197693          	andi	a3,s2,1
    80007e40:	8edd                	or	a3,a3,a5
    80007e42:	9e068263          	beqz	a3,80007026 <_vfprintf_r+0x24e>
    80007e46:	10812683          	lw	a3,264(sp)
    80007e4a:	67a6                	ld	a5,72(sp)
    80007e4c:	6746                	ld	a4,80(sp)
    80007e4e:	0016859b          	addiw	a1,a3,1
    80007e52:	963e                	add	a2,a2,a5
    80007e54:	e018                	sd	a4,0(s0)
    80007e56:	e41c                	sd	a5,8(s0)
    80007e58:	ea32                	sd	a2,272(sp)
    80007e5a:	10b12423          	sw	a1,264(sp)
    80007e5e:	469d                	li	a3,7
    80007e60:	56b6ce63          	blt	a3,a1,800083dc <_vfprintf_r+0x1604>
    80007e64:	0441                	addi	s0,s0,16
    80007e66:	a221                	j	80007f6e <_vfprintf_r+0x1196>
    80007e68:	66e2                	ld	a3,24(sp)
    80007e6a:	04097793          	andi	a5,s2,64
    80007e6e:	0006ab03          	lw	s6,0(a3)
    80007e72:	12078563          	beqz	a5,80007f9c <_vfprintf_r+0x11c4>
    80007e76:	1b42                	slli	s6,s6,0x30
    80007e78:	030b5b13          	srli	s6,s6,0x30
    80007e7c:	b519                	j	80007c82 <_vfprintf_r+0xeaa>
    80007e7e:	6582                	ld	a1,0(sp)
    80007e80:	0210                	addi	a2,sp,256
    80007e82:	8526                	mv	a0,s1
    80007e84:	8e4fe0ef          	jal	ra,80005f68 <__sprint_r>
    80007e88:	94051ae3          	bnez	a0,800077dc <_vfprintf_r+0xa04>
    80007e8c:	6d52                	ld	s10,272(sp)
    80007e8e:	0300                	addi	s0,sp,384
    80007e90:	f0eff06f          	j	8000759e <_vfprintf_r+0x7c6>
    80007e94:	0017869b          	addiw	a3,a5,1
    80007e98:	01a43023          	sd	s10,0(s0)
    80007e9c:	01843423          	sd	s8,8(s0)
    80007ea0:	9662                	add	a2,a2,s8
    80007ea2:	ea32                	sd	a2,272(sp)
    80007ea4:	10d12423          	sw	a3,264(sp)
    80007ea8:	479d                	li	a5,7
    80007eaa:	96d7dd63          	bge	a5,a3,80007024 <_vfprintf_r+0x24c>
    80007eae:	becff06f          	j	8000729a <_vfprintf_r+0x4c2>
    80007eb2:	ec3a                	sd	a4,24(sp)
    80007eb4:	bac5                	j	800078a4 <_vfprintf_r+0xacc>
    80007eb6:	754e                	ld	a0,240(sp)
    80007eb8:	75ee                	ld	a1,248(sp)
    80007eba:	4601                	li	a2,0
    80007ebc:	4681                	li	a3,0
    80007ebe:	c85fb0ef          	jal	ra,80003b42 <__letf2>
    80007ec2:	6ec2                	ld	t4,16(sp)
    80007ec4:	7e054163          	bltz	a0,800086a6 <_vfprintf_r+0x18ce>
    80007ec8:	0cf14603          	lbu	a2,207(sp)
    80007ecc:	04700713          	li	a4,71
    80007ed0:	00006a97          	auipc	s5,0x6
    80007ed4:	7c8a8a93          	addi	s5,s5,1992 # 8000e698 <blanks.1+0x10>
    80007ed8:	31d74663          	blt	a4,t4,800081e4 <_vfprintf_r+0x140c>
    80007edc:	f7f97913          	andi	s2,s2,-129
    80007ee0:	e802                	sd	zero,16(sp)
    80007ee2:	fc02                	sd	zero,56(sp)
    80007ee4:	f802                	sd	zero,48(sp)
    80007ee6:	f002                	sd	zero,32(sp)
    80007ee8:	2901                	sext.w	s2,s2
    80007eea:	4b0d                	li	s6,3
    80007eec:	4c8d                	li	s9,3
    80007eee:	4e01                	li	t3,0
    80007ef0:	c2061c63          	bnez	a2,80007328 <_vfprintf_r+0x550>
    80007ef4:	88cff06f          	j	80006f80 <_vfprintf_r+0x1a8>
    80007ef8:	8556                	mv	a0,s5
    80007efa:	e176                	sd	t4,128(sp)
    80007efc:	b15fa0ef          	jal	ra,80002a10 <strlen>
    80007f00:	00050c9b          	sext.w	s9,a0
    80007f04:	0cf14603          	lbu	a2,207(sp)
    80007f08:	fffcc713          	not	a4,s9
    80007f0c:	977d                	srai	a4,a4,0x3f
    80007f0e:	ec52                	sd	s4,24(sp)
    80007f10:	e802                	sd	zero,16(sp)
    80007f12:	fc02                	sd	zero,56(sp)
    80007f14:	f802                	sd	zero,48(sp)
    80007f16:	f002                	sd	zero,32(sp)
    80007f18:	6e8a                	ld	t4,128(sp)
    80007f1a:	01977b33          	and	s6,a4,s9
    80007f1e:	4e01                	li	t3,0
    80007f20:	c0061463          	bnez	a2,80007328 <_vfprintf_r+0x550>
    80007f24:	85cff06f          	j	80006f80 <_vfprintf_r+0x1a8>
    80007f28:	87ca                	mv	a5,s2
    80007f2a:	8952                	mv	s2,s4
    80007f2c:	8a6a                	mv	s4,s10
    80007f2e:	8d3e                	mv	s10,a5
    80007f30:	2405                	addiw	s0,s0,1
    80007f32:	9cd2                	add	s9,s9,s4
    80007f34:	01ac3023          	sd	s10,0(s8)
    80007f38:	014c3423          	sd	s4,8(s8)
    80007f3c:	ea66                	sd	s9,272(sp)
    80007f3e:	10812423          	sw	s0,264(sp)
    80007f42:	479d                	li	a5,7
    80007f44:	b287d863          	bge	a5,s0,80007274 <_vfprintf_r+0x49c>
    80007f48:	b6a5                	j	80007ab0 <_vfprintf_r+0xcd8>
    80007f4a:	10812683          	lw	a3,264(sp)
    80007f4e:	67a6                	ld	a5,72(sp)
    80007f50:	6746                	ld	a4,80(sp)
    80007f52:	0016859b          	addiw	a1,a3,1
    80007f56:	963e                	add	a2,a2,a5
    80007f58:	e018                	sd	a4,0(s0)
    80007f5a:	e41c                	sd	a5,8(s0)
    80007f5c:	ea32                	sd	a2,272(sp)
    80007f5e:	10b12423          	sw	a1,264(sp)
    80007f62:	469d                	li	a3,7
    80007f64:	0441                	addi	s0,s0,16
    80007f66:	46b6cb63          	blt	a3,a1,800083dc <_vfprintf_r+0x1604>
    80007f6a:	7c054d63          	bltz	a0,80008744 <_vfprintf_r+0x196c>
    80007f6e:	77a2                	ld	a5,40(sp)
    80007f70:	0015869b          	addiw	a3,a1,1
    80007f74:	01543023          	sd	s5,0(s0)
    80007f78:	963e                	add	a2,a2,a5
    80007f7a:	e41c                	sd	a5,8(s0)
    80007f7c:	ea32                	sd	a2,272(sp)
    80007f7e:	10d12423          	sw	a3,264(sp)
    80007f82:	479d                	li	a5,7
    80007f84:	8ad7d063          	bge	a5,a3,80007024 <_vfprintf_r+0x24c>
    80007f88:	b12ff06f          	j	8000729a <_vfprintf_r+0x4c2>
    80007f8c:	20097793          	andi	a5,s2,512
    80007f90:	42078763          	beqz	a5,800083be <_vfprintf_r+0x15e6>
    80007f94:	0ffb7b13          	zext.b	s6,s6
    80007f98:	d3cff06f          	j	800074d4 <_vfprintf_r+0x6fc>
    80007f9c:	20097793          	andi	a5,s2,512
    80007fa0:	40078b63          	beqz	a5,800083b6 <_vfprintf_r+0x15de>
    80007fa4:	0ffb7b13          	zext.b	s6,s6
    80007fa8:	b9e9                	j	80007c82 <_vfprintf_r+0xeaa>
    80007faa:	20097793          	andi	a5,s2,512
    80007fae:	40078163          	beqz	a5,800083b0 <_vfprintf_r+0x15d8>
    80007fb2:	018b1b1b          	slliw	s6,s6,0x18
    80007fb6:	418b5b1b          	sraiw	s6,s6,0x18
    80007fba:	87da                	mv	a5,s6
    80007fbc:	cd6ff06f          	j	80007492 <_vfprintf_r+0x6ba>
    80007fc0:	200c7793          	andi	a5,s8,512
    80007fc4:	3c078f63          	beqz	a5,800083a2 <_vfprintf_r+0x15ca>
    80007fc8:	0ffb7b13          	zext.b	s6,s6
    80007fcc:	ec3a                	sd	a4,24(sp)
    80007fce:	4785                	li	a5,1
    80007fd0:	c54ff06f          	j	80007424 <_vfprintf_r+0x64c>
    80007fd4:	77ee                	ld	a5,248(sp)
    80007fd6:	4007d063          	bgez	a5,800083d6 <_vfprintf_r+0x15fe>
    80007fda:	02d00793          	li	a5,45
    80007fde:	0cf107a3          	sb	a5,207(sp)
    80007fe2:	02d00613          	li	a2,45
    80007fe6:	04700713          	li	a4,71
    80007fea:	00006a97          	auipc	s5,0x6
    80007fee:	6bea8a93          	addi	s5,s5,1726 # 8000e6a8 <blanks.1+0x20>
    80007ff2:	efd755e3          	bge	a4,t4,80007edc <_vfprintf_r+0x1104>
    80007ff6:	00006a97          	auipc	s5,0x6
    80007ffa:	6baa8a93          	addi	s5,s5,1722 # 8000e6b0 <blanks.1+0x28>
    80007ffe:	bdf9                	j	80007edc <_vfprintf_r+0x1104>
    80008000:	0015851b          	addiw	a0,a1,1
    80008004:	9652                	add	a2,a2,s4
    80008006:	01a43023          	sd	s10,0(s0)
    8000800a:	01443423          	sd	s4,8(s0)
    8000800e:	ea32                	sd	a2,272(sp)
    80008010:	10a12423          	sw	a0,264(sp)
    80008014:	469d                	li	a3,7
    80008016:	56a6c663          	blt	a3,a0,80008582 <_vfprintf_r+0x17aa>
    8000801a:	0441                	addi	s0,s0,16
    8000801c:	8d32                	mv	s10,a2
    8000801e:	b279                	j	800079ac <_vfprintf_r+0xbd4>
    80008020:	77c6                	ld	a5,112(sp)
    80008022:	75e6                	ld	a1,120(sp)
    80008024:	f472                	sd	t3,40(sp)
    80008026:	40fa8ab3          	sub	s5,s5,a5
    8000802a:	863e                	mv	a2,a5
    8000802c:	8556                	mv	a0,s5
    8000802e:	f076                	sd	t4,32(sp)
    80008030:	e842                	sd	a6,16(sp)
    80008032:	0b4050ef          	jal	ra,8000d0e6 <strncpy>
    80008036:	6842                	ld	a6,16(sp)
    80008038:	47a9                	li	a5,10
    8000803a:	02fb57b3          	divu	a5,s6,a5
    8000803e:	00184683          	lbu	a3,1(a6)
    80008042:	7e82                	ld	t4,32(sp)
    80008044:	7e22                	ld	t3,40(sp)
    80008046:	00d036b3          	snez	a3,a3
    8000804a:	9836                	add	a6,a6,a3
    8000804c:	0ff00713          	li	a4,255
    80008050:	4681                	li	a3,0
    80008052:	b349                	j	80007dd4 <_vfprintf_r+0xffc>
    80008054:	87a2                	mv	a5,s0
    80008056:	7442                	ld	s0,48(sp)
    80008058:	e54e                	sd	s3,136(sp)
    8000805a:	ed5e                	sd	s7,152(sp)
    8000805c:	f85a                	sd	s6,48(sp)
    8000805e:	e94a                	sd	s2,144(sp)
    80008060:	8b56                	mv	s6,s5
    80008062:	86ea                	mv	a3,s10
    80008064:	79e6                	ld	s3,120(sp)
    80008066:	7bc6                	ld	s7,112(sp)
    80008068:	7aa6                	ld	s5,104(sp)
    8000806a:	6c02                	ld	s8,0(sp)
    8000806c:	7d62                	ld	s10,56(sp)
    8000806e:	489d                	li	a7,7
    80008070:	4a41                	li	s4,16
    80008072:	00006c97          	auipc	s9,0x6
    80008076:	5f6c8c93          	addi	s9,s9,1526 # 8000e668 <zeroes.0>
    8000807a:	c049                	beqz	s0,800080fc <_vfprintf_r+0x1324>
    8000807c:	100d0c63          	beqz	s10,80008194 <_vfprintf_r+0x13bc>
    80008080:	3d7d                	addiw	s10,s10,-1
    80008082:	10812703          	lw	a4,264(sp)
    80008086:	96de                	add	a3,a3,s7
    80008088:	0137b023          	sd	s3,0(a5)
    8000808c:	0017061b          	addiw	a2,a4,1
    80008090:	0177b423          	sd	s7,8(a5)
    80008094:	ea36                	sd	a3,272(sp)
    80008096:	10c12423          	sw	a2,264(sp)
    8000809a:	07c1                	addi	a5,a5,16
    8000809c:	0ec8cf63          	blt	a7,a2,8000819a <_vfprintf_r+0x13c2>
    800080a0:	670a                	ld	a4,128(sp)
    800080a2:	000ac603          	lbu	a2,0(s5)
    800080a6:	41670733          	sub	a4,a4,s6
    800080aa:	0007059b          	sext.w	a1,a4
    800080ae:	0006081b          	sext.w	a6,a2
    800080b2:	00b65363          	bge	a2,a1,800080b8 <_vfprintf_r+0x12e0>
    800080b6:	8742                	mv	a4,a6
    800080b8:	0007091b          	sext.w	s2,a4
    800080bc:	03205563          	blez	s2,800080e6 <_vfprintf_r+0x130e>
    800080c0:	10812603          	lw	a2,264(sp)
    800080c4:	96ca                	add	a3,a3,s2
    800080c6:	0167b023          	sd	s6,0(a5)
    800080ca:	0016059b          	addiw	a1,a2,1
    800080ce:	0127b423          	sd	s2,8(a5)
    800080d2:	ea36                	sd	a3,272(sp)
    800080d4:	10b12423          	sw	a1,264(sp)
    800080d8:	0cb8cc63          	blt	a7,a1,800081b0 <_vfprintf_r+0x13d8>
    800080dc:	000ac603          	lbu	a2,0(s5)
    800080e0:	07c1                	addi	a5,a5,16
    800080e2:	0006081b          	sext.w	a6,a2
    800080e6:	fff94593          	not	a1,s2
    800080ea:	95fd                	srai	a1,a1,0x3f
    800080ec:	00b97733          	and	a4,s2,a1
    800080f0:	40e8093b          	subw	s2,a6,a4
    800080f4:	03204363          	bgtz	s2,8000811a <_vfprintf_r+0x1342>
    800080f8:	9b32                	add	s6,s6,a2
    800080fa:	f049                	bnez	s0,8000807c <_vfprintf_r+0x12a4>
    800080fc:	f80d12e3          	bnez	s10,80008080 <_vfprintf_r+0x12a8>
    80008100:	843e                	mv	s0,a5
    80008102:	678a                	ld	a5,128(sp)
    80008104:	f4d6                	sd	s5,104(sp)
    80008106:	8ada                	mv	s5,s6
    80008108:	69aa                	ld	s3,136(sp)
    8000810a:	694a                	ld	s2,144(sp)
    8000810c:	6bea                	ld	s7,152(sp)
    8000810e:	7b42                	ld	s6,48(sp)
    80008110:	8d36                	mv	s10,a3
    80008112:	8b57f3e3          	bgeu	a5,s5,800079b8 <_vfprintf_r+0xbe0>
    80008116:	8abe                	mv	s5,a5
    80008118:	b045                	j	800079b8 <_vfprintf_r+0xbe0>
    8000811a:	10812703          	lw	a4,264(sp)
    8000811e:	00006597          	auipc	a1,0x6
    80008122:	54a58593          	addi	a1,a1,1354 # 8000e668 <zeroes.0>
    80008126:	052a5763          	bge	s4,s2,80008174 <_vfprintf_r+0x139c>
    8000812a:	f022                	sd	s0,32(sp)
    8000812c:	844a                	mv	s0,s2
    8000812e:	8966                	mv	s2,s9
    80008130:	a021                	j	80008138 <_vfprintf_r+0x1360>
    80008132:	3441                	addiw	s0,s0,-16
    80008134:	028a5d63          	bge	s4,s0,8000816e <_vfprintf_r+0x1396>
    80008138:	2705                	addiw	a4,a4,1
    8000813a:	06c1                	addi	a3,a3,16
    8000813c:	0197b023          	sd	s9,0(a5)
    80008140:	0147b423          	sd	s4,8(a5)
    80008144:	ea36                	sd	a3,272(sp)
    80008146:	10e12423          	sw	a4,264(sp)
    8000814a:	07c1                	addi	a5,a5,16
    8000814c:	fee8d3e3          	bge	a7,a4,80008132 <_vfprintf_r+0x135a>
    80008150:	0210                	addi	a2,sp,256
    80008152:	85e2                	mv	a1,s8
    80008154:	8526                	mv	a0,s1
    80008156:	e13fd0ef          	jal	ra,80005f68 <__sprint_r>
    8000815a:	e8051163          	bnez	a0,800077dc <_vfprintf_r+0xa04>
    8000815e:	3441                	addiw	s0,s0,-16
    80008160:	66d2                	ld	a3,272(sp)
    80008162:	10812703          	lw	a4,264(sp)
    80008166:	031c                	addi	a5,sp,384
    80008168:	489d                	li	a7,7
    8000816a:	fc8a47e3          	blt	s4,s0,80008138 <_vfprintf_r+0x1360>
    8000816e:	85ca                	mv	a1,s2
    80008170:	8922                	mv	s2,s0
    80008172:	7402                	ld	s0,32(sp)
    80008174:	0017061b          	addiw	a2,a4,1
    80008178:	96ca                	add	a3,a3,s2
    8000817a:	e38c                	sd	a1,0(a5)
    8000817c:	0127b423          	sd	s2,8(a5)
    80008180:	ea36                	sd	a3,272(sp)
    80008182:	10c12423          	sw	a2,264(sp)
    80008186:	4ec8cf63          	blt	a7,a2,80008684 <_vfprintf_r+0x18ac>
    8000818a:	000ac603          	lbu	a2,0(s5)
    8000818e:	07c1                	addi	a5,a5,16
    80008190:	9b32                	add	s6,s6,a2
    80008192:	b7a5                	j	800080fa <_vfprintf_r+0x1322>
    80008194:	1afd                	addi	s5,s5,-1
    80008196:	347d                	addiw	s0,s0,-1
    80008198:	b5ed                	j	80008082 <_vfprintf_r+0x12aa>
    8000819a:	0210                	addi	a2,sp,256
    8000819c:	85e2                	mv	a1,s8
    8000819e:	8526                	mv	a0,s1
    800081a0:	dc9fd0ef          	jal	ra,80005f68 <__sprint_r>
    800081a4:	e2051c63          	bnez	a0,800077dc <_vfprintf_r+0xa04>
    800081a8:	66d2                	ld	a3,272(sp)
    800081aa:	031c                	addi	a5,sp,384
    800081ac:	489d                	li	a7,7
    800081ae:	bdcd                	j	800080a0 <_vfprintf_r+0x12c8>
    800081b0:	0210                	addi	a2,sp,256
    800081b2:	85e2                	mv	a1,s8
    800081b4:	8526                	mv	a0,s1
    800081b6:	db3fd0ef          	jal	ra,80005f68 <__sprint_r>
    800081ba:	e2051163          	bnez	a0,800077dc <_vfprintf_r+0xa04>
    800081be:	000ac603          	lbu	a2,0(s5)
    800081c2:	66d2                	ld	a3,272(sp)
    800081c4:	031c                	addi	a5,sp,384
    800081c6:	0006081b          	sext.w	a6,a2
    800081ca:	489d                	li	a7,7
    800081cc:	bf29                	j	800080e6 <_vfprintf_r+0x130e>
    800081ce:	6582                	ld	a1,0(sp)
    800081d0:	0210                	addi	a2,sp,256
    800081d2:	8526                	mv	a0,s1
    800081d4:	d95fd0ef          	jal	ra,80005f68 <__sprint_r>
    800081d8:	e0051263          	bnez	a0,800077dc <_vfprintf_r+0xa04>
    800081dc:	456e                	lw	a0,216(sp)
    800081de:	6652                	ld	a2,272(sp)
    800081e0:	0300                	addi	s0,sp,384
    800081e2:	b991                	j	80007e36 <_vfprintf_r+0x105e>
    800081e4:	00006a97          	auipc	s5,0x6
    800081e8:	4bca8a93          	addi	s5,s5,1212 # 8000e6a0 <blanks.1+0x18>
    800081ec:	b9c5                	j	80007edc <_vfprintf_r+0x1104>
    800081ee:	8972                	mv	s2,t3
    800081f0:	4689                	li	a3,2
    800081f2:	874a                	mv	a4,s2
    800081f4:	0e810893          	addi	a7,sp,232
    800081f8:	0dc10813          	addi	a6,sp,220
    800081fc:	09bc                	addi	a5,sp,216
    800081fe:	85d2                	mv	a1,s4
    80008200:	865a                	mv	a2,s6
    80008202:	8526                	mv	a0,s1
    80008204:	f472                	sd	t3,40(sp)
    80008206:	f076                	sd	t4,32(sp)
    80008208:	1a9020ef          	jal	ra,8000abb0 <_ldtoa_r>
    8000820c:	7e82                	ld	t4,32(sp)
    8000820e:	06700713          	li	a4,103
    80008212:	7e22                	ld	t3,40(sp)
    80008214:	8aaa                	mv	s5,a0
    80008216:	44ee8e63          	beq	t4,a4,80008672 <_vfprintf_r+0x189a>
    8000821a:	04700713          	li	a4,71
    8000821e:	44ee8a63          	beq	t4,a4,80008672 <_vfprintf_r+0x189a>
    80008222:	fdfefd13          	andi	s10,t4,-33
    80008226:	04600713          	li	a4,70
    8000822a:	01250cb3          	add	s9,a0,s2
    8000822e:	4aed0e63          	beq	s10,a4,800086ea <_vfprintf_r+0x1912>
    80008232:	4601                	li	a2,0
    80008234:	4681                	li	a3,0
    80008236:	8552                	mv	a0,s4
    80008238:	85da                	mv	a1,s6
    8000823a:	f472                	sd	t3,40(sp)
    8000823c:	f076                	sd	t4,32(sp)
    8000823e:	faafb0ef          	jal	ra,800039e8 <__eqtf2>
    80008242:	7e82                	ld	t4,32(sp)
    80008244:	7e22                	ld	t3,40(sp)
    80008246:	87e6                	mv	a5,s9
    80008248:	cd11                	beqz	a0,80008264 <_vfprintf_r+0x148c>
    8000824a:	77ae                	ld	a5,232(sp)
    8000824c:	0197fc63          	bgeu	a5,s9,80008264 <_vfprintf_r+0x148c>
    80008250:	03000693          	li	a3,48
    80008254:	00178713          	addi	a4,a5,1
    80008258:	f5ba                	sd	a4,232(sp)
    8000825a:	00d78023          	sb	a3,0(a5)
    8000825e:	77ae                	ld	a5,232(sp)
    80008260:	ff97eae3          	bltu	a5,s9,80008254 <_vfprintf_r+0x147c>
    80008264:	415787bb          	subw	a5,a5,s5
    80008268:	f43e                	sd	a5,40(sp)
    8000826a:	466e                	lw	a2,216(sp)
    8000826c:	04700713          	li	a4,71
    80008270:	f032                	sd	a2,32(sp)
    80008272:	38ed0363          	beq	s10,a4,800085f8 <_vfprintf_r+0x1820>
    80008276:	04600713          	li	a4,70
    8000827a:	50ed0d63          	beq	s10,a4,80008794 <_vfprintf_r+0x19bc>
    8000827e:	fff6071b          	addiw	a4,a2,-1
    80008282:	cdba                	sw	a4,216(sp)
    80008284:	06100693          	li	a3,97
    80008288:	70de8163          	beq	t4,a3,8000898a <_vfprintf_r+0x1bb2>
    8000828c:	04100593          	li	a1,65
    80008290:	05000693          	li	a3,80
    80008294:	36be9c63          	bne	t4,a1,8000860c <_vfprintf_r+0x1834>
    80008298:	4585                	li	a1,1
    8000829a:	0ed10023          	sb	a3,224(sp)
    8000829e:	02b00693          	li	a3,43
    800082a2:	00075663          	bgez	a4,800082ae <_vfprintf_r+0x14d6>
    800082a6:	4705                	li	a4,1
    800082a8:	9f11                	subw	a4,a4,a2
    800082aa:	02d00693          	li	a3,45
    800082ae:	0ed100a3          	sb	a3,225(sp)
    800082b2:	46a5                	li	a3,9
    800082b4:	58e6d763          	bge	a3,a4,80008842 <_vfprintf_r+0x1a6a>
    800082b8:	0ef10813          	addi	a6,sp,239
    800082bc:	88c2                	mv	a7,a6
    800082be:	4e29                	li	t3,10
    800082c0:	06300f93          	li	t6,99
    800082c4:	03c767bb          	remw	a5,a4,t3
    800082c8:	8646                	mv	a2,a7
    800082ca:	86ba                	mv	a3,a4
    800082cc:	18fd                	addi	a7,a7,-1
    800082ce:	0307879b          	addiw	a5,a5,48
    800082d2:	fef60fa3          	sb	a5,-1(a2)
    800082d6:	03c7473b          	divw	a4,a4,t3
    800082da:	fedfc5e3          	blt	t6,a3,800082c4 <_vfprintf_r+0x14ec>
    800082de:	0307051b          	addiw	a0,a4,48
    800082e2:	fea88fa3          	sb	a0,-1(a7)
    800082e6:	ffe60713          	addi	a4,a2,-2
    800082ea:	6f077a63          	bgeu	a4,a6,800089de <_vfprintf_r+0x1c06>
    800082ee:	0e210693          	addi	a3,sp,226
    800082f2:	00074783          	lbu	a5,0(a4)
    800082f6:	0705                	addi	a4,a4,1
    800082f8:	0685                	addi	a3,a3,1
    800082fa:	fef68fa3          	sb	a5,-1(a3)
    800082fe:	ff071ae3          	bne	a4,a6,800082f2 <_vfprintf_r+0x151a>
    80008302:	0f110713          	addi	a4,sp,241
    80008306:	0e210793          	addi	a5,sp,226
    8000830a:	8f11                	sub	a4,a4,a2
    8000830c:	973e                	add	a4,a4,a5
    8000830e:	1194                	addi	a3,sp,224
    80008310:	40d707bb          	subw	a5,a4,a3
    80008314:	f0be                	sd	a5,96(sp)
    80008316:	7706                	ld	a4,96(sp)
    80008318:	77a2                	ld	a5,40(sp)
    8000831a:	4605                	li	a2,1
    8000831c:	00e78cbb          	addw	s9,a5,a4
    80008320:	8766                	mv	a4,s9
    80008322:	5ef65263          	bge	a2,a5,80008906 <_vfprintf_r+0x1b2e>
    80008326:	67a6                	ld	a5,72(sp)
    80008328:	00f70cbb          	addw	s9,a4,a5
    8000832c:	77c2                	ld	a5,48(sp)
    8000832e:	fffcc713          	not	a4,s9
    80008332:	977d                	srai	a4,a4,0x3f
    80008334:	bff7f913          	andi	s2,a5,-1025
    80008338:	2901                	sext.w	s2,s2
    8000833a:	00ecf733          	and	a4,s9,a4
    8000833e:	10096913          	ori	s2,s2,256
    80008342:	00070b1b          	sext.w	s6,a4
    80008346:	fc02                	sd	zero,56(sp)
    80008348:	f802                	sd	zero,48(sp)
    8000834a:	f002                	sd	zero,32(sp)
    8000834c:	67aa                	ld	a5,136(sp)
    8000834e:	2c078363          	beqz	a5,80008614 <_vfprintf_r+0x183c>
    80008352:	02d00613          	li	a2,45
    80008356:	0cc107a3          	sb	a2,207(sp)
    8000835a:	4e01                	li	t3,0
    8000835c:	2b05                	addiw	s6,s6,1
    8000835e:	c23fe06f          	j	80006f80 <_vfprintf_r+0x1a8>
    80008362:	6582                	ld	a1,0(sp)
    80008364:	0210                	addi	a2,sp,256
    80008366:	8526                	mv	a0,s1
    80008368:	c01fd0ef          	jal	ra,80005f68 <__sprint_r>
    8000836c:	c6051863          	bnez	a0,800077dc <_vfprintf_r+0xa04>
    80008370:	6d52                	ld	s10,272(sp)
    80008372:	0300                	addi	s0,sp,384
    80008374:	e24ff06f          	j	80007998 <_vfprintf_r+0xbc0>
    80008378:	4699                	li	a3,6
    8000837a:	b269                	j	80007d04 <_vfprintf_r+0xf2c>
    8000837c:	670a                	ld	a4,128(sp)
    8000837e:	40d785bb          	subw	a1,a5,a3
    80008382:	866a                	mv	a2,s10
    80008384:	41570c33          	sub	s8,a4,s5
    80008388:	000c079b          	sext.w	a5,s8
    8000838c:	00f5d363          	bge	a1,a5,80008392 <_vfprintf_r+0x15ba>
    80008390:	8c2e                	mv	s8,a1
    80008392:	2c01                	sext.w	s8,s8
    80008394:	e90ff06f          	j	80007a24 <_vfprintf_r+0xc4c>
    80008398:	67a2                	ld	a5,8(sp)
    8000839a:	00f71023          	sh	a5,0(a4)
    8000839e:	95eff06f          	j	800074fc <_vfprintf_r+0x724>
    800083a2:	1b02                	slli	s6,s6,0x20
    800083a4:	020b5b13          	srli	s6,s6,0x20
    800083a8:	ec3a                	sd	a4,24(sp)
    800083aa:	4785                	li	a5,1
    800083ac:	878ff06f          	j	80007424 <_vfprintf_r+0x64c>
    800083b0:	87da                	mv	a5,s6
    800083b2:	8e0ff06f          	j	80007492 <_vfprintf_r+0x6ba>
    800083b6:	1b02                	slli	s6,s6,0x20
    800083b8:	020b5b13          	srli	s6,s6,0x20
    800083bc:	b0d9                	j	80007c82 <_vfprintf_r+0xeaa>
    800083be:	1b02                	slli	s6,s6,0x20
    800083c0:	020b5b13          	srli	s6,s6,0x20
    800083c4:	910ff06f          	j	800074d4 <_vfprintf_r+0x6fc>
    800083c8:	6582                	ld	a1,0(sp)
    800083ca:	6506                	ld	a0,64(sp)
    800083cc:	0210                	addi	a2,sp,256
    800083ce:	b9bfd0ef          	jal	ra,80005f68 <__sprint_r>
    800083d2:	c9bfe06f          	j	8000706c <_vfprintf_r+0x294>
    800083d6:	0cf14603          	lbu	a2,207(sp)
    800083da:	b131                	j	80007fe6 <_vfprintf_r+0x120e>
    800083dc:	6582                	ld	a1,0(sp)
    800083de:	0210                	addi	a2,sp,256
    800083e0:	8526                	mv	a0,s1
    800083e2:	b87fd0ef          	jal	ra,80005f68 <__sprint_r>
    800083e6:	be051b63          	bnez	a0,800077dc <_vfprintf_r+0xa04>
    800083ea:	456e                	lw	a0,216(sp)
    800083ec:	6652                	ld	a2,272(sp)
    800083ee:	10812583          	lw	a1,264(sp)
    800083f2:	0300                	addi	s0,sp,384
    800083f4:	be9d                	j	80007f6a <_vfprintf_r+0x1192>
    800083f6:	05800713          	li	a4,88
    800083fa:	00296793          	ori	a5,s2,2
    800083fe:	03000693          	li	a3,48
    80008402:	2781                	sext.w	a5,a5
    80008404:	0ce108a3          	sb	a4,209(sp)
    80008408:	0cd10823          	sb	a3,208(sp)
    8000840c:	06300713          	li	a4,99
    80008410:	f83e                	sd	a5,48(sp)
    80008412:	e802                	sd	zero,16(sp)
    80008414:	11810a93          	addi	s5,sp,280
    80008418:	49c74363          	blt	a4,t3,8000889e <_vfprintf_r+0x1ac6>
    8000841c:	10296913          	ori	s2,s2,258
    80008420:	7b6e                	ld	s6,248(sp)
    80008422:	0009079b          	sext.w	a5,s2
    80008426:	e13e                	sd	a5,128(sp)
    80008428:	e502                	sd	zero,136(sp)
    8000842a:	7a4e                	ld	s4,240(sp)
    8000842c:	220b4b63          	bltz	s6,80008662 <_vfprintf_r+0x188a>
    80008430:	06100713          	li	a4,97
    80008434:	00ee8463          	beq	t4,a4,8000843c <_vfprintf_r+0x1664>
    80008438:	d71fe06f          	j	800071a8 <_vfprintf_r+0x3d0>
    8000843c:	85da                	mv	a1,s6
    8000843e:	8552                	mv	a0,s4
    80008440:	f472                	sd	t3,40(sp)
    80008442:	f076                	sd	t4,32(sp)
    80008444:	8c3fc0ef          	jal	ra,80004d06 <__trunctfdf2>
    80008448:	09a8                	addi	a0,sp,216
    8000844a:	335040ef          	jal	ra,8000cf7e <frexp>
    8000844e:	ff4fc0ef          	jal	ra,80004c42 <__extenddftf2>
    80008452:	00006717          	auipc	a4,0x6
    80008456:	4ae70713          	addi	a4,a4,1198 # 8000e900 <blanks.1+0x278>
    8000845a:	6310                	ld	a2,0(a4)
    8000845c:	6714                	ld	a3,8(a4)
    8000845e:	fa4fb0ef          	jal	ra,80003c02 <__multf3>
    80008462:	4601                	li	a2,0
    80008464:	4681                	li	a3,0
    80008466:	8d2a                	mv	s10,a0
    80008468:	892e                	mv	s2,a1
    8000846a:	d7efb0ef          	jal	ra,800039e8 <__eqtf2>
    8000846e:	7e82                	ld	t4,32(sp)
    80008470:	7e22                	ld	t3,40(sp)
    80008472:	e119                	bnez	a0,80008478 <_vfprintf_r+0x16a0>
    80008474:	4705                	li	a4,1
    80008476:	cdba                	sw	a4,216(sp)
    80008478:	00006797          	auipc	a5,0x6
    8000847c:	25878793          	addi	a5,a5,600 # 8000e6d0 <blanks.1+0x48>
    80008480:	f03e                	sd	a5,32(sp)
    80008482:	00006697          	auipc	a3,0x6
    80008486:	48e68693          	addi	a3,a3,1166 # 8000e910 <blanks.1+0x288>
    8000848a:	020e1713          	slli	a4,t3,0x20
    8000848e:	629c                	ld	a5,0(a3)
    80008490:	9301                	srli	a4,a4,0x20
    80008492:	6694                	ld	a3,8(a3)
    80008494:	0705                	addi	a4,a4,1
    80008496:	9756                	add	a4,a4,s5
    80008498:	000e061b          	sext.w	a2,t3
    8000849c:	8a56                	mv	s4,s5
    8000849e:	f44e                	sd	s3,40(sp)
    800084a0:	e95e                	sd	s7,144(sp)
    800084a2:	f122                	sd	s0,160(sp)
    800084a4:	f956                	sd	s5,176(sp)
    800084a6:	7402                	ld	s0,32(sp)
    800084a8:	89ba                	mv	s3,a4
    800084aa:	fc76                	sd	t4,56(sp)
    800084ac:	fd32                	sd	a2,184(sp)
    800084ae:	ed72                	sd	t3,152(sp)
    800084b0:	f526                	sd	s1,168(sp)
    800084b2:	8abe                	mv	s5,a5
    800084b4:	8bb6                	mv	s7,a3
    800084b6:	a039                	j	800084c4 <_vfprintf_r+0x16ec>
    800084b8:	4601                	li	a2,0
    800084ba:	4681                	li	a3,0
    800084bc:	d2cfb0ef          	jal	ra,800039e8 <__eqtf2>
    800084c0:	40050663          	beqz	a0,800088cc <_vfprintf_r+0x1af4>
    800084c4:	8656                	mv	a2,s5
    800084c6:	86de                	mv	a3,s7
    800084c8:	856a                	mv	a0,s10
    800084ca:	85ca                	mv	a1,s2
    800084cc:	f36fb0ef          	jal	ra,80003c02 <__multf3>
    800084d0:	84ae                	mv	s1,a1
    800084d2:	892a                	mv	s2,a0
    800084d4:	e88fc0ef          	jal	ra,80004b5c <__fixtfsi>
    800084d8:	00050b1b          	sext.w	s6,a0
    800084dc:	855a                	mv	a0,s6
    800084de:	f0efc0ef          	jal	ra,80004bec <__floatsitf>
    800084e2:	86ae                	mv	a3,a1
    800084e4:	862a                	mv	a2,a0
    800084e6:	85a6                	mv	a1,s1
    800084e8:	854a                	mv	a0,s2
    800084ea:	d3bfb0ef          	jal	ra,80004224 <__subtf3>
    800084ee:	01640733          	add	a4,s0,s6
    800084f2:	00074683          	lbu	a3,0(a4)
    800084f6:	84d2                	mv	s1,s4
    800084f8:	0a05                	addi	s4,s4,1
    800084fa:	feda0fa3          	sb	a3,-1(s4)
    800084fe:	8c2a                	mv	s8,a0
    80008500:	8d2a                	mv	s10,a0
    80008502:	892e                	mv	s2,a1
    80008504:	fb499ae3          	bne	s3,s4,800084b8 <_vfprintf_r+0x16e0>
    80008508:	79a2                	ld	s3,40(sp)
    8000850a:	7ee2                	ld	t4,56(sp)
    8000850c:	f426                	sd	s1,40(sp)
    8000850e:	6bca                	ld	s7,144(sp)
    80008510:	6e6a                	ld	t3,152(sp)
    80008512:	740a                	ld	s0,160(sp)
    80008514:	74aa                	ld	s1,168(sp)
    80008516:	7aca                	ld	s5,176(sp)
    80008518:	8caa                	mv	s9,a0
    8000851a:	8c2e                	mv	s8,a1
    8000851c:	597d                	li	s2,-1
    8000851e:	00006697          	auipc	a3,0x6
    80008522:	40268693          	addi	a3,a3,1026 # 8000e920 <blanks.1+0x298>
    80008526:	0086bd03          	ld	s10,8(a3)
    8000852a:	6290                	ld	a2,0(a3)
    8000852c:	8566                	mv	a0,s9
    8000852e:	86ea                	mv	a3,s10
    80008530:	85e2                	mv	a1,s8
    80008532:	e972                	sd	t3,144(sp)
    80008534:	fc76                	sd	t4,56(sp)
    80008536:	ed32                	sd	a2,152(sp)
    80008538:	d4afb0ef          	jal	ra,80003a82 <__getf2>
    8000853c:	7ee2                	ld	t4,56(sp)
    8000853e:	6e4a                	ld	t3,144(sp)
    80008540:	2aa04f63          	bgtz	a0,800087fe <_vfprintf_r+0x1a26>
    80008544:	666a                	ld	a2,152(sp)
    80008546:	86ea                	mv	a3,s10
    80008548:	8566                	mv	a0,s9
    8000854a:	85e2                	mv	a1,s8
    8000854c:	c9cfb0ef          	jal	ra,800039e8 <__eqtf2>
    80008550:	7ee2                	ld	t4,56(sp)
    80008552:	6e4a                	ld	t3,144(sp)
    80008554:	e509                	bnez	a0,8000855e <_vfprintf_r+0x1786>
    80008556:	001b7793          	andi	a5,s6,1
    8000855a:	2a079263          	bnez	a5,800087fe <_vfprintf_r+0x1a26>
    8000855e:	0019079b          	addiw	a5,s2,1
    80008562:	97d2                	add	a5,a5,s4
    80008564:	03000693          	li	a3,48
    80008568:	2c094b63          	bltz	s2,8000883e <_vfprintf_r+0x1a66>
    8000856c:	0a05                	addi	s4,s4,1
    8000856e:	feda0fa3          	sb	a3,-1(s4)
    80008572:	ff479de3          	bne	a5,s4,8000856c <_vfprintf_r+0x1794>
    80008576:	415787bb          	subw	a5,a5,s5
    8000857a:	f43e                	sd	a5,40(sp)
    8000857c:	fdfefd13          	andi	s10,t4,-33
    80008580:	b1ed                	j	8000826a <_vfprintf_r+0x1492>
    80008582:	6582                	ld	a1,0(sp)
    80008584:	0210                	addi	a2,sp,256
    80008586:	8526                	mv	a0,s1
    80008588:	9e1fd0ef          	jal	ra,80005f68 <__sprint_r>
    8000858c:	a4051863          	bnez	a0,800077dc <_vfprintf_r+0xa04>
    80008590:	6d52                	ld	s10,272(sp)
    80008592:	0300                	addi	s0,sp,384
    80008594:	c18ff06f          	j	800079ac <_vfprintf_r+0xbd4>
    80008598:	001e091b          	addiw	s2,t3,1
    8000859c:	4689                	li	a3,2
    8000859e:	b991                	j	800081f2 <_vfprintf_r+0x141a>
    800085a0:	8972                	mv	s2,t3
    800085a2:	468d                	li	a3,3
    800085a4:	b1b9                	j	800081f2 <_vfprintf_r+0x141a>
    800085a6:	85da                	mv	a1,s6
    800085a8:	8552                	mv	a0,s4
    800085aa:	f472                	sd	t3,40(sp)
    800085ac:	f076                	sd	t4,32(sp)
    800085ae:	f58fc0ef          	jal	ra,80004d06 <__trunctfdf2>
    800085b2:	09a8                	addi	a0,sp,216
    800085b4:	1cb040ef          	jal	ra,8000cf7e <frexp>
    800085b8:	e8afc0ef          	jal	ra,80004c42 <__extenddftf2>
    800085bc:	00006717          	auipc	a4,0x6
    800085c0:	34470713          	addi	a4,a4,836 # 8000e900 <blanks.1+0x278>
    800085c4:	6310                	ld	a2,0(a4)
    800085c6:	6714                	ld	a3,8(a4)
    800085c8:	e3afb0ef          	jal	ra,80003c02 <__multf3>
    800085cc:	4601                	li	a2,0
    800085ce:	4681                	li	a3,0
    800085d0:	8d2a                	mv	s10,a0
    800085d2:	892e                	mv	s2,a1
    800085d4:	c14fb0ef          	jal	ra,800039e8 <__eqtf2>
    800085d8:	7e82                	ld	t4,32(sp)
    800085da:	7e22                	ld	t3,40(sp)
    800085dc:	e119                	bnez	a0,800085e2 <_vfprintf_r+0x180a>
    800085de:	4705                	li	a4,1
    800085e0:	cdba                	sw	a4,216(sp)
    800085e2:	00006797          	auipc	a5,0x6
    800085e6:	0d678793          	addi	a5,a5,214 # 8000e6b8 <blanks.1+0x30>
    800085ea:	f03e                	sd	a5,32(sp)
    800085ec:	bd59                	j	80008482 <_vfprintf_r+0x16aa>
    800085ee:	77ae                	ld	a5,232(sp)
    800085f0:	466e                	lw	a2,216(sp)
    800085f2:	415787bb          	subw	a5,a5,s5
    800085f6:	f43e                	sd	a5,40(sp)
    800085f8:	5775                	li	a4,-3
    800085fa:	f032                	sd	a2,32(sp)
    800085fc:	00e64463          	blt	a2,a4,80008604 <_vfprintf_r+0x182c>
    80008600:	02ce5263          	bge	t3,a2,80008624 <_vfprintf_r+0x184c>
    80008604:	fff6071b          	addiw	a4,a2,-1
    80008608:	3ef9                	addiw	t4,t4,-2
    8000860a:	cdba                	sw	a4,216(sp)
    8000860c:	0ffef693          	zext.b	a3,t4
    80008610:	4581                	li	a1,0
    80008612:	b161                	j	8000829a <_vfprintf_r+0x14c2>
    80008614:	0cf14603          	lbu	a2,207(sp)
    80008618:	4e01                	li	t3,0
    8000861a:	c219                	beqz	a2,80008620 <_vfprintf_r+0x1848>
    8000861c:	d0dfe06f          	j	80007328 <_vfprintf_r+0x550>
    80008620:	961fe06f          	j	80006f80 <_vfprintf_r+0x1a8>
    80008624:	77a2                	ld	a5,40(sp)
    80008626:	1af64263          	blt	a2,a5,800087ca <_vfprintf_r+0x19f2>
    8000862a:	77c2                	ld	a5,48(sp)
    8000862c:	8cb2                	mv	s9,a2
    8000862e:	0017f713          	andi	a4,a5,1
    80008632:	c701                	beqz	a4,8000863a <_vfprintf_r+0x1862>
    80008634:	67a6                	ld	a5,72(sp)
    80008636:	00c78cbb          	addw	s9,a5,a2
    8000863a:	77c2                	ld	a5,48(sp)
    8000863c:	4007f713          	andi	a4,a5,1024
    80008640:	c319                	beqz	a4,80008646 <_vfprintf_r+0x186e>
    80008642:	2cc04863          	bgtz	a2,80008912 <_vfprintf_r+0x1b3a>
    80008646:	fffcc713          	not	a4,s9
    8000864a:	977d                	srai	a4,a4,0x3f
    8000864c:	690a                	ld	s2,128(sp)
    8000864e:	00ecf733          	and	a4,s9,a4
    80008652:	00070b1b          	sext.w	s6,a4
    80008656:	06700e93          	li	t4,103
    8000865a:	fc02                	sd	zero,56(sp)
    8000865c:	f802                	sd	zero,48(sp)
    8000865e:	b1fd                	j	8000834c <_vfprintf_r+0x1574>
    80008660:	e802                	sd	zero,16(sp)
    80008662:	577d                	li	a4,-1
    80008664:	177e                	slli	a4,a4,0x3f
    80008666:	02d00793          	li	a5,45
    8000866a:	00eb4b33          	xor	s6,s6,a4
    8000866e:	e53e                	sd	a5,136(sp)
    80008670:	b3c1                	j	80008430 <_vfprintf_r+0x1658>
    80008672:	77c2                	ld	a5,48(sp)
    80008674:	0017f713          	andi	a4,a5,1
    80008678:	db3d                	beqz	a4,800085ee <_vfprintf_r+0x1816>
    8000867a:	012a8cb3          	add	s9,s5,s2
    8000867e:	04700d13          	li	s10,71
    80008682:	be45                	j	80008232 <_vfprintf_r+0x145a>
    80008684:	0210                	addi	a2,sp,256
    80008686:	85e2                	mv	a1,s8
    80008688:	8526                	mv	a0,s1
    8000868a:	8dffd0ef          	jal	ra,80005f68 <__sprint_r>
    8000868e:	94051763          	bnez	a0,800077dc <_vfprintf_r+0xa04>
    80008692:	000ac603          	lbu	a2,0(s5)
    80008696:	66d2                	ld	a3,272(sp)
    80008698:	031c                	addi	a5,sp,384
    8000869a:	489d                	li	a7,7
    8000869c:	9b32                	add	s6,s6,a2
    8000869e:	bcb1                	j	800080fa <_vfprintf_r+0x1322>
    800086a0:	07800713          	li	a4,120
    800086a4:	bb99                	j	800083fa <_vfprintf_r+0x1622>
    800086a6:	02d00793          	li	a5,45
    800086aa:	0cf107a3          	sb	a5,207(sp)
    800086ae:	02d00613          	li	a2,45
    800086b2:	81bff06f          	j	80007ecc <_vfprintf_r+0x10f4>
    800086b6:	6582                	ld	a1,0(sp)
    800086b8:	0210                	addi	a2,sp,256
    800086ba:	8526                	mv	a0,s1
    800086bc:	8adfd0ef          	jal	ra,80005f68 <__sprint_r>
    800086c0:	90051e63          	bnez	a0,800077dc <_vfprintf_r+0xa04>
    800086c4:	46ee                	lw	a3,216(sp)
    800086c6:	6652                	ld	a2,272(sp)
    800086c8:	0300                	addi	s0,sp,384
    800086ca:	b20ff06f          	j	800079ea <_vfprintf_r+0xc12>
    800086ce:	0cf14603          	lbu	a2,207(sp)
    800086d2:	ec52                	sd	s4,24(sp)
    800086d4:	fc02                	sd	zero,56(sp)
    800086d6:	f802                	sd	zero,48(sp)
    800086d8:	f002                	sd	zero,32(sp)
    800086da:	8b72                	mv	s6,t3
    800086dc:	8cf2                	mv	s9,t3
    800086de:	4e01                	li	t3,0
    800086e0:	c219                	beqz	a2,800086e6 <_vfprintf_r+0x190e>
    800086e2:	c47fe06f          	j	80007328 <_vfprintf_r+0x550>
    800086e6:	89bfe06f          	j	80006f80 <_vfprintf_r+0x1a8>
    800086ea:	00054683          	lbu	a3,0(a0)
    800086ee:	03000713          	li	a4,48
    800086f2:	00e68563          	beq	a3,a4,800086fc <_vfprintf_r+0x1924>
    800086f6:	46ee                	lw	a3,216(sp)
    800086f8:	9cb6                	add	s9,s9,a3
    800086fa:	be25                	j	80008232 <_vfprintf_r+0x145a>
    800086fc:	4601                	li	a2,0
    800086fe:	4681                	li	a3,0
    80008700:	8552                	mv	a0,s4
    80008702:	85da                	mv	a1,s6
    80008704:	f472                	sd	t3,40(sp)
    80008706:	f076                	sd	t4,32(sp)
    80008708:	ae0fb0ef          	jal	ra,800039e8 <__eqtf2>
    8000870c:	7e82                	ld	t4,32(sp)
    8000870e:	7e22                	ld	t3,40(sp)
    80008710:	d17d                	beqz	a0,800086f6 <_vfprintf_r+0x191e>
    80008712:	4705                	li	a4,1
    80008714:	412706bb          	subw	a3,a4,s2
    80008718:	cdb6                	sw	a3,216(sp)
    8000871a:	9cb6                	add	s9,s9,a3
    8000871c:	be19                	j	80008232 <_vfprintf_r+0x145a>
    8000871e:	6582                	ld	a1,0(sp)
    80008720:	0210                	addi	a2,sp,256
    80008722:	8526                	mv	a0,s1
    80008724:	845fd0ef          	jal	ra,80005f68 <__sprint_r>
    80008728:	c119                	beqz	a0,8000872e <_vfprintf_r+0x1956>
    8000872a:	8b2ff06f          	j	800077dc <_vfprintf_r+0xa04>
    8000872e:	45ee                	lw	a1,216(sp)
    80008730:	77a2                	ld	a5,40(sp)
    80008732:	6652                	ld	a2,272(sp)
    80008734:	0300                	addi	s0,sp,384
    80008736:	40b785bb          	subw	a1,a5,a1
    8000873a:	aeaff06f          	j	80007a24 <_vfprintf_r+0xc4c>
    8000873e:	8c4a                	mv	s8,s2
    80008740:	96aff06f          	j	800078aa <_vfprintf_r+0xad2>
    80008744:	56c1                	li	a3,-16
    80008746:	40a00c3b          	negw	s8,a0
    8000874a:	00006d17          	auipc	s10,0x6
    8000874e:	f1ed0d13          	addi	s10,s10,-226 # 8000e668 <zeroes.0>
    80008752:	4cc1                	li	s9,16
    80008754:	4a1d                	li	s4,7
    80008756:	00d54663          	blt	a0,a3,80008762 <_vfprintf_r+0x198a>
    8000875a:	aa01                	j	8000886a <_vfprintf_r+0x1a92>
    8000875c:	3c41                	addiw	s8,s8,-16
    8000875e:	118cd663          	bge	s9,s8,8000886a <_vfprintf_r+0x1a92>
    80008762:	2585                	addiw	a1,a1,1
    80008764:	0641                	addi	a2,a2,16
    80008766:	01a43023          	sd	s10,0(s0)
    8000876a:	01943423          	sd	s9,8(s0)
    8000876e:	ea32                	sd	a2,272(sp)
    80008770:	10b12423          	sw	a1,264(sp)
    80008774:	0441                	addi	s0,s0,16
    80008776:	feba53e3          	bge	s4,a1,8000875c <_vfprintf_r+0x1984>
    8000877a:	6582                	ld	a1,0(sp)
    8000877c:	0210                	addi	a2,sp,256
    8000877e:	8526                	mv	a0,s1
    80008780:	fe8fd0ef          	jal	ra,80005f68 <__sprint_r>
    80008784:	c119                	beqz	a0,8000878a <_vfprintf_r+0x19b2>
    80008786:	856ff06f          	j	800077dc <_vfprintf_r+0xa04>
    8000878a:	6652                	ld	a2,272(sp)
    8000878c:	10812583          	lw	a1,264(sp)
    80008790:	0300                	addi	s0,sp,384
    80008792:	b7e9                	j	8000875c <_vfprintf_r+0x1984>
    80008794:	77c2                	ld	a5,48(sp)
    80008796:	0017f713          	andi	a4,a5,1
    8000879a:	7782                	ld	a5,32(sp)
    8000879c:	00ee6733          	or	a4,t3,a4
    800087a0:	20f05763          	blez	a5,800089ae <_vfprintf_r+0x1bd6>
    800087a4:	1c071b63          	bnez	a4,8000897a <_vfprintf_r+0x1ba2>
    800087a8:	7c82                	ld	s9,32(sp)
    800087aa:	06600e93          	li	t4,102
    800087ae:	77c2                	ld	a5,48(sp)
    800087b0:	4007f713          	andi	a4,a5,1024
    800087b4:	16071163          	bnez	a4,80008916 <_vfprintf_r+0x1b3e>
    800087b8:	fffcc713          	not	a4,s9
    800087bc:	977d                	srai	a4,a4,0x3f
    800087be:	00ecf733          	and	a4,s9,a4
    800087c2:	690a                	ld	s2,128(sp)
    800087c4:	00070b1b          	sext.w	s6,a4
    800087c8:	bd49                	j	8000865a <_vfprintf_r+0x1882>
    800087ca:	67a6                	ld	a5,72(sp)
    800087cc:	7722                	ld	a4,40(sp)
    800087ce:	06700e93          	li	t4,103
    800087d2:	00e78cbb          	addw	s9,a5,a4
    800087d6:	7782                	ld	a5,32(sp)
    800087d8:	fcf04be3          	bgtz	a5,800087ae <_vfprintf_r+0x19d6>
    800087dc:	40fc873b          	subw	a4,s9,a5
    800087e0:	2705                	addiw	a4,a4,1
    800087e2:	00070c9b          	sext.w	s9,a4
    800087e6:	fffcc613          	not	a2,s9
    800087ea:	967d                	srai	a2,a2,0x3f
    800087ec:	8f71                	and	a4,a4,a2
    800087ee:	690a                	ld	s2,128(sp)
    800087f0:	00070b1b          	sext.w	s6,a4
    800087f4:	b59d                	j	8000865a <_vfprintf_r+0x1882>
    800087f6:	57fd                	li	a5,-1
    800087f8:	e43e                	sd	a5,8(sp)
    800087fa:	883fe06f          	j	8000707c <_vfprintf_r+0x2a4>
    800087fe:	77a2                	ld	a5,40(sp)
    80008800:	86d2                	mv	a3,s4
    80008802:	f5be                	sd	a5,232(sp)
    80008804:	7782                	ld	a5,32(sp)
    80008806:	fffa4603          	lbu	a2,-1(s4)
    8000880a:	00f7c583          	lbu	a1,15(a5)
    8000880e:	00c59e63          	bne	a1,a2,8000882a <_vfprintf_r+0x1a52>
    80008812:	03000513          	li	a0,48
    80008816:	fea68fa3          	sb	a0,-1(a3)
    8000881a:	76ae                	ld	a3,232(sp)
    8000881c:	fff68793          	addi	a5,a3,-1
    80008820:	f5be                	sd	a5,232(sp)
    80008822:	fff6c603          	lbu	a2,-1(a3)
    80008826:	fec588e3          	beq	a1,a2,80008816 <_vfprintf_r+0x1a3e>
    8000882a:	0016059b          	addiw	a1,a2,1
    8000882e:	03900513          	li	a0,57
    80008832:	0ff5f593          	zext.b	a1,a1
    80008836:	08a60263          	beq	a2,a0,800088ba <_vfprintf_r+0x1ae2>
    8000883a:	feb68fa3          	sb	a1,-1(a3)
    8000883e:	87d2                	mv	a5,s4
    80008840:	bb1d                	j	80008576 <_vfprintf_r+0x179e>
    80008842:	0e210693          	addi	a3,sp,226
    80008846:	e599                	bnez	a1,80008854 <_vfprintf_r+0x1a7c>
    80008848:	03000693          	li	a3,48
    8000884c:	0ed10123          	sb	a3,226(sp)
    80008850:	0e310693          	addi	a3,sp,227
    80008854:	041c                	addi	a5,sp,512
    80008856:	40f68633          	sub	a2,a3,a5
    8000885a:	0307071b          	addiw	a4,a4,48
    8000885e:	1216079b          	addiw	a5,a2,289
    80008862:	00e68023          	sb	a4,0(a3)
    80008866:	f0be                	sd	a5,96(sp)
    80008868:	b47d                	j	80008316 <_vfprintf_r+0x153e>
    8000886a:	2585                	addiw	a1,a1,1
    8000886c:	9662                	add	a2,a2,s8
    8000886e:	01a43023          	sd	s10,0(s0)
    80008872:	01843423          	sd	s8,8(s0)
    80008876:	ea32                	sd	a2,272(sp)
    80008878:	10b12423          	sw	a1,264(sp)
    8000887c:	469d                	li	a3,7
    8000887e:	deb6d363          	bge	a3,a1,80007e64 <_vfprintf_r+0x108c>
    80008882:	6582                	ld	a1,0(sp)
    80008884:	0210                	addi	a2,sp,256
    80008886:	8526                	mv	a0,s1
    80008888:	ee0fd0ef          	jal	ra,80005f68 <__sprint_r>
    8000888c:	c119                	beqz	a0,80008892 <_vfprintf_r+0x1aba>
    8000888e:	f4ffe06f          	j	800077dc <_vfprintf_r+0xa04>
    80008892:	6652                	ld	a2,272(sp)
    80008894:	10812583          	lw	a1,264(sp)
    80008898:	0300                	addi	s0,sp,384
    8000889a:	ed4ff06f          	j	80007f6e <_vfprintf_r+0x1196>
    8000889e:	001e059b          	addiw	a1,t3,1
    800088a2:	8526                	mv	a0,s1
    800088a4:	f076                	sd	t4,32(sp)
    800088a6:	e872                	sd	t3,16(sp)
    800088a8:	e4bfc0ef          	jal	ra,800056f2 <_malloc_r>
    800088ac:	6e42                	ld	t3,16(sp)
    800088ae:	7e82                	ld	t4,32(sp)
    800088b0:	8aaa                	mv	s5,a0
    800088b2:	12050c63          	beqz	a0,800089ea <_vfprintf_r+0x1c12>
    800088b6:	e82a                	sd	a0,16(sp)
    800088b8:	b695                	j	8000841c <_vfprintf_r+0x1644>
    800088ba:	7782                	ld	a5,32(sp)
    800088bc:	00a7c583          	lbu	a1,10(a5)
    800088c0:	feb68fa3          	sb	a1,-1(a3)
    800088c4:	bfad                	j	8000883e <_vfprintf_r+0x1a66>
    800088c6:	c31c                	sw	a5,0(a4)
    800088c8:	c35fe06f          	j	800074fc <_vfprintf_r+0x724>
    800088cc:	766a                	ld	a2,184(sp)
    800088ce:	7aca                	ld	s5,176(sp)
    800088d0:	79a2                	ld	s3,40(sp)
    800088d2:	8ce2                	mv	s9,s8
    800088d4:	00ca863b          	addw	a2,s5,a2
    800088d8:	f426                	sd	s1,40(sp)
    800088da:	8c4a                	mv	s8,s2
    800088dc:	7ee2                	ld	t4,56(sp)
    800088de:	6bca                	ld	s7,144(sp)
    800088e0:	6e6a                	ld	t3,152(sp)
    800088e2:	740a                	ld	s0,160(sp)
    800088e4:	74aa                	ld	s1,168(sp)
    800088e6:	4146093b          	subw	s2,a2,s4
    800088ea:	b915                	j	8000851e <_vfprintf_r+0x1746>
    800088ec:	000e0463          	beqz	t3,800088f4 <_vfprintf_r+0x1b1c>
    800088f0:	89dfe06f          	j	8000718c <_vfprintf_r+0x3b4>
    800088f4:	4e05                	li	t3,1
    800088f6:	897fe06f          	j	8000718c <_vfprintf_r+0x3b4>
    800088fa:	4e19                	li	t3,6
    800088fc:	891fe06f          	j	8000718c <_vfprintf_r+0x3b4>
    80008900:	ec3a                	sd	a4,24(sp)
    80008902:	fa9fe06f          	j	800078aa <_vfprintf_r+0xad2>
    80008906:	77c2                	ld	a5,48(sp)
    80008908:	0017f613          	andi	a2,a5,1
    8000890c:	a20600e3          	beqz	a2,8000832c <_vfprintf_r+0x1554>
    80008910:	bc19                	j	80008326 <_vfprintf_r+0x154e>
    80008912:	06700e93          	li	t4,103
    80008916:	76a6                	ld	a3,104(sp)
    80008918:	0ff00613          	li	a2,255
    8000891c:	0006c703          	lbu	a4,0(a3)
    80008920:	0cc70263          	beq	a4,a2,800089e4 <_vfprintf_r+0x1c0c>
    80008924:	7782                	ld	a5,32(sp)
    80008926:	4801                	li	a6,0
    80008928:	4501                	li	a0,0
    8000892a:	0ff00593          	li	a1,255
    8000892e:	0007061b          	sext.w	a2,a4
    80008932:	00f75a63          	bge	a4,a5,80008946 <_vfprintf_r+0x1b6e>
    80008936:	0016c703          	lbu	a4,1(a3)
    8000893a:	9f91                	subw	a5,a5,a2
    8000893c:	cb1d                	beqz	a4,80008972 <_vfprintf_r+0x1b9a>
    8000893e:	2505                	addiw	a0,a0,1
    80008940:	0685                	addi	a3,a3,1
    80008942:	feb716e3          	bne	a4,a1,8000892e <_vfprintf_r+0x1b56>
    80008946:	f03e                	sd	a5,32(sp)
    80008948:	f4b6                	sd	a3,104(sp)
    8000894a:	f82a                	sd	a0,48(sp)
    8000894c:	fc42                	sd	a6,56(sp)
    8000894e:	77e2                	ld	a5,56(sp)
    80008950:	7742                	ld	a4,48(sp)
    80008952:	690a                	ld	s2,128(sp)
    80008954:	9f3d                	addw	a4,a4,a5
    80008956:	77c6                	ld	a5,112(sp)
    80008958:	02f7073b          	mulw	a4,a4,a5
    8000895c:	0197073b          	addw	a4,a4,s9
    80008960:	00070c9b          	sext.w	s9,a4
    80008964:	fffcc613          	not	a2,s9
    80008968:	967d                	srai	a2,a2,0x3f
    8000896a:	8f71                	and	a4,a4,a2
    8000896c:	00070b1b          	sext.w	s6,a4
    80008970:	baf1                	j	8000834c <_vfprintf_r+0x1574>
    80008972:	0006c703          	lbu	a4,0(a3)
    80008976:	2805                	addiw	a6,a6,1
    80008978:	b7e9                	j	80008942 <_vfprintf_r+0x1b6a>
    8000897a:	6726                	ld	a4,72(sp)
    8000897c:	06600e93          	li	t4,102
    80008980:	00f706bb          	addw	a3,a4,a5
    80008984:	01c68cbb          	addw	s9,a3,t3
    80008988:	b51d                	j	800087ae <_vfprintf_r+0x19d6>
    8000898a:	07000693          	li	a3,112
    8000898e:	b229                	j	80008298 <_vfprintf_r+0x14c0>
    80008990:	66e2                	ld	a3,24(sp)
    80008992:	4298                	lw	a4,0(a3)
    80008994:	06a1                	addi	a3,a3,8
    80008996:	8e3a                	mv	t3,a4
    80008998:	00075363          	bgez	a4,8000899e <_vfprintf_r+0x1bc6>
    8000899c:	5e7d                	li	t3,-1
    8000899e:	0019ce83          	lbu	t4,1(s3)
    800089a2:	000e0a1b          	sext.w	s4,t3
    800089a6:	ec36                	sd	a3,24(sp)
    800089a8:	89be                	mv	s3,a5
    800089aa:	d5afe06f          	j	80006f04 <_vfprintf_r+0x12c>
    800089ae:	e719                	bnez	a4,800089bc <_vfprintf_r+0x1be4>
    800089b0:	690a                	ld	s2,128(sp)
    800089b2:	4b05                	li	s6,1
    800089b4:	06600e93          	li	t4,102
    800089b8:	4c85                	li	s9,1
    800089ba:	b145                	j	8000865a <_vfprintf_r+0x1882>
    800089bc:	67a6                	ld	a5,72(sp)
    800089be:	690a                	ld	s2,128(sp)
    800089c0:	06600e93          	li	t4,102
    800089c4:	0017871b          	addiw	a4,a5,1
    800089c8:	01c7073b          	addw	a4,a4,t3
    800089cc:	00070c9b          	sext.w	s9,a4
    800089d0:	fffcc613          	not	a2,s9
    800089d4:	967d                	srai	a2,a2,0x3f
    800089d6:	8f71                	and	a4,a4,a2
    800089d8:	00070b1b          	sext.w	s6,a4
    800089dc:	b9bd                	j	8000865a <_vfprintf_r+0x1882>
    800089de:	4789                	li	a5,2
    800089e0:	f0be                	sd	a5,96(sp)
    800089e2:	ba15                	j	80008316 <_vfprintf_r+0x153e>
    800089e4:	fc02                	sd	zero,56(sp)
    800089e6:	f802                	sd	zero,48(sp)
    800089e8:	b79d                	j	8000894e <_vfprintf_r+0x1b76>
    800089ea:	6702                	ld	a4,0(sp)
    800089ec:	01075783          	lhu	a5,16(a4)
    800089f0:	0407e793          	ori	a5,a5,64
    800089f4:	00f71823          	sh	a5,16(a4)
    800089f8:	e74fe06f          	j	8000706c <_vfprintf_r+0x294>

Disassembly of section .text.vfprintf:

00000000800089fc <vfprintf>:
    800089fc:	86b2                	mv	a3,a2
    800089fe:	862e                	mv	a2,a1
    80008a00:	85aa                	mv	a1,a0
    80008a02:	8a01b503          	ld	a0,-1888(gp) # 80010180 <_impure_ptr>
    80008a06:	bd2fe06f          	j	80006dd8 <_vfprintf_r>

Disassembly of section .text.__swbuf_r:

0000000080008a0a <__swbuf_r>:
    80008a0a:	7179                	addi	sp,sp,-48
    80008a0c:	f022                	sd	s0,32(sp)
    80008a0e:	ec26                	sd	s1,24(sp)
    80008a10:	e84a                	sd	s2,16(sp)
    80008a12:	f406                	sd	ra,40(sp)
    80008a14:	e44e                	sd	s3,8(sp)
    80008a16:	892a                	mv	s2,a0
    80008a18:	84ae                	mv	s1,a1
    80008a1a:	8432                	mv	s0,a2
    80008a1c:	c119                	beqz	a0,80008a22 <__swbuf_r+0x18>
    80008a1e:	493c                	lw	a5,80(a0)
    80008a20:	cbf9                	beqz	a5,80008af6 <__swbuf_r+0xec>
    80008a22:	541c                	lw	a5,40(s0)
    80008a24:	01041703          	lh	a4,16(s0)
    80008a28:	c45c                	sw	a5,12(s0)
    80008a2a:	00877793          	andi	a5,a4,8
    80008a2e:	cbb9                	beqz	a5,80008a84 <__swbuf_r+0x7a>
    80008a30:	6c1c                	ld	a5,24(s0)
    80008a32:	cba9                	beqz	a5,80008a84 <__swbuf_r+0x7a>
    80008a34:	0ff4f993          	zext.b	s3,s1
    80008a38:	03271693          	slli	a3,a4,0x32
    80008a3c:	84ce                	mv	s1,s3
    80008a3e:	0606d263          	bgez	a3,80008aa2 <__swbuf_r+0x98>
    80008a42:	6018                	ld	a4,0(s0)
    80008a44:	5014                	lw	a3,32(s0)
    80008a46:	40f707bb          	subw	a5,a4,a5
    80008a4a:	06d7dd63          	bge	a5,a3,80008ac4 <__swbuf_r+0xba>
    80008a4e:	4454                	lw	a3,12(s0)
    80008a50:	00170613          	addi	a2,a4,1
    80008a54:	e010                	sd	a2,0(s0)
    80008a56:	36fd                	addiw	a3,a3,-1
    80008a58:	c454                	sw	a3,12(s0)
    80008a5a:	01370023          	sb	s3,0(a4)
    80008a5e:	5018                	lw	a4,32(s0)
    80008a60:	2785                	addiw	a5,a5,1
    80008a62:	08f70363          	beq	a4,a5,80008ae8 <__swbuf_r+0xde>
    80008a66:	01045783          	lhu	a5,16(s0)
    80008a6a:	8b85                	andi	a5,a5,1
    80008a6c:	c781                	beqz	a5,80008a74 <__swbuf_r+0x6a>
    80008a6e:	47a9                	li	a5,10
    80008a70:	06f48c63          	beq	s1,a5,80008ae8 <__swbuf_r+0xde>
    80008a74:	70a2                	ld	ra,40(sp)
    80008a76:	7402                	ld	s0,32(sp)
    80008a78:	6942                	ld	s2,16(sp)
    80008a7a:	69a2                	ld	s3,8(sp)
    80008a7c:	8526                	mv	a0,s1
    80008a7e:	64e2                	ld	s1,24(sp)
    80008a80:	6145                	addi	sp,sp,48
    80008a82:	8082                	ret
    80008a84:	85a2                	mv	a1,s0
    80008a86:	854a                	mv	a0,s2
    80008a88:	07e000ef          	jal	ra,80008b06 <__swsetup_r>
    80008a8c:	e13d                	bnez	a0,80008af2 <__swbuf_r+0xe8>
    80008a8e:	01041703          	lh	a4,16(s0)
    80008a92:	0ff4f993          	zext.b	s3,s1
    80008a96:	6c1c                	ld	a5,24(s0)
    80008a98:	03271693          	slli	a3,a4,0x32
    80008a9c:	84ce                	mv	s1,s3
    80008a9e:	fa06c2e3          	bltz	a3,80008a42 <__swbuf_r+0x38>
    80008aa2:	0ac42683          	lw	a3,172(s0)
    80008aa6:	6609                	lui	a2,0x2
    80008aa8:	8f51                	or	a4,a4,a2
    80008aaa:	7679                	lui	a2,0xffffe
    80008aac:	167d                	addi	a2,a2,-1 # ffffffffffffdfff <_end+0xffffffff7cfecdbf>
    80008aae:	8ef1                	and	a3,a3,a2
    80008ab0:	00e41823          	sh	a4,16(s0)
    80008ab4:	6018                	ld	a4,0(s0)
    80008ab6:	0ad42623          	sw	a3,172(s0)
    80008aba:	5014                	lw	a3,32(s0)
    80008abc:	40f707bb          	subw	a5,a4,a5
    80008ac0:	f8d7c7e3          	blt	a5,a3,80008a4e <__swbuf_r+0x44>
    80008ac4:	85a2                	mv	a1,s0
    80008ac6:	854a                	mv	a0,s2
    80008ac8:	29c000ef          	jal	ra,80008d64 <_fflush_r>
    80008acc:	e11d                	bnez	a0,80008af2 <__swbuf_r+0xe8>
    80008ace:	6018                	ld	a4,0(s0)
    80008ad0:	4454                	lw	a3,12(s0)
    80008ad2:	4785                	li	a5,1
    80008ad4:	00170613          	addi	a2,a4,1
    80008ad8:	36fd                	addiw	a3,a3,-1
    80008ada:	e010                	sd	a2,0(s0)
    80008adc:	c454                	sw	a3,12(s0)
    80008ade:	01370023          	sb	s3,0(a4)
    80008ae2:	5018                	lw	a4,32(s0)
    80008ae4:	f8f711e3          	bne	a4,a5,80008a66 <__swbuf_r+0x5c>
    80008ae8:	85a2                	mv	a1,s0
    80008aea:	854a                	mv	a0,s2
    80008aec:	278000ef          	jal	ra,80008d64 <_fflush_r>
    80008af0:	d151                	beqz	a0,80008a74 <__swbuf_r+0x6a>
    80008af2:	54fd                	li	s1,-1
    80008af4:	b741                	j	80008a74 <__swbuf_r+0x6a>
    80008af6:	556000ef          	jal	ra,8000904c <__sinit>
    80008afa:	b725                	j	80008a22 <__swbuf_r+0x18>

Disassembly of section .text.__swbuf:

0000000080008afc <__swbuf>:
    80008afc:	862e                	mv	a2,a1
    80008afe:	85aa                	mv	a1,a0
    80008b00:	8a01b503          	ld	a0,-1888(gp) # 80010180 <_impure_ptr>
    80008b04:	b719                	j	80008a0a <__swbuf_r>

Disassembly of section .text.__swsetup_r:

0000000080008b06 <__swsetup_r>:
    80008b06:	1101                	addi	sp,sp,-32
    80008b08:	e822                	sd	s0,16(sp)
    80008b0a:	e426                	sd	s1,8(sp)
    80008b0c:	ec06                	sd	ra,24(sp)
    80008b0e:	8a01b783          	ld	a5,-1888(gp) # 80010180 <_impure_ptr>
    80008b12:	84aa                	mv	s1,a0
    80008b14:	842e                	mv	s0,a1
    80008b16:	c399                	beqz	a5,80008b1c <__swsetup_r+0x16>
    80008b18:	4bb8                	lw	a4,80(a5)
    80008b1a:	cb29                	beqz	a4,80008b6c <__swsetup_r+0x66>
    80008b1c:	01041783          	lh	a5,16(s0)
    80008b20:	0087f713          	andi	a4,a5,8
    80008b24:	cf21                	beqz	a4,80008b7c <__swsetup_r+0x76>
    80008b26:	6c18                	ld	a4,24(s0)
    80008b28:	c735                	beqz	a4,80008b94 <__swsetup_r+0x8e>
    80008b2a:	0017f693          	andi	a3,a5,1
    80008b2e:	ce91                	beqz	a3,80008b4a <__swsetup_r+0x44>
    80008b30:	5014                	lw	a3,32(s0)
    80008b32:	00042623          	sw	zero,12(s0)
    80008b36:	4501                	li	a0,0
    80008b38:	40d006bb          	negw	a3,a3
    80008b3c:	d414                	sw	a3,40(s0)
    80008b3e:	cf11                	beqz	a4,80008b5a <__swsetup_r+0x54>
    80008b40:	60e2                	ld	ra,24(sp)
    80008b42:	6442                	ld	s0,16(sp)
    80008b44:	64a2                	ld	s1,8(sp)
    80008b46:	6105                	addi	sp,sp,32
    80008b48:	8082                	ret
    80008b4a:	0027f693          	andi	a3,a5,2
    80008b4e:	4601                	li	a2,0
    80008b50:	e291                	bnez	a3,80008b54 <__swsetup_r+0x4e>
    80008b52:	5010                	lw	a2,32(s0)
    80008b54:	c450                	sw	a2,12(s0)
    80008b56:	4501                	li	a0,0
    80008b58:	f765                	bnez	a4,80008b40 <__swsetup_r+0x3a>
    80008b5a:	0807f713          	andi	a4,a5,128
    80008b5e:	d36d                	beqz	a4,80008b40 <__swsetup_r+0x3a>
    80008b60:	0407e793          	ori	a5,a5,64
    80008b64:	00f41823          	sh	a5,16(s0)
    80008b68:	557d                	li	a0,-1
    80008b6a:	bfd9                	j	80008b40 <__swsetup_r+0x3a>
    80008b6c:	853e                	mv	a0,a5
    80008b6e:	4de000ef          	jal	ra,8000904c <__sinit>
    80008b72:	01041783          	lh	a5,16(s0)
    80008b76:	0087f713          	andi	a4,a5,8
    80008b7a:	f755                	bnez	a4,80008b26 <__swsetup_r+0x20>
    80008b7c:	0107f713          	andi	a4,a5,16
    80008b80:	cf21                	beqz	a4,80008bd8 <__swsetup_r+0xd2>
    80008b82:	0047f713          	andi	a4,a5,4
    80008b86:	e70d                	bnez	a4,80008bb0 <__swsetup_r+0xaa>
    80008b88:	6c18                	ld	a4,24(s0)
    80008b8a:	0087e793          	ori	a5,a5,8
    80008b8e:	00f41823          	sh	a5,16(s0)
    80008b92:	ff41                	bnez	a4,80008b2a <__swsetup_r+0x24>
    80008b94:	2807f693          	andi	a3,a5,640
    80008b98:	20000613          	li	a2,512
    80008b9c:	f8c687e3          	beq	a3,a2,80008b2a <__swsetup_r+0x24>
    80008ba0:	85a2                	mv	a1,s0
    80008ba2:	8526                	mv	a0,s1
    80008ba4:	787020ef          	jal	ra,8000bb2a <__smakebuf_r>
    80008ba8:	01041783          	lh	a5,16(s0)
    80008bac:	6c18                	ld	a4,24(s0)
    80008bae:	bfb5                	j	80008b2a <__swsetup_r+0x24>
    80008bb0:	6c2c                	ld	a1,88(s0)
    80008bb2:	cd81                	beqz	a1,80008bca <__swsetup_r+0xc4>
    80008bb4:	07440713          	addi	a4,s0,116
    80008bb8:	00e58763          	beq	a1,a4,80008bc6 <__swsetup_r+0xc0>
    80008bbc:	8526                	mv	a0,s1
    80008bbe:	6a0000ef          	jal	ra,8000925e <_free_r>
    80008bc2:	01041783          	lh	a5,16(s0)
    80008bc6:	04043c23          	sd	zero,88(s0)
    80008bca:	6c18                	ld	a4,24(s0)
    80008bcc:	fdb7f793          	andi	a5,a5,-37
    80008bd0:	00042423          	sw	zero,8(s0)
    80008bd4:	e018                	sd	a4,0(s0)
    80008bd6:	bf55                	j	80008b8a <__swsetup_r+0x84>
    80008bd8:	4725                	li	a4,9
    80008bda:	c098                	sw	a4,0(s1)
    80008bdc:	0407e793          	ori	a5,a5,64
    80008be0:	b751                	j	80008b64 <__swsetup_r+0x5e>

Disassembly of section .text.__sflush_r:

0000000080008be2 <__sflush_r>:
    80008be2:	01059783          	lh	a5,16(a1)
    80008be6:	7179                	addi	sp,sp,-48
    80008be8:	f022                	sd	s0,32(sp)
    80008bea:	e44e                	sd	s3,8(sp)
    80008bec:	f406                	sd	ra,40(sp)
    80008bee:	ec26                	sd	s1,24(sp)
    80008bf0:	e84a                	sd	s2,16(sp)
    80008bf2:	0087f713          	andi	a4,a5,8
    80008bf6:	842e                	mv	s0,a1
    80008bf8:	89aa                	mv	s3,a0
    80008bfa:	e369                	bnez	a4,80008cbc <__sflush_r+0xda>
    80008bfc:	6705                	lui	a4,0x1
    80008bfe:	80070713          	addi	a4,a4,-2048 # 800 <_tbss_end+0x7bc>
    80008c02:	4594                	lw	a3,8(a1)
    80008c04:	8f5d                	or	a4,a4,a5
    80008c06:	00e59823          	sh	a4,16(a1)
    80008c0a:	10d05463          	blez	a3,80008d12 <__sflush_r+0x130>
    80008c0e:	04843803          	ld	a6,72(s0)
    80008c12:	08080d63          	beqz	a6,80008cac <__sflush_r+0xca>
    80008c16:	83b1                	srli	a5,a5,0xc
    80008c18:	0009a483          	lw	s1,0(s3)
    80008c1c:	8b85                	andi	a5,a5,1
    80008c1e:	0009a023          	sw	zero,0(s3)
    80008c22:	780c                	ld	a1,48(s0)
    80008c24:	efe5                	bnez	a5,80008d1c <__sflush_r+0x13a>
    80008c26:	4601                	li	a2,0
    80008c28:	4685                	li	a3,1
    80008c2a:	854e                	mv	a0,s3
    80008c2c:	9802                	jalr	a6
    80008c2e:	57fd                	li	a5,-1
    80008c30:	862a                	mv	a2,a0
    80008c32:	10f50863          	beq	a0,a5,80008d42 <__sflush_r+0x160>
    80008c36:	01041703          	lh	a4,16(s0)
    80008c3a:	04843803          	ld	a6,72(s0)
    80008c3e:	780c                	ld	a1,48(s0)
    80008c40:	8b11                	andi	a4,a4,4
    80008c42:	c719                	beqz	a4,80008c50 <__sflush_r+0x6e>
    80008c44:	4418                	lw	a4,8(s0)
    80008c46:	6c3c                	ld	a5,88(s0)
    80008c48:	8e19                	sub	a2,a2,a4
    80008c4a:	c399                	beqz	a5,80008c50 <__sflush_r+0x6e>
    80008c4c:	583c                	lw	a5,112(s0)
    80008c4e:	8e1d                	sub	a2,a2,a5
    80008c50:	4681                	li	a3,0
    80008c52:	854e                	mv	a0,s3
    80008c54:	9802                	jalr	a6
    80008c56:	57fd                	li	a5,-1
    80008c58:	0cf51463          	bne	a0,a5,80008d20 <__sflush_r+0x13e>
    80008c5c:	0009a683          	lw	a3,0(s3)
    80008c60:	47f5                	li	a5,29
    80008c62:	08d7ea63          	bltu	a5,a3,80008cf6 <__sflush_r+0x114>
    80008c66:	dfc00737          	lui	a4,0xdfc00
    80008c6a:	1779                	addi	a4,a4,-2 # ffffffffdfbffffe <_end+0xffffffff5cbeedbe>
    80008c6c:	40d75733          	sra	a4,a4,a3
    80008c70:	8b05                	andi	a4,a4,1
    80008c72:	01041783          	lh	a5,16(s0)
    80008c76:	e351                	bnez	a4,80008cfa <__sflush_r+0x118>
    80008c78:	6c10                	ld	a2,24(s0)
    80008c7a:	777d                	lui	a4,0xfffff
    80008c7c:	7ff70713          	addi	a4,a4,2047 # fffffffffffff7ff <_end+0xffffffff7cfee5bf>
    80008c80:	8f7d                	and	a4,a4,a5
    80008c82:	83b1                	srli	a5,a5,0xc
    80008c84:	00e41823          	sh	a4,16(s0)
    80008c88:	00042423          	sw	zero,8(s0)
    80008c8c:	e010                	sd	a2,0(s0)
    80008c8e:	8b85                	andi	a5,a5,1
    80008c90:	e7f9                	bnez	a5,80008d5e <__sflush_r+0x17c>
    80008c92:	6c2c                	ld	a1,88(s0)
    80008c94:	0099a023          	sw	s1,0(s3)
    80008c98:	c991                	beqz	a1,80008cac <__sflush_r+0xca>
    80008c9a:	07440793          	addi	a5,s0,116
    80008c9e:	00f58563          	beq	a1,a5,80008ca8 <__sflush_r+0xc6>
    80008ca2:	854e                	mv	a0,s3
    80008ca4:	5ba000ef          	jal	ra,8000925e <_free_r>
    80008ca8:	04043c23          	sd	zero,88(s0)
    80008cac:	4501                	li	a0,0
    80008cae:	70a2                	ld	ra,40(sp)
    80008cb0:	7402                	ld	s0,32(sp)
    80008cb2:	64e2                	ld	s1,24(sp)
    80008cb4:	6942                	ld	s2,16(sp)
    80008cb6:	69a2                	ld	s3,8(sp)
    80008cb8:	6145                	addi	sp,sp,48
    80008cba:	8082                	ret
    80008cbc:	0185b903          	ld	s2,24(a1)
    80008cc0:	fe0906e3          	beqz	s2,80008cac <__sflush_r+0xca>
    80008cc4:	6184                	ld	s1,0(a1)
    80008cc6:	8b8d                	andi	a5,a5,3
    80008cc8:	0125b023          	sd	s2,0(a1)
    80008ccc:	412484bb          	subw	s1,s1,s2
    80008cd0:	4701                	li	a4,0
    80008cd2:	e391                	bnez	a5,80008cd6 <__sflush_r+0xf4>
    80008cd4:	5198                	lw	a4,32(a1)
    80008cd6:	c458                	sw	a4,12(s0)
    80008cd8:	00904663          	bgtz	s1,80008ce4 <__sflush_r+0x102>
    80008cdc:	bfc1                	j	80008cac <__sflush_r+0xca>
    80008cde:	992a                	add	s2,s2,a0
    80008ce0:	fc9056e3          	blez	s1,80008cac <__sflush_r+0xca>
    80008ce4:	603c                	ld	a5,64(s0)
    80008ce6:	780c                	ld	a1,48(s0)
    80008ce8:	86a6                	mv	a3,s1
    80008cea:	864a                	mv	a2,s2
    80008cec:	854e                	mv	a0,s3
    80008cee:	9782                	jalr	a5
    80008cf0:	9c89                	subw	s1,s1,a0
    80008cf2:	fea046e3          	bgtz	a0,80008cde <__sflush_r+0xfc>
    80008cf6:	01041783          	lh	a5,16(s0)
    80008cfa:	0407e793          	ori	a5,a5,64
    80008cfe:	70a2                	ld	ra,40(sp)
    80008d00:	00f41823          	sh	a5,16(s0)
    80008d04:	7402                	ld	s0,32(sp)
    80008d06:	64e2                	ld	s1,24(sp)
    80008d08:	6942                	ld	s2,16(sp)
    80008d0a:	69a2                	ld	s3,8(sp)
    80008d0c:	557d                	li	a0,-1
    80008d0e:	6145                	addi	sp,sp,48
    80008d10:	8082                	ret
    80008d12:	59b4                	lw	a3,112(a1)
    80008d14:	eed04de3          	bgtz	a3,80008c0e <__sflush_r+0x2c>
    80008d18:	4501                	li	a0,0
    80008d1a:	bf51                	j	80008cae <__sflush_r+0xcc>
    80008d1c:	6850                	ld	a2,144(s0)
    80008d1e:	b70d                	j	80008c40 <__sflush_r+0x5e>
    80008d20:	01041783          	lh	a5,16(s0)
    80008d24:	6c14                	ld	a3,24(s0)
    80008d26:	777d                	lui	a4,0xfffff
    80008d28:	7ff70713          	addi	a4,a4,2047 # fffffffffffff7ff <_end+0xffffffff7cfee5bf>
    80008d2c:	8f7d                	and	a4,a4,a5
    80008d2e:	83b1                	srli	a5,a5,0xc
    80008d30:	00e41823          	sh	a4,16(s0)
    80008d34:	00042423          	sw	zero,8(s0)
    80008d38:	e014                	sd	a3,0(s0)
    80008d3a:	8b85                	andi	a5,a5,1
    80008d3c:	dbb9                	beqz	a5,80008c92 <__sflush_r+0xb0>
    80008d3e:	e848                	sd	a0,144(s0)
    80008d40:	bf89                	j	80008c92 <__sflush_r+0xb0>
    80008d42:	0009a783          	lw	a5,0(s3)
    80008d46:	ee0788e3          	beqz	a5,80008c36 <__sflush_r+0x54>
    80008d4a:	4775                	li	a4,29
    80008d4c:	00e78563          	beq	a5,a4,80008d56 <__sflush_r+0x174>
    80008d50:	4759                	li	a4,22
    80008d52:	fae792e3          	bne	a5,a4,80008cf6 <__sflush_r+0x114>
    80008d56:	0099a023          	sw	s1,0(s3)
    80008d5a:	4501                	li	a0,0
    80008d5c:	bf89                	j	80008cae <__sflush_r+0xcc>
    80008d5e:	fa95                	bnez	a3,80008c92 <__sflush_r+0xb0>
    80008d60:	e848                	sd	a0,144(s0)
    80008d62:	bf05                	j	80008c92 <__sflush_r+0xb0>

Disassembly of section .text._fflush_r:

0000000080008d64 <_fflush_r>:
    80008d64:	1101                	addi	sp,sp,-32
    80008d66:	e822                	sd	s0,16(sp)
    80008d68:	ec06                	sd	ra,24(sp)
    80008d6a:	842a                	mv	s0,a0
    80008d6c:	c119                	beqz	a0,80008d72 <_fflush_r+0xe>
    80008d6e:	493c                	lw	a5,80(a0)
    80008d70:	cb89                	beqz	a5,80008d82 <_fflush_r+0x1e>
    80008d72:	01059783          	lh	a5,16(a1)
    80008d76:	ef89                	bnez	a5,80008d90 <_fflush_r+0x2c>
    80008d78:	60e2                	ld	ra,24(sp)
    80008d7a:	6442                	ld	s0,16(sp)
    80008d7c:	4501                	li	a0,0
    80008d7e:	6105                	addi	sp,sp,32
    80008d80:	8082                	ret
    80008d82:	e42e                	sd	a1,8(sp)
    80008d84:	2c8000ef          	jal	ra,8000904c <__sinit>
    80008d88:	65a2                	ld	a1,8(sp)
    80008d8a:	01059783          	lh	a5,16(a1)
    80008d8e:	d7ed                	beqz	a5,80008d78 <_fflush_r+0x14>
    80008d90:	8522                	mv	a0,s0
    80008d92:	6442                	ld	s0,16(sp)
    80008d94:	60e2                	ld	ra,24(sp)
    80008d96:	6105                	addi	sp,sp,32
    80008d98:	b5a9                	j	80008be2 <__sflush_r>

Disassembly of section .text.fflush:

0000000080008d9a <fflush>:
    80008d9a:	cd1d                	beqz	a0,80008dd8 <fflush+0x3e>
    80008d9c:	1101                	addi	sp,sp,-32
    80008d9e:	e822                	sd	s0,16(sp)
    80008da0:	ec06                	sd	ra,24(sp)
    80008da2:	842a                	mv	s0,a0
    80008da4:	8a01b503          	ld	a0,-1888(gp) # 80010180 <_impure_ptr>
    80008da8:	c119                	beqz	a0,80008dae <fflush+0x14>
    80008daa:	493c                	lw	a5,80(a0)
    80008dac:	cf91                	beqz	a5,80008dc8 <fflush+0x2e>
    80008dae:	01041783          	lh	a5,16(s0)
    80008db2:	e791                	bnez	a5,80008dbe <fflush+0x24>
    80008db4:	60e2                	ld	ra,24(sp)
    80008db6:	6442                	ld	s0,16(sp)
    80008db8:	4501                	li	a0,0
    80008dba:	6105                	addi	sp,sp,32
    80008dbc:	8082                	ret
    80008dbe:	85a2                	mv	a1,s0
    80008dc0:	6442                	ld	s0,16(sp)
    80008dc2:	60e2                	ld	ra,24(sp)
    80008dc4:	6105                	addi	sp,sp,32
    80008dc6:	bd31                	j	80008be2 <__sflush_r>
    80008dc8:	e42a                	sd	a0,8(sp)
    80008dca:	282000ef          	jal	ra,8000904c <__sinit>
    80008dce:	01041783          	lh	a5,16(s0)
    80008dd2:	6522                	ld	a0,8(sp)
    80008dd4:	d3e5                	beqz	a5,80008db4 <fflush+0x1a>
    80008dd6:	b7e5                	j	80008dbe <fflush+0x24>
    80008dd8:	00000597          	auipc	a1,0x0
    80008ddc:	f8c58593          	addi	a1,a1,-116 # 80008d64 <_fflush_r>
    80008de0:	8901b503          	ld	a0,-1904(gp) # 80010170 <_global_impure_ptr>
    80008de4:	2730006f          	j	80009856 <_fwalk_reent>

Disassembly of section .text.__fp_lock:

0000000080008de8 <__fp_lock>:
    80008de8:	4501                	li	a0,0
    80008dea:	8082                	ret

Disassembly of section .text._cleanup_r:

0000000080008dec <_cleanup_r>:
    80008dec:	00004597          	auipc	a1,0x4
    80008df0:	55a58593          	addi	a1,a1,1370 # 8000d346 <_fclose_r>
    80008df4:	2630006f          	j	80009856 <_fwalk_reent>

Disassembly of section .text.__fp_unlock:

0000000080008df8 <__fp_unlock>:
    80008df8:	4501                	li	a0,0
    80008dfa:	8082                	ret

Disassembly of section .text.__sinit.part.0:

0000000080008dfc <__sinit.part.0>:
    80008dfc:	7139                	addi	sp,sp,-64
    80008dfe:	fc06                	sd	ra,56(sp)
    80008e00:	f822                	sd	s0,48(sp)
    80008e02:	f426                	sd	s1,40(sp)
    80008e04:	f04a                	sd	s2,32(sp)
    80008e06:	ec4e                	sd	s3,24(sp)
    80008e08:	e852                	sd	s4,16(sp)
    80008e0a:	e456                	sd	s5,8(sp)
    80008e0c:	e05a                	sd	s6,0(sp)
    80008e0e:	6500                	ld	s0,8(a0)
    80008e10:	00000717          	auipc	a4,0x0
    80008e14:	fdc70713          	addi	a4,a4,-36 # 80008dec <_cleanup_r>
    80008e18:	ed38                	sd	a4,88(a0)
    80008e1a:	53850793          	addi	a5,a0,1336
    80008e1e:	470d                	li	a4,3
    80008e20:	52e52423          	sw	a4,1320(a0)
    80008e24:	52f53823          	sd	a5,1328(a0)
    80008e28:	52053023          	sd	zero,1312(a0)
    80008e2c:	4791                	li	a5,4
    80008e2e:	892a                	mv	s2,a0
    80008e30:	c81c                	sw	a5,16(s0)
    80008e32:	4621                	li	a2,8
    80008e34:	4581                	li	a1,0
    80008e36:	00043023          	sd	zero,0(s0)
    80008e3a:	00043423          	sd	zero,8(s0)
    80008e3e:	0a042623          	sw	zero,172(s0)
    80008e42:	00043c23          	sd	zero,24(s0)
    80008e46:	02042023          	sw	zero,32(s0)
    80008e4a:	02042423          	sw	zero,40(s0)
    80008e4e:	0a440513          	addi	a0,s0,164
    80008e52:	acff90ef          	jal	ra,80002920 <memset>
    80008e56:	01093483          	ld	s1,16(s2)
    80008e5a:	00004b17          	auipc	s6,0x4
    80008e5e:	1a2b0b13          	addi	s6,s6,418 # 8000cffc <__sread>
    80008e62:	00004a97          	auipc	s5,0x4
    80008e66:	1d6a8a93          	addi	s5,s5,470 # 8000d038 <__swrite>
    80008e6a:	00004a17          	auipc	s4,0x4
    80008e6e:	222a0a13          	addi	s4,s4,546 # 8000d08c <__sseek>
    80008e72:	00004997          	auipc	s3,0x4
    80008e76:	26c98993          	addi	s3,s3,620 # 8000d0de <__sclose>
    80008e7a:	67c1                	lui	a5,0x10
    80008e7c:	03643c23          	sd	s6,56(s0)
    80008e80:	05543023          	sd	s5,64(s0)
    80008e84:	05443423          	sd	s4,72(s0)
    80008e88:	05343823          	sd	s3,80(s0)
    80008e8c:	f800                	sd	s0,48(s0)
    80008e8e:	07a5                	addi	a5,a5,9 # 10009 <_tbss_end+0xffc5>
    80008e90:	c89c                	sw	a5,16(s1)
    80008e92:	4621                	li	a2,8
    80008e94:	4581                	li	a1,0
    80008e96:	0004b023          	sd	zero,0(s1)
    80008e9a:	0004b423          	sd	zero,8(s1)
    80008e9e:	0a04a623          	sw	zero,172(s1)
    80008ea2:	0004bc23          	sd	zero,24(s1)
    80008ea6:	0204a023          	sw	zero,32(s1)
    80008eaa:	0204a423          	sw	zero,40(s1)
    80008eae:	0a448513          	addi	a0,s1,164
    80008eb2:	a6ff90ef          	jal	ra,80002920 <memset>
    80008eb6:	01893403          	ld	s0,24(s2)
    80008eba:	000207b7          	lui	a5,0x20
    80008ebe:	0364bc23          	sd	s6,56(s1)
    80008ec2:	0554b023          	sd	s5,64(s1)
    80008ec6:	0544b423          	sd	s4,72(s1)
    80008eca:	0534b823          	sd	s3,80(s1)
    80008ece:	f884                	sd	s1,48(s1)
    80008ed0:	07c9                	addi	a5,a5,18 # 20012 <_tbss_end+0x1ffce>
    80008ed2:	c81c                	sw	a5,16(s0)
    80008ed4:	00043023          	sd	zero,0(s0)
    80008ed8:	00043423          	sd	zero,8(s0)
    80008edc:	0a042623          	sw	zero,172(s0)
    80008ee0:	00043c23          	sd	zero,24(s0)
    80008ee4:	02042023          	sw	zero,32(s0)
    80008ee8:	02042423          	sw	zero,40(s0)
    80008eec:	0a440513          	addi	a0,s0,164
    80008ef0:	4621                	li	a2,8
    80008ef2:	4581                	li	a1,0
    80008ef4:	a2df90ef          	jal	ra,80002920 <memset>
    80008ef8:	70e2                	ld	ra,56(sp)
    80008efa:	03643c23          	sd	s6,56(s0)
    80008efe:	05543023          	sd	s5,64(s0)
    80008f02:	05443423          	sd	s4,72(s0)
    80008f06:	05343823          	sd	s3,80(s0)
    80008f0a:	f800                	sd	s0,48(s0)
    80008f0c:	7442                	ld	s0,48(sp)
    80008f0e:	4785                	li	a5,1
    80008f10:	04f92823          	sw	a5,80(s2)
    80008f14:	74a2                	ld	s1,40(sp)
    80008f16:	7902                	ld	s2,32(sp)
    80008f18:	69e2                	ld	s3,24(sp)
    80008f1a:	6a42                	ld	s4,16(sp)
    80008f1c:	6aa2                	ld	s5,8(sp)
    80008f1e:	6b02                	ld	s6,0(sp)
    80008f20:	6121                	addi	sp,sp,64
    80008f22:	8082                	ret

Disassembly of section .text.__sfmoreglue:

0000000080008f24 <__sfmoreglue>:
    80008f24:	1101                	addi	sp,sp,-32
    80008f26:	e426                	sd	s1,8(sp)
    80008f28:	0b000793          	li	a5,176
    80008f2c:	fff5849b          	addiw	s1,a1,-1
    80008f30:	02f484b3          	mul	s1,s1,a5
    80008f34:	e04a                	sd	s2,0(sp)
    80008f36:	892e                	mv	s2,a1
    80008f38:	e822                	sd	s0,16(sp)
    80008f3a:	ec06                	sd	ra,24(sp)
    80008f3c:	0c848593          	addi	a1,s1,200
    80008f40:	fb2fc0ef          	jal	ra,800056f2 <_malloc_r>
    80008f44:	842a                	mv	s0,a0
    80008f46:	cd01                	beqz	a0,80008f5e <__sfmoreglue+0x3a>
    80008f48:	0561                	addi	a0,a0,24
    80008f4a:	00043023          	sd	zero,0(s0)
    80008f4e:	01242423          	sw	s2,8(s0)
    80008f52:	e808                	sd	a0,16(s0)
    80008f54:	0b048613          	addi	a2,s1,176
    80008f58:	4581                	li	a1,0
    80008f5a:	9c7f90ef          	jal	ra,80002920 <memset>
    80008f5e:	60e2                	ld	ra,24(sp)
    80008f60:	8522                	mv	a0,s0
    80008f62:	6442                	ld	s0,16(sp)
    80008f64:	64a2                	ld	s1,8(sp)
    80008f66:	6902                	ld	s2,0(sp)
    80008f68:	6105                	addi	sp,sp,32
    80008f6a:	8082                	ret

Disassembly of section .text.__sfp:

0000000080008f6c <__sfp>:
    80008f6c:	7179                	addi	sp,sp,-48
    80008f6e:	ec26                	sd	s1,24(sp)
    80008f70:	8901b483          	ld	s1,-1904(gp) # 80010170 <_global_impure_ptr>
    80008f74:	48bc                	lw	a5,80(s1)
    80008f76:	e84a                	sd	s2,16(sp)
    80008f78:	f406                	sd	ra,40(sp)
    80008f7a:	f022                	sd	s0,32(sp)
    80008f7c:	e44e                	sd	s3,8(sp)
    80008f7e:	892a                	mv	s2,a0
    80008f80:	cfbd                	beqz	a5,80008ffe <__sfp+0x92>
    80008f82:	52048493          	addi	s1,s1,1312
    80008f86:	0b000993          	li	s3,176
    80008f8a:	4498                	lw	a4,8(s1)
    80008f8c:	6880                	ld	s0,16(s1)
    80008f8e:	06e05463          	blez	a4,80008ff6 <__sfp+0x8a>
    80008f92:	1702                	slli	a4,a4,0x20
    80008f94:	9301                	srli	a4,a4,0x20
    80008f96:	03370733          	mul	a4,a4,s3
    80008f9a:	9722                	add	a4,a4,s0
    80008f9c:	a029                	j	80008fa6 <__sfp+0x3a>
    80008f9e:	0b040413          	addi	s0,s0,176
    80008fa2:	04e40a63          	beq	s0,a4,80008ff6 <__sfp+0x8a>
    80008fa6:	01041783          	lh	a5,16(s0)
    80008faa:	fbf5                	bnez	a5,80008f9e <__sfp+0x32>
    80008fac:	77c1                	lui	a5,0xffff0
    80008fae:	0785                	addi	a5,a5,1 # ffffffffffff0001 <_end+0xffffffff7cfdedc1>
    80008fb0:	c81c                	sw	a5,16(s0)
    80008fb2:	0a042623          	sw	zero,172(s0)
    80008fb6:	00043023          	sd	zero,0(s0)
    80008fba:	00043423          	sd	zero,8(s0)
    80008fbe:	00043c23          	sd	zero,24(s0)
    80008fc2:	02042023          	sw	zero,32(s0)
    80008fc6:	02042423          	sw	zero,40(s0)
    80008fca:	4621                	li	a2,8
    80008fcc:	4581                	li	a1,0
    80008fce:	0a440513          	addi	a0,s0,164
    80008fd2:	94ff90ef          	jal	ra,80002920 <memset>
    80008fd6:	04043c23          	sd	zero,88(s0)
    80008fda:	06042023          	sw	zero,96(s0)
    80008fde:	06043c23          	sd	zero,120(s0)
    80008fe2:	08042023          	sw	zero,128(s0)
    80008fe6:	70a2                	ld	ra,40(sp)
    80008fe8:	8522                	mv	a0,s0
    80008fea:	7402                	ld	s0,32(sp)
    80008fec:	64e2                	ld	s1,24(sp)
    80008fee:	6942                	ld	s2,16(sp)
    80008ff0:	69a2                	ld	s3,8(sp)
    80008ff2:	6145                	addi	sp,sp,48
    80008ff4:	8082                	ret
    80008ff6:	6080                	ld	s0,0(s1)
    80008ff8:	c419                	beqz	s0,80009006 <__sfp+0x9a>
    80008ffa:	84a2                	mv	s1,s0
    80008ffc:	b779                	j	80008f8a <__sfp+0x1e>
    80008ffe:	8526                	mv	a0,s1
    80009000:	dfdff0ef          	jal	ra,80008dfc <__sinit.part.0>
    80009004:	bfbd                	j	80008f82 <__sfp+0x16>
    80009006:	2d800593          	li	a1,728
    8000900a:	854a                	mv	a0,s2
    8000900c:	ee6fc0ef          	jal	ra,800056f2 <_malloc_r>
    80009010:	842a                	mv	s0,a0
    80009012:	cd19                	beqz	a0,80009030 <__sfp+0xc4>
    80009014:	0561                	addi	a0,a0,24
    80009016:	4791                	li	a5,4
    80009018:	00043023          	sd	zero,0(s0)
    8000901c:	c41c                	sw	a5,8(s0)
    8000901e:	e808                	sd	a0,16(s0)
    80009020:	2c000613          	li	a2,704
    80009024:	4581                	li	a1,0
    80009026:	8fbf90ef          	jal	ra,80002920 <memset>
    8000902a:	e080                	sd	s0,0(s1)
    8000902c:	84a2                	mv	s1,s0
    8000902e:	bfb1                	j	80008f8a <__sfp+0x1e>
    80009030:	0004b023          	sd	zero,0(s1)
    80009034:	47b1                	li	a5,12
    80009036:	00f92023          	sw	a5,0(s2)
    8000903a:	b775                	j	80008fe6 <__sfp+0x7a>

Disassembly of section .text._cleanup:

000000008000903c <_cleanup>:
    8000903c:	00004597          	auipc	a1,0x4
    80009040:	30a58593          	addi	a1,a1,778 # 8000d346 <_fclose_r>
    80009044:	8901b503          	ld	a0,-1904(gp) # 80010170 <_global_impure_ptr>
    80009048:	00f0006f          	j	80009856 <_fwalk_reent>

Disassembly of section .text.__sinit:

000000008000904c <__sinit>:
    8000904c:	493c                	lw	a5,80(a0)
    8000904e:	c391                	beqz	a5,80009052 <__sinit+0x6>
    80009050:	8082                	ret
    80009052:	b36d                	j	80008dfc <__sinit.part.0>

Disassembly of section .text.__sfp_lock_acquire:

0000000080009054 <__sfp_lock_acquire>:
    80009054:	8082                	ret

Disassembly of section .text.__sfp_lock_release:

0000000080009056 <__sfp_lock_release>:
    80009056:	8082                	ret

Disassembly of section .text.__sinit_lock_acquire:

0000000080009058 <__sinit_lock_acquire>:
    80009058:	8082                	ret

Disassembly of section .text.__sinit_lock_release:

000000008000905a <__sinit_lock_release>:
    8000905a:	8082                	ret

Disassembly of section .text.__fp_lock_all:

000000008000905c <__fp_lock_all>:
    8000905c:	00000597          	auipc	a1,0x0
    80009060:	d8c58593          	addi	a1,a1,-628 # 80008de8 <__fp_lock>
    80009064:	8a01b503          	ld	a0,-1888(gp) # 80010180 <_impure_ptr>
    80009068:	7720006f          	j	800097da <_fwalk>

Disassembly of section .text.__fp_unlock_all:

000000008000906c <__fp_unlock_all>:
    8000906c:	00000597          	auipc	a1,0x0
    80009070:	d8c58593          	addi	a1,a1,-628 # 80008df8 <__fp_unlock>
    80009074:	8a01b503          	ld	a0,-1888(gp) # 80010180 <_impure_ptr>
    80009078:	7620006f          	j	800097da <_fwalk>

Disassembly of section .text.__fputwc:

000000008000907c <__fputwc>:
    8000907c:	7179                	addi	sp,sp,-48
    8000907e:	f022                	sd	s0,32(sp)
    80009080:	ec26                	sd	s1,24(sp)
    80009082:	e84a                	sd	s2,16(sp)
    80009084:	f406                	sd	ra,40(sp)
    80009086:	892a                	mv	s2,a0
    80009088:	84ae                	mv	s1,a1
    8000908a:	8432                	mv	s0,a2
    8000908c:	23d020ef          	jal	ra,8000bac8 <__locale_mb_cur_max>
    80009090:	4785                	li	a5,1
    80009092:	00f51b63          	bne	a0,a5,800090a8 <__fputwc+0x2c>
    80009096:	fff4879b          	addiw	a5,s1,-1
    8000909a:	0fe00713          	li	a4,254
    8000909e:	00f76563          	bltu	a4,a5,800090a8 <__fputwc+0x2c>
    800090a2:	00910423          	sb	s1,8(sp)
    800090a6:	a821                	j	800090be <__fputwc+0x42>
    800090a8:	0a440693          	addi	a3,s0,164
    800090ac:	8626                	mv	a2,s1
    800090ae:	002c                	addi	a1,sp,8
    800090b0:	854a                	mv	a0,s2
    800090b2:	0b0040ef          	jal	ra,8000d162 <_wcrtomb_r>
    800090b6:	57fd                	li	a5,-1
    800090b8:	04f50d63          	beq	a0,a5,80009112 <__fputwc+0x96>
    800090bc:	c50d                	beqz	a0,800090e6 <__fputwc+0x6a>
    800090be:	445c                	lw	a5,12(s0)
    800090c0:	00814583          	lbu	a1,8(sp)
    800090c4:	fff7871b          	addiw	a4,a5,-1
    800090c8:	c458                	sw	a4,12(s0)
    800090ca:	00075863          	bgez	a4,800090da <__fputwc+0x5e>
    800090ce:	541c                	lw	a5,40(s0)
    800090d0:	02f74363          	blt	a4,a5,800090f6 <__fputwc+0x7a>
    800090d4:	47a9                	li	a5,10
    800090d6:	02f58063          	beq	a1,a5,800090f6 <__fputwc+0x7a>
    800090da:	601c                	ld	a5,0(s0)
    800090dc:	00178713          	addi	a4,a5,1
    800090e0:	e018                	sd	a4,0(s0)
    800090e2:	00b78023          	sb	a1,0(a5)
    800090e6:	70a2                	ld	ra,40(sp)
    800090e8:	7402                	ld	s0,32(sp)
    800090ea:	6942                	ld	s2,16(sp)
    800090ec:	0004851b          	sext.w	a0,s1
    800090f0:	64e2                	ld	s1,24(sp)
    800090f2:	6145                	addi	sp,sp,48
    800090f4:	8082                	ret
    800090f6:	8622                	mv	a2,s0
    800090f8:	854a                	mv	a0,s2
    800090fa:	911ff0ef          	jal	ra,80008a0a <__swbuf_r>
    800090fe:	57fd                	li	a5,-1
    80009100:	fef513e3          	bne	a0,a5,800090e6 <__fputwc+0x6a>
    80009104:	557d                	li	a0,-1
    80009106:	70a2                	ld	ra,40(sp)
    80009108:	7402                	ld	s0,32(sp)
    8000910a:	64e2                	ld	s1,24(sp)
    8000910c:	6942                	ld	s2,16(sp)
    8000910e:	6145                	addi	sp,sp,48
    80009110:	8082                	ret
    80009112:	01045783          	lhu	a5,16(s0)
    80009116:	557d                	li	a0,-1
    80009118:	0407e793          	ori	a5,a5,64
    8000911c:	00f41823          	sh	a5,16(s0)
    80009120:	b7dd                	j	80009106 <__fputwc+0x8a>

Disassembly of section .text._fputwc_r:

0000000080009122 <_fputwc_r>:
    80009122:	01061783          	lh	a5,16(a2)
    80009126:	03279713          	slli	a4,a5,0x32
    8000912a:	00074c63          	bltz	a4,80009142 <_fputwc_r+0x20>
    8000912e:	0ac62703          	lw	a4,172(a2)
    80009132:	6689                	lui	a3,0x2
    80009134:	8fd5                	or	a5,a5,a3
    80009136:	6689                	lui	a3,0x2
    80009138:	8f55                	or	a4,a4,a3
    8000913a:	00f61823          	sh	a5,16(a2)
    8000913e:	0ae62623          	sw	a4,172(a2)
    80009142:	bf2d                	j	8000907c <__fputwc>

Disassembly of section .text.fputwc:

0000000080009144 <fputwc>:
    80009144:	1101                	addi	sp,sp,-32
    80009146:	e822                	sd	s0,16(sp)
    80009148:	ec06                	sd	ra,24(sp)
    8000914a:	8a01b403          	ld	s0,-1888(gp) # 80010180 <_impure_ptr>
    8000914e:	862e                	mv	a2,a1
    80009150:	85aa                	mv	a1,a0
    80009152:	c019                	beqz	s0,80009158 <fputwc+0x14>
    80009154:	483c                	lw	a5,80(s0)
    80009156:	c795                	beqz	a5,80009182 <fputwc+0x3e>
    80009158:	01061783          	lh	a5,16(a2)
    8000915c:	03279713          	slli	a4,a5,0x32
    80009160:	00074c63          	bltz	a4,80009178 <fputwc+0x34>
    80009164:	0ac62703          	lw	a4,172(a2)
    80009168:	6689                	lui	a3,0x2
    8000916a:	8fd5                	or	a5,a5,a3
    8000916c:	6689                	lui	a3,0x2
    8000916e:	8f55                	or	a4,a4,a3
    80009170:	00f61823          	sh	a5,16(a2)
    80009174:	0ae62623          	sw	a4,172(a2)
    80009178:	8522                	mv	a0,s0
    8000917a:	6442                	ld	s0,16(sp)
    8000917c:	60e2                	ld	ra,24(sp)
    8000917e:	6105                	addi	sp,sp,32
    80009180:	bdf5                	j	8000907c <__fputwc>
    80009182:	e02a                	sd	a0,0(sp)
    80009184:	8522                	mv	a0,s0
    80009186:	e432                	sd	a2,8(sp)
    80009188:	ec5ff0ef          	jal	ra,8000904c <__sinit>
    8000918c:	6622                	ld	a2,8(sp)
    8000918e:	6582                	ld	a1,0(sp)
    80009190:	b7e1                	j	80009158 <fputwc+0x14>

Disassembly of section .text._malloc_trim_r:

0000000080009192 <_malloc_trim_r>:
    80009192:	7179                	addi	sp,sp,-48
    80009194:	f022                	sd	s0,32(sp)
    80009196:	ec26                	sd	s1,24(sp)
    80009198:	e84a                	sd	s2,16(sp)
    8000919a:	e44e                	sd	s3,8(sp)
    8000919c:	e052                	sd	s4,0(sp)
    8000919e:	89ae                	mv	s3,a1
    800091a0:	f406                	sd	ra,40(sp)
    800091a2:	00006a17          	auipc	s4,0x6
    800091a6:	586a0a13          	addi	s4,s4,1414 # 8000f728 <__malloc_av_>
    800091aa:	892a                	mv	s2,a0
    800091ac:	c0dfc0ef          	jal	ra,80005db8 <__malloc_lock>
    800091b0:	010a3703          	ld	a4,16(s4)
    800091b4:	6785                	lui	a5,0x1
    800091b6:	fdf78413          	addi	s0,a5,-33 # fdf <_tbss_end+0xf9b>
    800091ba:	6704                	ld	s1,8(a4)
    800091bc:	98f1                	andi	s1,s1,-4
    800091be:	9426                	add	s0,s0,s1
    800091c0:	41340433          	sub	s0,s0,s3
    800091c4:	8031                	srli	s0,s0,0xc
    800091c6:	147d                	addi	s0,s0,-1
    800091c8:	0432                	slli	s0,s0,0xc
    800091ca:	00f44b63          	blt	s0,a5,800091e0 <_malloc_trim_r+0x4e>
    800091ce:	4581                	li	a1,0
    800091d0:	854a                	mv	a0,s2
    800091d2:	cb7fc0ef          	jal	ra,80005e88 <_sbrk_r>
    800091d6:	010a3783          	ld	a5,16(s4)
    800091da:	97a6                	add	a5,a5,s1
    800091dc:	00f50e63          	beq	a0,a5,800091f8 <_malloc_trim_r+0x66>
    800091e0:	854a                	mv	a0,s2
    800091e2:	bd9fc0ef          	jal	ra,80005dba <__malloc_unlock>
    800091e6:	70a2                	ld	ra,40(sp)
    800091e8:	7402                	ld	s0,32(sp)
    800091ea:	64e2                	ld	s1,24(sp)
    800091ec:	6942                	ld	s2,16(sp)
    800091ee:	69a2                	ld	s3,8(sp)
    800091f0:	6a02                	ld	s4,0(sp)
    800091f2:	4501                	li	a0,0
    800091f4:	6145                	addi	sp,sp,48
    800091f6:	8082                	ret
    800091f8:	408005b3          	neg	a1,s0
    800091fc:	854a                	mv	a0,s2
    800091fe:	c8bfc0ef          	jal	ra,80005e88 <_sbrk_r>
    80009202:	57fd                	li	a5,-1
    80009204:	02f50963          	beq	a0,a5,80009236 <_malloc_trim_r+0xa4>
    80009208:	91818713          	addi	a4,gp,-1768 # 800101f8 <__malloc_current_mallinfo>
    8000920c:	431c                	lw	a5,0(a4)
    8000920e:	010a3683          	ld	a3,16(s4)
    80009212:	8c81                	sub	s1,s1,s0
    80009214:	0014e493          	ori	s1,s1,1
    80009218:	9f81                	subw	a5,a5,s0
    8000921a:	854a                	mv	a0,s2
    8000921c:	e684                	sd	s1,8(a3)
    8000921e:	c31c                	sw	a5,0(a4)
    80009220:	b9bfc0ef          	jal	ra,80005dba <__malloc_unlock>
    80009224:	70a2                	ld	ra,40(sp)
    80009226:	7402                	ld	s0,32(sp)
    80009228:	64e2                	ld	s1,24(sp)
    8000922a:	6942                	ld	s2,16(sp)
    8000922c:	69a2                	ld	s3,8(sp)
    8000922e:	6a02                	ld	s4,0(sp)
    80009230:	4505                	li	a0,1
    80009232:	6145                	addi	sp,sp,48
    80009234:	8082                	ret
    80009236:	4581                	li	a1,0
    80009238:	854a                	mv	a0,s2
    8000923a:	c4ffc0ef          	jal	ra,80005e88 <_sbrk_r>
    8000923e:	010a3703          	ld	a4,16(s4)
    80009242:	46fd                	li	a3,31
    80009244:	40e507b3          	sub	a5,a0,a4
    80009248:	f8f6dce3          	bge	a3,a5,800091e0 <_malloc_trim_r+0x4e>
    8000924c:	8a81b683          	ld	a3,-1880(gp) # 80010188 <__malloc_sbrk_base>
    80009250:	8d15                	sub	a0,a0,a3
    80009252:	0017e793          	ori	a5,a5,1
    80009256:	90a1ac23          	sw	a0,-1768(gp) # 800101f8 <__malloc_current_mallinfo>
    8000925a:	e71c                	sd	a5,8(a4)
    8000925c:	b751                	j	800091e0 <_malloc_trim_r+0x4e>

Disassembly of section .text._free_r:

000000008000925e <_free_r>:
    8000925e:	12058463          	beqz	a1,80009386 <_free_r+0x128>
    80009262:	1101                	addi	sp,sp,-32
    80009264:	e822                	sd	s0,16(sp)
    80009266:	e426                	sd	s1,8(sp)
    80009268:	842e                	mv	s0,a1
    8000926a:	84aa                	mv	s1,a0
    8000926c:	ec06                	sd	ra,24(sp)
    8000926e:	b4bfc0ef          	jal	ra,80005db8 <__malloc_lock>
    80009272:	ff843583          	ld	a1,-8(s0)
    80009276:	ff040713          	addi	a4,s0,-16
    8000927a:	00006517          	auipc	a0,0x6
    8000927e:	4ae50513          	addi	a0,a0,1198 # 8000f728 <__malloc_av_>
    80009282:	ffe5f793          	andi	a5,a1,-2
    80009286:	00f70633          	add	a2,a4,a5
    8000928a:	6614                	ld	a3,8(a2)
    8000928c:	01053803          	ld	a6,16(a0)
    80009290:	9af1                	andi	a3,a3,-4
    80009292:	12c80c63          	beq	a6,a2,800093ca <_free_r+0x16c>
    80009296:	e614                	sd	a3,8(a2)
    80009298:	8985                	andi	a1,a1,1
    8000929a:	00d60833          	add	a6,a2,a3
    8000929e:	e1c1                	bnez	a1,8000931e <_free_r+0xc0>
    800092a0:	ff043303          	ld	t1,-16(s0)
    800092a4:	00883583          	ld	a1,8(a6)
    800092a8:	00006897          	auipc	a7,0x6
    800092ac:	49088893          	addi	a7,a7,1168 # 8000f738 <__malloc_av_+0x10>
    800092b0:	40670733          	sub	a4,a4,t1
    800092b4:	01073803          	ld	a6,16(a4)
    800092b8:	979a                	add	a5,a5,t1
    800092ba:	8985                	andi	a1,a1,1
    800092bc:	0f180b63          	beq	a6,a7,800093b2 <_free_r+0x154>
    800092c0:	01873303          	ld	t1,24(a4)
    800092c4:	00683c23          	sd	t1,24(a6)
    800092c8:	01033823          	sd	a6,16(t1)
    800092cc:	12058863          	beqz	a1,800093fc <_free_r+0x19e>
    800092d0:	0017e693          	ori	a3,a5,1
    800092d4:	e714                	sd	a3,8(a4)
    800092d6:	e21c                	sd	a5,0(a2)
    800092d8:	1ff00693          	li	a3,511
    800092dc:	04f6ee63          	bltu	a3,a5,80009338 <_free_r+0xda>
    800092e0:	838d                	srli	a5,a5,0x3
    800092e2:	0017869b          	addiw	a3,a5,1
    800092e6:	0016969b          	slliw	a3,a3,0x1
    800092ea:	068e                	slli	a3,a3,0x3
    800092ec:	00853803          	ld	a6,8(a0)
    800092f0:	96aa                	add	a3,a3,a0
    800092f2:	628c                	ld	a1,0(a3)
    800092f4:	4027d61b          	sraiw	a2,a5,0x2
    800092f8:	4785                	li	a5,1
    800092fa:	00c797b3          	sll	a5,a5,a2
    800092fe:	0107e7b3          	or	a5,a5,a6
    80009302:	ff068613          	addi	a2,a3,-16 # 1ff0 <_tbss_end+0x1fac>
    80009306:	ef10                	sd	a2,24(a4)
    80009308:	eb0c                	sd	a1,16(a4)
    8000930a:	e51c                	sd	a5,8(a0)
    8000930c:	e298                	sd	a4,0(a3)
    8000930e:	ed98                	sd	a4,24(a1)
    80009310:	6442                	ld	s0,16(sp)
    80009312:	60e2                	ld	ra,24(sp)
    80009314:	8526                	mv	a0,s1
    80009316:	64a2                	ld	s1,8(sp)
    80009318:	6105                	addi	sp,sp,32
    8000931a:	aa1fc06f          	j	80005dba <__malloc_unlock>
    8000931e:	00883583          	ld	a1,8(a6)
    80009322:	8985                	andi	a1,a1,1
    80009324:	c1b5                	beqz	a1,80009388 <_free_r+0x12a>
    80009326:	0017e693          	ori	a3,a5,1
    8000932a:	fed43c23          	sd	a3,-8(s0)
    8000932e:	e21c                	sd	a5,0(a2)
    80009330:	1ff00693          	li	a3,511
    80009334:	faf6f6e3          	bgeu	a3,a5,800092e0 <_free_r+0x82>
    80009338:	0097d693          	srli	a3,a5,0x9
    8000933c:	4611                	li	a2,4
    8000933e:	0cd66163          	bltu	a2,a3,80009400 <_free_r+0x1a2>
    80009342:	0067d693          	srli	a3,a5,0x6
    80009346:	0396859b          	addiw	a1,a3,57
    8000934a:	0015959b          	slliw	a1,a1,0x1
    8000934e:	0386861b          	addiw	a2,a3,56
    80009352:	058e                	slli	a1,a1,0x3
    80009354:	95aa                	add	a1,a1,a0
    80009356:	6194                	ld	a3,0(a1)
    80009358:	15c1                	addi	a1,a1,-16
    8000935a:	00d59663          	bne	a1,a3,80009366 <_free_r+0x108>
    8000935e:	a0f5                	j	8000944a <_free_r+0x1ec>
    80009360:	6a94                	ld	a3,16(a3)
    80009362:	00d58663          	beq	a1,a3,8000936e <_free_r+0x110>
    80009366:	6690                	ld	a2,8(a3)
    80009368:	9a71                	andi	a2,a2,-4
    8000936a:	fec7ebe3          	bltu	a5,a2,80009360 <_free_r+0x102>
    8000936e:	6e8c                	ld	a1,24(a3)
    80009370:	ef0c                	sd	a1,24(a4)
    80009372:	eb14                	sd	a3,16(a4)
    80009374:	6442                	ld	s0,16(sp)
    80009376:	60e2                	ld	ra,24(sp)
    80009378:	e998                	sd	a4,16(a1)
    8000937a:	8526                	mv	a0,s1
    8000937c:	64a2                	ld	s1,8(sp)
    8000937e:	ee98                	sd	a4,24(a3)
    80009380:	6105                	addi	sp,sp,32
    80009382:	a39fc06f          	j	80005dba <__malloc_unlock>
    80009386:	8082                	ret
    80009388:	97b6                	add	a5,a5,a3
    8000938a:	00006897          	auipc	a7,0x6
    8000938e:	3ae88893          	addi	a7,a7,942 # 8000f738 <__malloc_av_+0x10>
    80009392:	6a14                	ld	a3,16(a2)
    80009394:	09168f63          	beq	a3,a7,80009432 <_free_r+0x1d4>
    80009398:	01863803          	ld	a6,24(a2)
    8000939c:	0017e593          	ori	a1,a5,1
    800093a0:	00f70633          	add	a2,a4,a5
    800093a4:	0106bc23          	sd	a6,24(a3)
    800093a8:	00d83823          	sd	a3,16(a6)
    800093ac:	e70c                	sd	a1,8(a4)
    800093ae:	e21c                	sd	a5,0(a2)
    800093b0:	b725                	j	800092d8 <_free_r+0x7a>
    800093b2:	e9e5                	bnez	a1,800094a2 <_free_r+0x244>
    800093b4:	6a0c                	ld	a1,16(a2)
    800093b6:	6e10                	ld	a2,24(a2)
    800093b8:	96be                	add	a3,a3,a5
    800093ba:	0016e793          	ori	a5,a3,1
    800093be:	ed90                	sd	a2,24(a1)
    800093c0:	ea0c                	sd	a1,16(a2)
    800093c2:	e71c                	sd	a5,8(a4)
    800093c4:	9736                	add	a4,a4,a3
    800093c6:	e314                	sd	a3,0(a4)
    800093c8:	b7a1                	j	80009310 <_free_r+0xb2>
    800093ca:	8985                	andi	a1,a1,1
    800093cc:	96be                	add	a3,a3,a5
    800093ce:	e989                	bnez	a1,800093e0 <_free_r+0x182>
    800093d0:	ff043583          	ld	a1,-16(s0)
    800093d4:	8f0d                	sub	a4,a4,a1
    800093d6:	6f1c                	ld	a5,24(a4)
    800093d8:	6b10                	ld	a2,16(a4)
    800093da:	96ae                	add	a3,a3,a1
    800093dc:	ee1c                	sd	a5,24(a2)
    800093de:	eb90                	sd	a2,16(a5)
    800093e0:	0016e793          	ori	a5,a3,1
    800093e4:	e71c                	sd	a5,8(a4)
    800093e6:	e918                	sd	a4,16(a0)
    800093e8:	8b01b783          	ld	a5,-1872(gp) # 80010190 <__malloc_trim_threshold>
    800093ec:	f2f6e2e3          	bltu	a3,a5,80009310 <_free_r+0xb2>
    800093f0:	8d81b583          	ld	a1,-1832(gp) # 800101b8 <__malloc_top_pad>
    800093f4:	8526                	mv	a0,s1
    800093f6:	d9dff0ef          	jal	ra,80009192 <_malloc_trim_r>
    800093fa:	bf19                	j	80009310 <_free_r+0xb2>
    800093fc:	97b6                	add	a5,a5,a3
    800093fe:	bf51                	j	80009392 <_free_r+0x134>
    80009400:	4651                	li	a2,20
    80009402:	02d67063          	bgeu	a2,a3,80009422 <_free_r+0x1c4>
    80009406:	05400613          	li	a2,84
    8000940a:	04d66b63          	bltu	a2,a3,80009460 <_free_r+0x202>
    8000940e:	00c7d693          	srli	a3,a5,0xc
    80009412:	06f6859b          	addiw	a1,a3,111
    80009416:	0015959b          	slliw	a1,a1,0x1
    8000941a:	06e6861b          	addiw	a2,a3,110
    8000941e:	058e                	slli	a1,a1,0x3
    80009420:	bf15                	j	80009354 <_free_r+0xf6>
    80009422:	05c6859b          	addiw	a1,a3,92
    80009426:	0015959b          	slliw	a1,a1,0x1
    8000942a:	05b6861b          	addiw	a2,a3,91
    8000942e:	058e                	slli	a1,a1,0x3
    80009430:	b715                	j	80009354 <_free_r+0xf6>
    80009432:	f518                	sd	a4,40(a0)
    80009434:	f118                	sd	a4,32(a0)
    80009436:	0017e693          	ori	a3,a5,1
    8000943a:	01173c23          	sd	a7,24(a4)
    8000943e:	01173823          	sd	a7,16(a4)
    80009442:	e714                	sd	a3,8(a4)
    80009444:	973e                	add	a4,a4,a5
    80009446:	e31c                	sd	a5,0(a4)
    80009448:	b5e1                	j	80009310 <_free_r+0xb2>
    8000944a:	00853803          	ld	a6,8(a0)
    8000944e:	4026561b          	sraiw	a2,a2,0x2
    80009452:	4785                	li	a5,1
    80009454:	00c797b3          	sll	a5,a5,a2
    80009458:	0107e7b3          	or	a5,a5,a6
    8000945c:	e51c                	sd	a5,8(a0)
    8000945e:	bf09                	j	80009370 <_free_r+0x112>
    80009460:	15400613          	li	a2,340
    80009464:	00d66c63          	bltu	a2,a3,8000947c <_free_r+0x21e>
    80009468:	00f7d693          	srli	a3,a5,0xf
    8000946c:	0786859b          	addiw	a1,a3,120
    80009470:	0015959b          	slliw	a1,a1,0x1
    80009474:	0776861b          	addiw	a2,a3,119
    80009478:	058e                	slli	a1,a1,0x3
    8000947a:	bde9                	j	80009354 <_free_r+0xf6>
    8000947c:	55400613          	li	a2,1364
    80009480:	00d66c63          	bltu	a2,a3,80009498 <_free_r+0x23a>
    80009484:	0127d693          	srli	a3,a5,0x12
    80009488:	07d6859b          	addiw	a1,a3,125
    8000948c:	0015959b          	slliw	a1,a1,0x1
    80009490:	07c6861b          	addiw	a2,a3,124
    80009494:	058e                	slli	a1,a1,0x3
    80009496:	bd7d                	j	80009354 <_free_r+0xf6>
    80009498:	7f000593          	li	a1,2032
    8000949c:	07e00613          	li	a2,126
    800094a0:	bd55                	j	80009354 <_free_r+0xf6>
    800094a2:	0017e693          	ori	a3,a5,1
    800094a6:	e714                	sd	a3,8(a4)
    800094a8:	e21c                	sd	a5,0(a2)
    800094aa:	b59d                	j	80009310 <_free_r+0xb2>

Disassembly of section .text.__sfvwrite_r:

00000000800094ac <__sfvwrite_r>:
    800094ac:	6a1c                	ld	a5,16(a2)
    800094ae:	1a078a63          	beqz	a5,80009662 <__sfvwrite_r+0x1b6>
    800094b2:	01059703          	lh	a4,16(a1)
    800094b6:	711d                	addi	sp,sp,-96
    800094b8:	e8a2                	sd	s0,80(sp)
    800094ba:	f852                	sd	s4,48(sp)
    800094bc:	f05a                	sd	s6,32(sp)
    800094be:	ec86                	sd	ra,88(sp)
    800094c0:	e4a6                	sd	s1,72(sp)
    800094c2:	e0ca                	sd	s2,64(sp)
    800094c4:	fc4e                	sd	s3,56(sp)
    800094c6:	f456                	sd	s5,40(sp)
    800094c8:	ec5e                	sd	s7,24(sp)
    800094ca:	e862                	sd	s8,16(sp)
    800094cc:	e466                	sd	s9,8(sp)
    800094ce:	00877793          	andi	a5,a4,8
    800094d2:	8b32                	mv	s6,a2
    800094d4:	8a2a                	mv	s4,a0
    800094d6:	842e                	mv	s0,a1
    800094d8:	c3b5                	beqz	a5,8000953c <__sfvwrite_r+0x90>
    800094da:	6d9c                	ld	a5,24(a1)
    800094dc:	c3a5                	beqz	a5,8000953c <__sfvwrite_r+0x90>
    800094de:	00277793          	andi	a5,a4,2
    800094e2:	000b3483          	ld	s1,0(s6)
    800094e6:	cba5                	beqz	a5,80009556 <__sfvwrite_r+0xaa>
    800094e8:	603c                	ld	a5,64(s0)
    800094ea:	780c                	ld	a1,48(s0)
    800094ec:	80000ab7          	lui	s5,0x80000
    800094f0:	4981                	li	s3,0
    800094f2:	4901                	li	s2,0
    800094f4:	c00aca93          	xori	s5,s5,-1024
    800094f8:	864e                	mv	a2,s3
    800094fa:	8552                	mv	a0,s4
    800094fc:	02090a63          	beqz	s2,80009530 <__sfvwrite_r+0x84>
    80009500:	86ca                	mv	a3,s2
    80009502:	012af363          	bgeu	s5,s2,80009508 <__sfvwrite_r+0x5c>
    80009506:	86d6                	mv	a3,s5
    80009508:	2681                	sext.w	a3,a3
    8000950a:	9782                	jalr	a5
    8000950c:	14a05363          	blez	a0,80009652 <__sfvwrite_r+0x1a6>
    80009510:	010b3783          	ld	a5,16(s6)
    80009514:	99aa                	add	s3,s3,a0
    80009516:	40a90933          	sub	s2,s2,a0
    8000951a:	8f89                	sub	a5,a5,a0
    8000951c:	00fb3823          	sd	a5,16(s6)
    80009520:	10078663          	beqz	a5,8000962c <__sfvwrite_r+0x180>
    80009524:	603c                	ld	a5,64(s0)
    80009526:	780c                	ld	a1,48(s0)
    80009528:	864e                	mv	a2,s3
    8000952a:	8552                	mv	a0,s4
    8000952c:	fc091ae3          	bnez	s2,80009500 <__sfvwrite_r+0x54>
    80009530:	0004b983          	ld	s3,0(s1)
    80009534:	0084b903          	ld	s2,8(s1)
    80009538:	04c1                	addi	s1,s1,16
    8000953a:	bf7d                	j	800094f8 <__sfvwrite_r+0x4c>
    8000953c:	85a2                	mv	a1,s0
    8000953e:	8552                	mv	a0,s4
    80009540:	dc6ff0ef          	jal	ra,80008b06 <__swsetup_r>
    80009544:	10051d63          	bnez	a0,8000965e <__sfvwrite_r+0x1b2>
    80009548:	01041703          	lh	a4,16(s0)
    8000954c:	000b3483          	ld	s1,0(s6)
    80009550:	00277793          	andi	a5,a4,2
    80009554:	fbd1                	bnez	a5,800094e8 <__sfvwrite_r+0x3c>
    80009556:	00177793          	andi	a5,a4,1
    8000955a:	eba5                	bnez	a5,800095ca <__sfvwrite_r+0x11e>
    8000955c:	00c42b83          	lw	s7,12(s0)
    80009560:	601c                	ld	a5,0(s0)
    80009562:	80000ab7          	lui	s5,0x80000
    80009566:	4c01                	li	s8,0
    80009568:	4901                	li	s2,0
    8000956a:	fffaca93          	not	s5,s5
    8000956e:	853e                	mv	a0,a5
    80009570:	04090763          	beqz	s2,800095be <__sfvwrite_r+0x112>
    80009574:	20077693          	andi	a3,a4,512
    80009578:	12068963          	beqz	a3,800096aa <__sfvwrite_r+0x1fe>
    8000957c:	19797863          	bgeu	s2,s7,8000970c <__sfvwrite_r+0x260>
    80009580:	8cca                	mv	s9,s2
    80009582:	8bca                	mv	s7,s2
    80009584:	865e                	mv	a2,s7
    80009586:	85e2                	mv	a1,s8
    80009588:	f58fc0ef          	jal	ra,80005ce0 <memmove>
    8000958c:	4458                	lw	a4,12(s0)
    8000958e:	601c                	ld	a5,0(s0)
    80009590:	89ca                	mv	s3,s2
    80009592:	4197073b          	subw	a4,a4,s9
    80009596:	97de                	add	a5,a5,s7
    80009598:	c458                	sw	a4,12(s0)
    8000959a:	e01c                	sd	a5,0(s0)
    8000959c:	4901                	li	s2,0
    8000959e:	010b3783          	ld	a5,16(s6)
    800095a2:	9c4e                	add	s8,s8,s3
    800095a4:	413787b3          	sub	a5,a5,s3
    800095a8:	00fb3823          	sd	a5,16(s6)
    800095ac:	c3c1                	beqz	a5,8000962c <__sfvwrite_r+0x180>
    800095ae:	601c                	ld	a5,0(s0)
    800095b0:	01041703          	lh	a4,16(s0)
    800095b4:	00c42b83          	lw	s7,12(s0)
    800095b8:	853e                	mv	a0,a5
    800095ba:	fa091de3          	bnez	s2,80009574 <__sfvwrite_r+0xc8>
    800095be:	0004bc03          	ld	s8,0(s1)
    800095c2:	0084b903          	ld	s2,8(s1)
    800095c6:	04c1                	addi	s1,s1,16
    800095c8:	b75d                	j	8000956e <__sfvwrite_r+0xc2>
    800095ca:	4981                	li	s3,0
    800095cc:	4501                	li	a0,0
    800095ce:	4c81                	li	s9,0
    800095d0:	4c01                	li	s8,0
    800095d2:	080c0a63          	beqz	s8,80009666 <__sfvwrite_r+0x1ba>
    800095d6:	c145                	beqz	a0,80009676 <__sfvwrite_r+0x1ca>
    800095d8:	8bce                	mv	s7,s3
    800095da:	013c7363          	bgeu	s8,s3,800095e0 <__sfvwrite_r+0x134>
    800095de:	8be2                	mv	s7,s8
    800095e0:	6008                	ld	a0,0(s0)
    800095e2:	6c18                	ld	a4,24(s0)
    800095e4:	445c                	lw	a5,12(s0)
    800095e6:	5014                	lw	a3,32(s0)
    800095e8:	895e                	mv	s2,s7
    800095ea:	00a77663          	bgeu	a4,a0,800095f6 <__sfvwrite_r+0x14a>
    800095ee:	00d78abb          	addw	s5,a5,a3
    800095f2:	097acd63          	blt	s5,s7,8000968c <__sfvwrite_r+0x1e0>
    800095f6:	18dbc763          	blt	s7,a3,80009784 <__sfvwrite_r+0x2d8>
    800095fa:	603c                	ld	a5,64(s0)
    800095fc:	780c                	ld	a1,48(s0)
    800095fe:	8666                	mv	a2,s9
    80009600:	8552                	mv	a0,s4
    80009602:	9782                	jalr	a5
    80009604:	892a                	mv	s2,a0
    80009606:	04a05663          	blez	a0,80009652 <__sfvwrite_r+0x1a6>
    8000960a:	0005079b          	sext.w	a5,a0
    8000960e:	40f989bb          	subw	s3,s3,a5
    80009612:	4505                	li	a0,1
    80009614:	02098a63          	beqz	s3,80009648 <__sfvwrite_r+0x19c>
    80009618:	010b3783          	ld	a5,16(s6)
    8000961c:	9cca                	add	s9,s9,s2
    8000961e:	412c0c33          	sub	s8,s8,s2
    80009622:	412787b3          	sub	a5,a5,s2
    80009626:	00fb3823          	sd	a5,16(s6)
    8000962a:	f7c5                	bnez	a5,800095d2 <__sfvwrite_r+0x126>
    8000962c:	4501                	li	a0,0
    8000962e:	60e6                	ld	ra,88(sp)
    80009630:	6446                	ld	s0,80(sp)
    80009632:	64a6                	ld	s1,72(sp)
    80009634:	6906                	ld	s2,64(sp)
    80009636:	79e2                	ld	s3,56(sp)
    80009638:	7a42                	ld	s4,48(sp)
    8000963a:	7aa2                	ld	s5,40(sp)
    8000963c:	7b02                	ld	s6,32(sp)
    8000963e:	6be2                	ld	s7,24(sp)
    80009640:	6c42                	ld	s8,16(sp)
    80009642:	6ca2                	ld	s9,8(sp)
    80009644:	6125                	addi	sp,sp,96
    80009646:	8082                	ret
    80009648:	85a2                	mv	a1,s0
    8000964a:	8552                	mv	a0,s4
    8000964c:	f18ff0ef          	jal	ra,80008d64 <_fflush_r>
    80009650:	d561                	beqz	a0,80009618 <__sfvwrite_r+0x16c>
    80009652:	01041783          	lh	a5,16(s0)
    80009656:	0407e793          	ori	a5,a5,64
    8000965a:	00f41823          	sh	a5,16(s0)
    8000965e:	557d                	li	a0,-1
    80009660:	b7f9                	j	8000962e <__sfvwrite_r+0x182>
    80009662:	4501                	li	a0,0
    80009664:	8082                	ret
    80009666:	0084bc03          	ld	s8,8(s1)
    8000966a:	87a6                	mv	a5,s1
    8000966c:	04c1                	addi	s1,s1,16
    8000966e:	fe0c0ce3          	beqz	s8,80009666 <__sfvwrite_r+0x1ba>
    80009672:	0007bc83          	ld	s9,0(a5)
    80009676:	8662                	mv	a2,s8
    80009678:	45a9                	li	a1,10
    8000967a:	8566                	mv	a0,s9
    8000967c:	696020ef          	jal	ra,8000bd12 <memchr>
    80009680:	14050463          	beqz	a0,800097c8 <__sfvwrite_r+0x31c>
    80009684:	0505                	addi	a0,a0,1
    80009686:	419509bb          	subw	s3,a0,s9
    8000968a:	b7b9                	j	800095d8 <__sfvwrite_r+0x12c>
    8000968c:	85e6                	mv	a1,s9
    8000968e:	8656                	mv	a2,s5
    80009690:	e50fc0ef          	jal	ra,80005ce0 <memmove>
    80009694:	601c                	ld	a5,0(s0)
    80009696:	85a2                	mv	a1,s0
    80009698:	8552                	mv	a0,s4
    8000969a:	97d6                	add	a5,a5,s5
    8000969c:	e01c                	sd	a5,0(s0)
    8000969e:	ec6ff0ef          	jal	ra,80008d64 <_fflush_r>
    800096a2:	f945                	bnez	a0,80009652 <__sfvwrite_r+0x1a6>
    800096a4:	87d6                	mv	a5,s5
    800096a6:	8956                	mv	s2,s5
    800096a8:	b79d                	j	8000960e <__sfvwrite_r+0x162>
    800096aa:	6c18                	ld	a4,24(s0)
    800096ac:	02f76763          	bltu	a4,a5,800096da <__sfvwrite_r+0x22e>
    800096b0:	5018                	lw	a4,32(s0)
    800096b2:	02e96463          	bltu	s2,a4,800096da <__sfvwrite_r+0x22e>
    800096b6:	86ca                	mv	a3,s2
    800096b8:	012af363          	bgeu	s5,s2,800096be <__sfvwrite_r+0x212>
    800096bc:	86d6                	mv	a3,s5
    800096be:	02e6e73b          	remw	a4,a3,a4
    800096c2:	603c                	ld	a5,64(s0)
    800096c4:	780c                	ld	a1,48(s0)
    800096c6:	8662                	mv	a2,s8
    800096c8:	8552                	mv	a0,s4
    800096ca:	9e99                	subw	a3,a3,a4
    800096cc:	9782                	jalr	a5
    800096ce:	89aa                	mv	s3,a0
    800096d0:	f8a051e3          	blez	a0,80009652 <__sfvwrite_r+0x1a6>
    800096d4:	41390933          	sub	s2,s2,s3
    800096d8:	b5d9                	j	8000959e <__sfvwrite_r+0xf2>
    800096da:	89de                	mv	s3,s7
    800096dc:	01797363          	bgeu	s2,s7,800096e2 <__sfvwrite_r+0x236>
    800096e0:	89ca                	mv	s3,s2
    800096e2:	853e                	mv	a0,a5
    800096e4:	864e                	mv	a2,s3
    800096e6:	85e2                	mv	a1,s8
    800096e8:	df8fc0ef          	jal	ra,80005ce0 <memmove>
    800096ec:	4458                	lw	a4,12(s0)
    800096ee:	601c                	ld	a5,0(s0)
    800096f0:	413706bb          	subw	a3,a4,s3
    800096f4:	97ce                	add	a5,a5,s3
    800096f6:	c454                	sw	a3,12(s0)
    800096f8:	e01c                	sd	a5,0(s0)
    800096fa:	fee9                	bnez	a3,800096d4 <__sfvwrite_r+0x228>
    800096fc:	85a2                	mv	a1,s0
    800096fe:	8552                	mv	a0,s4
    80009700:	e64ff0ef          	jal	ra,80008d64 <_fflush_r>
    80009704:	f539                	bnez	a0,80009652 <__sfvwrite_r+0x1a6>
    80009706:	41390933          	sub	s2,s2,s3
    8000970a:	bd51                	j	8000959e <__sfvwrite_r+0xf2>
    8000970c:	48077693          	andi	a3,a4,1152
    80009710:	cac1                	beqz	a3,800097a0 <__sfvwrite_r+0x2f4>
    80009712:	5010                	lw	a2,32(s0)
    80009714:	6c0c                	ld	a1,24(s0)
    80009716:	0016169b          	slliw	a3,a2,0x1
    8000971a:	9eb1                	addw	a3,a3,a2
    8000971c:	8f8d                	sub	a5,a5,a1
    8000971e:	01f6d99b          	srliw	s3,a3,0x1f
    80009722:	00078b9b          	sext.w	s7,a5
    80009726:	00d989bb          	addw	s3,s3,a3
    8000972a:	001b8693          	addi	a3,s7,1
    8000972e:	4019d99b          	sraiw	s3,s3,0x1
    80009732:	96ca                	add	a3,a3,s2
    80009734:	00d9f563          	bgeu	s3,a3,8000973e <__sfvwrite_r+0x292>
    80009738:	2785                	addiw	a5,a5,1
    8000973a:	012789bb          	addw	s3,a5,s2
    8000973e:	40077713          	andi	a4,a4,1024
    80009742:	c32d                	beqz	a4,800097a4 <__sfvwrite_r+0x2f8>
    80009744:	85ce                	mv	a1,s3
    80009746:	8552                	mv	a0,s4
    80009748:	fabfb0ef          	jal	ra,800056f2 <_malloc_r>
    8000974c:	8caa                	mv	s9,a0
    8000974e:	c141                	beqz	a0,800097ce <__sfvwrite_r+0x322>
    80009750:	6c0c                	ld	a1,24(s0)
    80009752:	865e                	mv	a2,s7
    80009754:	98cf90ef          	jal	ra,800028e0 <memcpy>
    80009758:	01045783          	lhu	a5,16(s0)
    8000975c:	b7f7f793          	andi	a5,a5,-1153
    80009760:	0807e793          	ori	a5,a5,128
    80009764:	00f41823          	sh	a5,16(s0)
    80009768:	017c8533          	add	a0,s9,s7
    8000976c:	41798bbb          	subw	s7,s3,s7
    80009770:	01943c23          	sd	s9,24(s0)
    80009774:	01742623          	sw	s7,12(s0)
    80009778:	e008                	sd	a0,0(s0)
    8000977a:	03342023          	sw	s3,32(s0)
    8000977e:	8cca                	mv	s9,s2
    80009780:	8bca                	mv	s7,s2
    80009782:	b509                	j	80009584 <__sfvwrite_r+0xd8>
    80009784:	865e                	mv	a2,s7
    80009786:	85e6                	mv	a1,s9
    80009788:	d58fc0ef          	jal	ra,80005ce0 <memmove>
    8000978c:	4454                	lw	a3,12(s0)
    8000978e:	6018                	ld	a4,0(s0)
    80009790:	000b879b          	sext.w	a5,s7
    80009794:	417686bb          	subw	a3,a3,s7
    80009798:	975e                	add	a4,a4,s7
    8000979a:	c454                	sw	a3,12(s0)
    8000979c:	e018                	sd	a4,0(s0)
    8000979e:	bd85                	j	8000960e <__sfvwrite_r+0x162>
    800097a0:	8cde                	mv	s9,s7
    800097a2:	b3cd                	j	80009584 <__sfvwrite_r+0xd8>
    800097a4:	864e                	mv	a2,s3
    800097a6:	8552                	mv	a0,s4
    800097a8:	2d6030ef          	jal	ra,8000ca7e <_realloc_r>
    800097ac:	8caa                	mv	s9,a0
    800097ae:	fd4d                	bnez	a0,80009768 <__sfvwrite_r+0x2bc>
    800097b0:	6c0c                	ld	a1,24(s0)
    800097b2:	8552                	mv	a0,s4
    800097b4:	aabff0ef          	jal	ra,8000925e <_free_r>
    800097b8:	01041783          	lh	a5,16(s0)
    800097bc:	4731                	li	a4,12
    800097be:	00ea2023          	sw	a4,0(s4)
    800097c2:	f7f7f793          	andi	a5,a5,-129
    800097c6:	bd41                	j	80009656 <__sfvwrite_r+0x1aa>
    800097c8:	001c099b          	addiw	s3,s8,1
    800097cc:	b531                	j	800095d8 <__sfvwrite_r+0x12c>
    800097ce:	4731                	li	a4,12
    800097d0:	01041783          	lh	a5,16(s0)
    800097d4:	00ea2023          	sw	a4,0(s4)
    800097d8:	bdbd                	j	80009656 <__sfvwrite_r+0x1aa>

Disassembly of section .text._fwalk:

00000000800097da <_fwalk>:
    800097da:	715d                	addi	sp,sp,-80
    800097dc:	f84a                	sd	s2,48(sp)
    800097de:	f44e                	sd	s3,40(sp)
    800097e0:	f052                	sd	s4,32(sp)
    800097e2:	ec56                	sd	s5,24(sp)
    800097e4:	e85a                	sd	s6,16(sp)
    800097e6:	e45e                	sd	s7,8(sp)
    800097e8:	e486                	sd	ra,72(sp)
    800097ea:	e0a2                	sd	s0,64(sp)
    800097ec:	fc26                	sd	s1,56(sp)
    800097ee:	8aae                	mv	s5,a1
    800097f0:	52050993          	addi	s3,a0,1312
    800097f4:	4901                	li	s2,0
    800097f6:	0b000b13          	li	s6,176
    800097fa:	4b85                	li	s7,1
    800097fc:	5a7d                	li	s4,-1
    800097fe:	0089a483          	lw	s1,8(s3)
    80009802:	0109b403          	ld	s0,16(s3)
    80009806:	02905863          	blez	s1,80009836 <_fwalk+0x5c>
    8000980a:	1482                	slli	s1,s1,0x20
    8000980c:	9081                	srli	s1,s1,0x20
    8000980e:	036484b3          	mul	s1,s1,s6
    80009812:	94a2                	add	s1,s1,s0
    80009814:	01045783          	lhu	a5,16(s0)
    80009818:	00fbfb63          	bgeu	s7,a5,8000982e <_fwalk+0x54>
    8000981c:	01241783          	lh	a5,18(s0)
    80009820:	8522                	mv	a0,s0
    80009822:	01478663          	beq	a5,s4,8000982e <_fwalk+0x54>
    80009826:	9a82                	jalr	s5
    80009828:	01256933          	or	s2,a0,s2
    8000982c:	2901                	sext.w	s2,s2
    8000982e:	0b040413          	addi	s0,s0,176
    80009832:	fe8491e3          	bne	s1,s0,80009814 <_fwalk+0x3a>
    80009836:	0009b983          	ld	s3,0(s3)
    8000983a:	fc0992e3          	bnez	s3,800097fe <_fwalk+0x24>
    8000983e:	60a6                	ld	ra,72(sp)
    80009840:	6406                	ld	s0,64(sp)
    80009842:	74e2                	ld	s1,56(sp)
    80009844:	79a2                	ld	s3,40(sp)
    80009846:	7a02                	ld	s4,32(sp)
    80009848:	6ae2                	ld	s5,24(sp)
    8000984a:	6b42                	ld	s6,16(sp)
    8000984c:	6ba2                	ld	s7,8(sp)
    8000984e:	854a                	mv	a0,s2
    80009850:	7942                	ld	s2,48(sp)
    80009852:	6161                	addi	sp,sp,80
    80009854:	8082                	ret

Disassembly of section .text._fwalk_reent:

0000000080009856 <_fwalk_reent>:
    80009856:	715d                	addi	sp,sp,-80
    80009858:	f84a                	sd	s2,48(sp)
    8000985a:	f44e                	sd	s3,40(sp)
    8000985c:	f052                	sd	s4,32(sp)
    8000985e:	ec56                	sd	s5,24(sp)
    80009860:	e85a                	sd	s6,16(sp)
    80009862:	e45e                	sd	s7,8(sp)
    80009864:	e062                	sd	s8,0(sp)
    80009866:	e486                	sd	ra,72(sp)
    80009868:	e0a2                	sd	s0,64(sp)
    8000986a:	fc26                	sd	s1,56(sp)
    8000986c:	89aa                	mv	s3,a0
    8000986e:	8b2e                	mv	s6,a1
    80009870:	52050a13          	addi	s4,a0,1312
    80009874:	4901                	li	s2,0
    80009876:	0b000b93          	li	s7,176
    8000987a:	4c05                	li	s8,1
    8000987c:	5afd                	li	s5,-1
    8000987e:	008a2483          	lw	s1,8(s4)
    80009882:	010a3403          	ld	s0,16(s4)
    80009886:	02905963          	blez	s1,800098b8 <_fwalk_reent+0x62>
    8000988a:	1482                	slli	s1,s1,0x20
    8000988c:	9081                	srli	s1,s1,0x20
    8000988e:	037484b3          	mul	s1,s1,s7
    80009892:	94a2                	add	s1,s1,s0
    80009894:	01045783          	lhu	a5,16(s0)
    80009898:	00fc7c63          	bgeu	s8,a5,800098b0 <_fwalk_reent+0x5a>
    8000989c:	01241783          	lh	a5,18(s0)
    800098a0:	85a2                	mv	a1,s0
    800098a2:	854e                	mv	a0,s3
    800098a4:	01578663          	beq	a5,s5,800098b0 <_fwalk_reent+0x5a>
    800098a8:	9b02                	jalr	s6
    800098aa:	01256933          	or	s2,a0,s2
    800098ae:	2901                	sext.w	s2,s2
    800098b0:	0b040413          	addi	s0,s0,176
    800098b4:	fe8490e3          	bne	s1,s0,80009894 <_fwalk_reent+0x3e>
    800098b8:	000a3a03          	ld	s4,0(s4)
    800098bc:	fc0a11e3          	bnez	s4,8000987e <_fwalk_reent+0x28>
    800098c0:	60a6                	ld	ra,72(sp)
    800098c2:	6406                	ld	s0,64(sp)
    800098c4:	74e2                	ld	s1,56(sp)
    800098c6:	79a2                	ld	s3,40(sp)
    800098c8:	7a02                	ld	s4,32(sp)
    800098ca:	6ae2                	ld	s5,24(sp)
    800098cc:	6b42                	ld	s6,16(sp)
    800098ce:	6ba2                	ld	s7,8(sp)
    800098d0:	6c02                	ld	s8,0(sp)
    800098d2:	854a                	mv	a0,s2
    800098d4:	7942                	ld	s2,48(sp)
    800098d6:	6161                	addi	sp,sp,80
    800098d8:	8082                	ret

Disassembly of section .text._gettimeofday_r:

00000000800098da <_gettimeofday_r>:
    800098da:	1141                	addi	sp,sp,-16
    800098dc:	872e                	mv	a4,a1
    800098de:	e022                	sd	s0,0(sp)
    800098e0:	85b2                	mv	a1,a2
    800098e2:	842a                	mv	s0,a0
    800098e4:	853a                	mv	a0,a4
    800098e6:	8e01a423          	sw	zero,-1816(gp) # 800101c8 <errno>
    800098ea:	e406                	sd	ra,8(sp)
    800098ec:	44d030ef          	jal	ra,8000d538 <_gettimeofday>
    800098f0:	57fd                	li	a5,-1
    800098f2:	00f50663          	beq	a0,a5,800098fe <_gettimeofday_r+0x24>
    800098f6:	60a2                	ld	ra,8(sp)
    800098f8:	6402                	ld	s0,0(sp)
    800098fa:	0141                	addi	sp,sp,16
    800098fc:	8082                	ret
    800098fe:	8e81a783          	lw	a5,-1816(gp) # 800101c8 <errno>
    80009902:	dbf5                	beqz	a5,800098f6 <_gettimeofday_r+0x1c>
    80009904:	60a2                	ld	ra,8(sp)
    80009906:	c01c                	sw	a5,0(s0)
    80009908:	6402                	ld	s0,0(sp)
    8000990a:	0141                	addi	sp,sp,16
    8000990c:	8082                	ret

Disassembly of section .text.eshdn1:

000000008000990e <eshdn1>:
    8000990e:	00450693          	addi	a3,a0,4
    80009912:	4701                	li	a4,0
    80009914:	0569                	addi	a0,a0,26
    80009916:	7861                	lui	a6,0xffff8
    80009918:	0006d783          	lhu	a5,0(a3)
    8000991c:	0017f613          	andi	a2,a5,1
    80009920:	c219                	beqz	a2,80009926 <eshdn1+0x18>
    80009922:	00176713          	ori	a4,a4,1
    80009926:	00277613          	andi	a2,a4,2
    8000992a:	8385                	srli	a5,a5,0x1
    8000992c:	0017171b          	slliw	a4,a4,0x1
    80009930:	0107e5b3          	or	a1,a5,a6
    80009934:	c601                	beqz	a2,8000993c <eshdn1+0x2e>
    80009936:	03059793          	slli	a5,a1,0x30
    8000993a:	93c1                	srli	a5,a5,0x30
    8000993c:	00f69023          	sh	a5,0(a3)
    80009940:	1742                	slli	a4,a4,0x30
    80009942:	0689                	addi	a3,a3,2
    80009944:	9341                	srli	a4,a4,0x30
    80009946:	fcd519e3          	bne	a0,a3,80009918 <eshdn1+0xa>
    8000994a:	8082                	ret

Disassembly of section .text.eshup1:

000000008000994c <eshup1>:
    8000994c:	01850693          	addi	a3,a0,24
    80009950:	4701                	li	a4,0
    80009952:	0509                	addi	a0,a0,2
    80009954:	0006d783          	lhu	a5,0(a3)
    80009958:	00f7d613          	srli	a2,a5,0xf
    8000995c:	0017979b          	slliw	a5,a5,0x1
    80009960:	c219                	beqz	a2,80009966 <eshup1+0x1a>
    80009962:	00176713          	ori	a4,a4,1
    80009966:	00277613          	andi	a2,a4,2
    8000996a:	17c2                	slli	a5,a5,0x30
    8000996c:	0017171b          	slliw	a4,a4,0x1
    80009970:	93c1                	srli	a5,a5,0x30
    80009972:	c219                	beqz	a2,80009978 <eshup1+0x2c>
    80009974:	0017e793          	ori	a5,a5,1
    80009978:	00f69023          	sh	a5,0(a3)
    8000997c:	1742                	slli	a4,a4,0x30
    8000997e:	16f9                	addi	a3,a3,-2
    80009980:	9341                	srli	a4,a4,0x30
    80009982:	fcd519e3          	bne	a0,a3,80009954 <eshup1+0x8>
    80009986:	8082                	ret

Disassembly of section .text.m16m:

0000000080009988 <m16m>:
    80009988:	1101                	addi	sp,sp,-32
    8000998a:	6e41                	lui	t3,0x10
    8000998c:	00011b23          	sh	zero,22(sp)
    80009990:	00011c23          	sh	zero,24(sp)
    80009994:	05e1                	addi	a1,a1,24
    80009996:	083c                	addi	a5,sp,24
    80009998:	00410813          	addi	a6,sp,4
    8000999c:	1e7d                	addi	t3,t3,-1 # ffff <_tbss_end+0xffbb>
    8000999e:	0005d703          	lhu	a4,0(a1)
    800099a2:	17f9                	addi	a5,a5,-2
    800099a4:	15f9                	addi	a1,a1,-2
    800099a6:	c705                	beqz	a4,800099ce <m16m+0x46>
    800099a8:	02a70733          	mul	a4,a4,a0
    800099ac:	0027d883          	lhu	a7,2(a5)
    800099b0:	0007d303          	lhu	t1,0(a5)
    800099b4:	01c776b3          	and	a3,a4,t3
    800099b8:	96c6                	add	a3,a3,a7
    800099ba:	8341                	srli	a4,a4,0x10
    800099bc:	0106d893          	srli	a7,a3,0x10
    800099c0:	971a                	add	a4,a4,t1
    800099c2:	9746                	add	a4,a4,a7
    800099c4:	00e79023          	sh	a4,0(a5)
    800099c8:	00d79123          	sh	a3,2(a5)
    800099cc:	8341                	srli	a4,a4,0x10
    800099ce:	fee79f23          	sh	a4,-2(a5)
    800099d2:	fd0796e3          	bne	a5,a6,8000999e <m16m+0x16>
    800099d6:	0611                	addi	a2,a2,4
    800099d8:	01a10693          	addi	a3,sp,26
    800099dc:	0007d703          	lhu	a4,0(a5)
    800099e0:	0789                	addi	a5,a5,2
    800099e2:	0609                	addi	a2,a2,2
    800099e4:	fee61f23          	sh	a4,-2(a2)
    800099e8:	fef69ae3          	bne	a3,a5,800099dc <m16m+0x54>
    800099ec:	6105                	addi	sp,sp,32
    800099ee:	8082                	ret

Disassembly of section .text.emovo.constprop.0:

00000000800099f0 <emovo.constprop.0>:
    800099f0:	00055703          	lhu	a4,0(a0)
    800099f4:	00255783          	lhu	a5,2(a0)
    800099f8:	c319                	beqz	a4,800099fe <emovo.constprop.0+0xe>
    800099fa:	6721                	lui	a4,0x8
    800099fc:	8fd9                	or	a5,a5,a4
    800099fe:	00f59923          	sh	a5,18(a1)
    80009a02:	00255703          	lhu	a4,2(a0)
    80009a06:	67a1                	lui	a5,0x8
    80009a08:	17fd                	addi	a5,a5,-1 # 7fff <_tbss_end+0x7fbb>
    80009a0a:	00f70f63          	beq	a4,a5,80009a28 <emovo.constprop.0+0x38>
    80009a0e:	00650793          	addi	a5,a0,6
    80009a12:	05c1                	addi	a1,a1,16
    80009a14:	0561                	addi	a0,a0,24
    80009a16:	0007d703          	lhu	a4,0(a5)
    80009a1a:	0789                	addi	a5,a5,2
    80009a1c:	15f9                	addi	a1,a1,-2
    80009a1e:	00e59123          	sh	a4,2(a1)
    80009a22:	fea79ae3          	bne	a5,a0,80009a16 <emovo.constprop.0+0x26>
    80009a26:	8082                	ret
    80009a28:	00650793          	addi	a5,a0,6
    80009a2c:	0569                	addi	a0,a0,26
    80009a2e:	0007d703          	lhu	a4,0(a5)
    80009a32:	0789                	addi	a5,a5,2
    80009a34:	e31d                	bnez	a4,80009a5a <emovo.constprop.0+0x6a>
    80009a36:	fef51ce3          	bne	a0,a5,80009a2e <emovo.constprop.0+0x3e>
    80009a3a:	01258713          	addi	a4,a1,18
    80009a3e:	87ae                	mv	a5,a1
    80009a40:	0789                	addi	a5,a5,2
    80009a42:	fe079f23          	sh	zero,-2(a5)
    80009a46:	fee79de3          	bne	a5,a4,80009a40 <emovo.constprop.0+0x50>
    80009a4a:	0125d783          	lhu	a5,18(a1)
    80009a4e:	6721                	lui	a4,0x8
    80009a50:	177d                	addi	a4,a4,-1 # 7fff <_tbss_end+0x7fbb>
    80009a52:	8fd9                	or	a5,a5,a4
    80009a54:	00f59923          	sh	a5,18(a1)
    80009a58:	8082                	ret
    80009a5a:	01058713          	addi	a4,a1,16
    80009a5e:	87ae                	mv	a5,a1
    80009a60:	0789                	addi	a5,a5,2
    80009a62:	fe079f23          	sh	zero,-2(a5)
    80009a66:	fee79de3          	bne	a5,a4,80009a60 <emovo.constprop.0+0x70>
    80009a6a:	77f1                	lui	a5,0xffffc
    80009a6c:	00f59823          	sh	a5,16(a1)
    80009a70:	77e1                	lui	a5,0xffff8
    80009a72:	fff7c793          	not	a5,a5
    80009a76:	00f59923          	sh	a5,18(a1)
    80009a7a:	8082                	ret

Disassembly of section .text.enormlz:

0000000080009a7c <enormlz>:
    80009a7c:	00455783          	lhu	a5,4(a0)
    80009a80:	1101                	addi	sp,sp,-32
    80009a82:	e426                	sd	s1,8(sp)
    80009a84:	ec06                	sd	ra,24(sp)
    80009a86:	e822                	sd	s0,16(sp)
    80009a88:	e04a                	sd	s2,0(sp)
    80009a8a:	84aa                	mv	s1,a0
    80009a8c:	efd1                	bnez	a5,80009b28 <enormlz+0xac>
    80009a8e:	00655783          	lhu	a5,6(a0)
    80009a92:	4401                	li	s0,0
    80009a94:	00f7d713          	srli	a4,a5,0xf
    80009a98:	e349                	bnez	a4,80009b1a <enormlz+0x9e>
    80009a9a:	01850693          	addi	a3,a0,24
    80009a9e:	0a000613          	li	a2,160
    80009aa2:	e395                	bnez	a5,80009ac6 <enormlz+0x4a>
    80009aa4:	00448793          	addi	a5,s1,4
    80009aa8:	0027d703          	lhu	a4,2(a5) # ffffffffffff8002 <_end+0xffffffff7cfe6dc2>
    80009aac:	0789                	addi	a5,a5,2
    80009aae:	fee79f23          	sh	a4,-2(a5)
    80009ab2:	fed79be3          	bne	a5,a3,80009aa8 <enormlz+0x2c>
    80009ab6:	00049c23          	sh	zero,24(s1)
    80009aba:	2441                	addiw	s0,s0,16
    80009abc:	04c40f63          	beq	s0,a2,80009b1a <enormlz+0x9e>
    80009ac0:	0064d783          	lhu	a5,6(s1)
    80009ac4:	d3e5                	beqz	a5,80009aa4 <enormlz+0x28>
    80009ac6:	0ff00713          	li	a4,255
    80009aca:	02f76b63          	bltu	a4,a5,80009b00 <enormlz+0x84>
    80009ace:	01848813          	addi	a6,s1,24
    80009ad2:	00248593          	addi	a1,s1,2
    80009ad6:	0ff00513          	li	a0,255
    80009ada:	4781                	li	a5,0
    80009adc:	8742                	mv	a4,a6
    80009ade:	00075683          	lhu	a3,0(a4)
    80009ae2:	1779                	addi	a4,a4,-2
    80009ae4:	0086961b          	slliw	a2,a3,0x8
    80009ae8:	8fd1                	or	a5,a5,a2
    80009aea:	00f71123          	sh	a5,2(a4)
    80009aee:	0086d793          	srli	a5,a3,0x8
    80009af2:	feb716e3          	bne	a4,a1,80009ade <enormlz+0x62>
    80009af6:	0064d783          	lhu	a5,6(s1)
    80009afa:	2421                	addiw	s0,s0,8
    80009afc:	fcf57fe3          	bgeu	a0,a5,80009ada <enormlz+0x5e>
    80009b00:	0a000913          	li	s2,160
    80009b04:	a801                	j	80009b14 <enormlz+0x98>
    80009b06:	2405                	addiw	s0,s0,1
    80009b08:	e45ff0ef          	jal	ra,8000994c <eshup1>
    80009b0c:	00894763          	blt	s2,s0,80009b1a <enormlz+0x9e>
    80009b10:	0064d783          	lhu	a5,6(s1)
    80009b14:	83bd                	srli	a5,a5,0xf
    80009b16:	8526                	mv	a0,s1
    80009b18:	d7fd                	beqz	a5,80009b06 <enormlz+0x8a>
    80009b1a:	60e2                	ld	ra,24(sp)
    80009b1c:	8522                	mv	a0,s0
    80009b1e:	6442                	ld	s0,16(sp)
    80009b20:	64a2                	ld	s1,8(sp)
    80009b22:	6902                	ld	s2,0(sp)
    80009b24:	6105                	addi	sp,sp,32
    80009b26:	8082                	ret
    80009b28:	0ff00713          	li	a4,255
    80009b2c:	4401                	li	s0,0
    80009b2e:	02f76563          	bltu	a4,a5,80009b58 <enormlz+0xdc>
    80009b32:	f6f00913          	li	s2,-145
    80009b36:	a801                	j	80009b46 <enormlz+0xca>
    80009b38:	347d                	addiw	s0,s0,-1
    80009b3a:	dd5ff0ef          	jal	ra,8000990e <eshdn1>
    80009b3e:	fd240ee3          	beq	s0,s2,80009b1a <enormlz+0x9e>
    80009b42:	0044d783          	lhu	a5,4(s1)
    80009b46:	8526                	mv	a0,s1
    80009b48:	fbe5                	bnez	a5,80009b38 <enormlz+0xbc>
    80009b4a:	60e2                	ld	ra,24(sp)
    80009b4c:	8522                	mv	a0,s0
    80009b4e:	6442                	ld	s0,16(sp)
    80009b50:	64a2                	ld	s1,8(sp)
    80009b52:	6902                	ld	s2,0(sp)
    80009b54:	6105                	addi	sp,sp,32
    80009b56:	8082                	ret
    80009b58:	00450713          	addi	a4,a0,4
    80009b5c:	01a50593          	addi	a1,a0,26
    80009b60:	4781                	li	a5,0
    80009b62:	00075683          	lhu	a3,0(a4)
    80009b66:	0709                	addi	a4,a4,2
    80009b68:	0086d61b          	srliw	a2,a3,0x8
    80009b6c:	8fd1                	or	a5,a5,a2
    80009b6e:	0086969b          	slliw	a3,a3,0x8
    80009b72:	fef71f23          	sh	a5,-2(a4)
    80009b76:	03069793          	slli	a5,a3,0x30
    80009b7a:	93c1                	srli	a5,a5,0x30
    80009b7c:	feb713e3          	bne	a4,a1,80009b62 <enormlz+0xe6>
    80009b80:	0044d783          	lhu	a5,4(s1)
    80009b84:	5461                	li	s0,-8
    80009b86:	b775                	j	80009b32 <enormlz+0xb6>

Disassembly of section .text.eshift.part.0:

0000000080009b88 <eshift.part.0>:
    80009b88:	7179                	addi	sp,sp,-48
    80009b8a:	f022                	sd	s0,32(sp)
    80009b8c:	ec26                	sd	s1,24(sp)
    80009b8e:	f406                	sd	ra,40(sp)
    80009b90:	e84a                	sd	s2,16(sp)
    80009b92:	e44e                	sd	s3,8(sp)
    80009b94:	84ae                	mv	s1,a1
    80009b96:	842a                	mv	s0,a0
    80009b98:	0605cb63          	bltz	a1,80009c0e <eshift.part.0+0x86>
    80009b9c:	47bd                	li	a5,15
    80009b9e:	862e                	mv	a2,a1
    80009ba0:	0511                	addi	a0,a0,4
    80009ba2:	01840693          	addi	a3,s0,24
    80009ba6:	45bd                	li	a1,15
    80009ba8:	0297d063          	bge	a5,s1,80009bc8 <eshift.part.0+0x40>
    80009bac:	87aa                	mv	a5,a0
    80009bae:	0027d703          	lhu	a4,2(a5)
    80009bb2:	0789                	addi	a5,a5,2
    80009bb4:	fee79f23          	sh	a4,-2(a5)
    80009bb8:	fef69be3          	bne	a3,a5,80009bae <eshift.part.0+0x26>
    80009bbc:	00041c23          	sh	zero,24(s0)
    80009bc0:	3641                	addiw	a2,a2,-16
    80009bc2:	fec5c5e3          	blt	a1,a2,80009bac <eshift.part.0+0x24>
    80009bc6:	88bd                	andi	s1,s1,15
    80009bc8:	479d                	li	a5,7
    80009bca:	0297d463          	bge	a5,s1,80009bf2 <eshift.part.0+0x6a>
    80009bce:	01840713          	addi	a4,s0,24
    80009bd2:	00240593          	addi	a1,s0,2
    80009bd6:	4781                	li	a5,0
    80009bd8:	00075683          	lhu	a3,0(a4)
    80009bdc:	1779                	addi	a4,a4,-2
    80009bde:	0086961b          	slliw	a2,a3,0x8
    80009be2:	8fd1                	or	a5,a5,a2
    80009be4:	00f71123          	sh	a5,2(a4)
    80009be8:	0086d793          	srli	a5,a3,0x8
    80009bec:	feb716e3          	bne	a4,a1,80009bd8 <eshift.part.0+0x50>
    80009bf0:	34e1                	addiw	s1,s1,-8
    80009bf2:	c491                	beqz	s1,80009bfe <eshift.part.0+0x76>
    80009bf4:	34fd                	addiw	s1,s1,-1
    80009bf6:	8522                	mv	a0,s0
    80009bf8:	d55ff0ef          	jal	ra,8000994c <eshup1>
    80009bfc:	fce5                	bnez	s1,80009bf4 <eshift.part.0+0x6c>
    80009bfe:	4501                	li	a0,0
    80009c00:	70a2                	ld	ra,40(sp)
    80009c02:	7402                	ld	s0,32(sp)
    80009c04:	64e2                	ld	s1,24(sp)
    80009c06:	6942                	ld	s2,16(sp)
    80009c08:	69a2                	ld	s3,8(sp)
    80009c0a:	6145                	addi	sp,sp,48
    80009c0c:	8082                	ret
    80009c0e:	57c5                	li	a5,-15
    80009c10:	40b0093b          	negw	s2,a1
    80009c14:	4981                	li	s3,0
    80009c16:	01850593          	addi	a1,a0,24
    80009c1a:	00450693          	addi	a3,a0,4
    80009c1e:	463d                	li	a2,15
    80009c20:	0af4d463          	bge	s1,a5,80009cc8 <eshift.part.0+0x140>
    80009c24:	01845703          	lhu	a4,24(s0)
    80009c28:	87ae                	mv	a5,a1
    80009c2a:	00e9e9b3          	or	s3,s3,a4
    80009c2e:	ffe7d703          	lhu	a4,-2(a5)
    80009c32:	17f9                	addi	a5,a5,-2
    80009c34:	00e79123          	sh	a4,2(a5)
    80009c38:	fed79be3          	bne	a5,a3,80009c2e <eshift.part.0+0xa6>
    80009c3c:	00041223          	sh	zero,4(s0)
    80009c40:	3941                	addiw	s2,s2,-16
    80009c42:	ff2641e3          	blt	a2,s2,80009c24 <eshift.part.0+0x9c>
    80009c46:	5941                	li	s2,-16
    80009c48:	5745                	li	a4,-15
    80009c4a:	4099093b          	subw	s2,s2,s1
    80009c4e:	4781                	li	a5,0
    80009c50:	06e4c763          	blt	s1,a4,80009cbe <eshift.part.0+0x136>
    80009c54:	00f9093b          	addw	s2,s2,a5
    80009c58:	479d                	li	a5,7
    80009c5a:	0327d963          	bge	a5,s2,80009c8c <eshift.part.0+0x104>
    80009c5e:	01844783          	lbu	a5,24(s0)
    80009c62:	01a40593          	addi	a1,s0,26
    80009c66:	00f9e9b3          	or	s3,s3,a5
    80009c6a:	4781                	li	a5,0
    80009c6c:	0006d703          	lhu	a4,0(a3)
    80009c70:	0689                	addi	a3,a3,2
    80009c72:	0087561b          	srliw	a2,a4,0x8
    80009c76:	8fd1                	or	a5,a5,a2
    80009c78:	0087171b          	slliw	a4,a4,0x8
    80009c7c:	fef69f23          	sh	a5,-2(a3)
    80009c80:	03071793          	slli	a5,a4,0x30
    80009c84:	93c1                	srli	a5,a5,0x30
    80009c86:	feb693e3          	bne	a3,a1,80009c6c <eshift.part.0+0xe4>
    80009c8a:	3961                	addiw	s2,s2,-8
    80009c8c:	01303533          	snez	a0,s3
    80009c90:	f60908e3          	beqz	s2,80009c00 <eshift.part.0+0x78>
    80009c94:	01845783          	lhu	a5,24(s0)
    80009c98:	397d                	addiw	s2,s2,-1
    80009c9a:	8522                	mv	a0,s0
    80009c9c:	8b85                	andi	a5,a5,1
    80009c9e:	00f9e9b3          	or	s3,s3,a5
    80009ca2:	c6dff0ef          	jal	ra,8000990e <eshdn1>
    80009ca6:	fe0917e3          	bnez	s2,80009c94 <eshift.part.0+0x10c>
    80009caa:	70a2                	ld	ra,40(sp)
    80009cac:	7402                	ld	s0,32(sp)
    80009cae:	2981                	sext.w	s3,s3
    80009cb0:	64e2                	ld	s1,24(sp)
    80009cb2:	6942                	ld	s2,16(sp)
    80009cb4:	01303533          	snez	a0,s3
    80009cb8:	69a2                	ld	s3,8(sp)
    80009cba:	6145                	addi	sp,sp,48
    80009cbc:	8082                	ret
    80009cbe:	ff097793          	andi	a5,s2,-16
    80009cc2:	40f007bb          	negw	a5,a5
    80009cc6:	b779                	j	80009c54 <eshift.part.0+0xcc>
    80009cc8:	57e5                	li	a5,-7
    80009cca:	f8f4cae3          	blt	s1,a5,80009c5e <eshift.part.0+0xd6>
    80009cce:	b7d9                	j	80009c94 <eshift.part.0+0x10c>

Disassembly of section .text.emovi:

0000000080009cd0 <emovi>:
    80009cd0:	01255783          	lhu	a5,18(a0)
    80009cd4:	66a1                	lui	a3,0x8
    80009cd6:	16fd                	addi	a3,a3,-1 # 7fff <_tbss_end+0x7fbb>
    80009cd8:	00f7d79b          	srliw	a5,a5,0xf
    80009cdc:	40f007bb          	negw	a5,a5
    80009ce0:	00f59023          	sh	a5,0(a1)
    80009ce4:	01255703          	lhu	a4,18(a0)
    80009ce8:	01050793          	addi	a5,a0,16
    80009cec:	8f75                	and	a4,a4,a3
    80009cee:	00e59123          	sh	a4,2(a1)
    80009cf2:	0007061b          	sext.w	a2,a4
    80009cf6:	02d70263          	beq	a4,a3,80009d1a <emovi+0x4a>
    80009cfa:	00658713          	addi	a4,a1,6
    80009cfe:	00059223          	sh	zero,4(a1)
    80009d02:	1579                	addi	a0,a0,-2
    80009d04:	0007d683          	lhu	a3,0(a5)
    80009d08:	17f9                	addi	a5,a5,-2
    80009d0a:	0709                	addi	a4,a4,2
    80009d0c:	fed71f23          	sh	a3,-2(a4)
    80009d10:	fea79ae3          	bne	a5,a0,80009d04 <emovi+0x34>
    80009d14:	00059c23          	sh	zero,24(a1)
    80009d18:	8082                	ret
    80009d1a:	01255703          	lhu	a4,18(a0)
    80009d1e:	8f71                	and	a4,a4,a2
    80009d20:	00c71b63          	bne	a4,a2,80009d36 <emovi+0x66>
    80009d24:	01250613          	addi	a2,a0,18
    80009d28:	872a                	mv	a4,a0
    80009d2a:	00075683          	lhu	a3,0(a4)
    80009d2e:	0709                	addi	a4,a4,2
    80009d30:	ee81                	bnez	a3,80009d48 <emovi+0x78>
    80009d32:	fec71ce3          	bne	a4,a2,80009d2a <emovi+0x5a>
    80009d36:	00458793          	addi	a5,a1,4
    80009d3a:	05e9                	addi	a1,a1,26
    80009d3c:	0789                	addi	a5,a5,2
    80009d3e:	fe079f23          	sh	zero,-2(a5)
    80009d42:	feb79de3          	bne	a5,a1,80009d3c <emovi+0x6c>
    80009d46:	8082                	ret
    80009d48:	00658713          	addi	a4,a1,6
    80009d4c:	00059223          	sh	zero,4(a1)
    80009d50:	1571                	addi	a0,a0,-4
    80009d52:	0007d683          	lhu	a3,0(a5)
    80009d56:	17f9                	addi	a5,a5,-2
    80009d58:	0709                	addi	a4,a4,2
    80009d5a:	fed71f23          	sh	a3,-2(a4)
    80009d5e:	fef51ae3          	bne	a0,a5,80009d52 <emovi+0x82>
    80009d62:	8082                	ret

Disassembly of section .text.ecmp:

0000000080009d64 <ecmp>:
    80009d64:	01255783          	lhu	a5,18(a0)
    80009d68:	715d                	addi	sp,sp,-80
    80009d6a:	e0a2                	sd	s0,64(sp)
    80009d6c:	fff7c793          	not	a5,a5
    80009d70:	e486                	sd	ra,72(sp)
    80009d72:	03179713          	slli	a4,a5,0x31
    80009d76:	842e                	mv	s0,a1
    80009d78:	eb11                	bnez	a4,80009d8c <ecmp+0x28>
    80009d7a:	01250693          	addi	a3,a0,18
    80009d7e:	87aa                	mv	a5,a0
    80009d80:	0007d703          	lhu	a4,0(a5)
    80009d84:	0789                	addi	a5,a5,2
    80009d86:	eb25                	bnez	a4,80009df6 <ecmp+0x92>
    80009d88:	fed79ce3          	bne	a5,a3,80009d80 <ecmp+0x1c>
    80009d8c:	01245783          	lhu	a5,18(s0)
    80009d90:	fff7c793          	not	a5,a5
    80009d94:	03179713          	slli	a4,a5,0x31
    80009d98:	c331                	beqz	a4,80009ddc <ecmp+0x78>
    80009d9a:	858a                	mv	a1,sp
    80009d9c:	f35ff0ef          	jal	ra,80009cd0 <emovi>
    80009da0:	100c                	addi	a1,sp,32
    80009da2:	8522                	mv	a0,s0
    80009da4:	f2dff0ef          	jal	ra,80009cd0 <emovi>
    80009da8:	00015583          	lhu	a1,0(sp)
    80009dac:	02015783          	lhu	a5,32(sp)
    80009db0:	04b78863          	beq	a5,a1,80009e00 <ecmp+0x9c>
    80009db4:	00210793          	addi	a5,sp,2
    80009db8:	02210713          	addi	a4,sp,34
    80009dbc:	0830                	addi	a2,sp,24
    80009dbe:	0007d683          	lhu	a3,0(a5)
    80009dc2:	0789                	addi	a5,a5,2
    80009dc4:	eab5                	bnez	a3,80009e38 <ecmp+0xd4>
    80009dc6:	00075683          	lhu	a3,0(a4)
    80009dca:	0709                	addi	a4,a4,2
    80009dcc:	e6b5                	bnez	a3,80009e38 <ecmp+0xd4>
    80009dce:	fef618e3          	bne	a2,a5,80009dbe <ecmp+0x5a>
    80009dd2:	4501                	li	a0,0
    80009dd4:	60a6                	ld	ra,72(sp)
    80009dd6:	6406                	ld	s0,64(sp)
    80009dd8:	6161                	addi	sp,sp,80
    80009dda:	8082                	ret
    80009ddc:	87a2                	mv	a5,s0
    80009dde:	0007d703          	lhu	a4,0(a5)
    80009de2:	01240693          	addi	a3,s0,18
    80009de6:	0789                	addi	a5,a5,2
    80009de8:	e719                	bnez	a4,80009df6 <ecmp+0x92>
    80009dea:	fad788e3          	beq	a5,a3,80009d9a <ecmp+0x36>
    80009dee:	0007d703          	lhu	a4,0(a5)
    80009df2:	0789                	addi	a5,a5,2
    80009df4:	db7d                	beqz	a4,80009dea <ecmp+0x86>
    80009df6:	60a6                	ld	ra,72(sp)
    80009df8:	6406                	ld	s0,64(sp)
    80009dfa:	5579                	li	a0,-2
    80009dfc:	6161                	addi	sp,sp,80
    80009dfe:	8082                	ret
    80009e00:	557d                	li	a0,-1
    80009e02:	c1a9                	beqz	a1,80009e44 <ecmp+0xe0>
    80009e04:	878a                	mv	a5,sp
    80009e06:	0007d603          	lhu	a2,0(a5)
    80009e0a:	02015683          	lhu	a3,32(sp)
    80009e0e:	1018                	addi	a4,sp,32
    80009e10:	082c                	addi	a1,sp,24
    80009e12:	0789                	addi	a5,a5,2
    80009e14:	0709                	addi	a4,a4,2
    80009e16:	00d61c63          	bne	a2,a3,80009e2e <ecmp+0xca>
    80009e1a:	fab78ce3          	beq	a5,a1,80009dd2 <ecmp+0x6e>
    80009e1e:	0007d603          	lhu	a2,0(a5)
    80009e22:	00075683          	lhu	a3,0(a4)
    80009e26:	0789                	addi	a5,a5,2
    80009e28:	0709                	addi	a4,a4,2
    80009e2a:	fed608e3          	beq	a2,a3,80009e1a <ecmp+0xb6>
    80009e2e:	fac6e3e3          	bltu	a3,a2,80009dd4 <ecmp+0x70>
    80009e32:	40a0053b          	negw	a0,a0
    80009e36:	bf79                	j	80009dd4 <ecmp+0x70>
    80009e38:	e981                	bnez	a1,80009e48 <ecmp+0xe4>
    80009e3a:	60a6                	ld	ra,72(sp)
    80009e3c:	6406                	ld	s0,64(sp)
    80009e3e:	4505                	li	a0,1
    80009e40:	6161                	addi	sp,sp,80
    80009e42:	8082                	ret
    80009e44:	4505                	li	a0,1
    80009e46:	bf7d                	j	80009e04 <ecmp+0xa0>
    80009e48:	557d                	li	a0,-1
    80009e4a:	b769                	j	80009dd4 <ecmp+0x70>

Disassembly of section .text.emdnorm:

0000000080009e4c <emdnorm>:
    80009e4c:	7139                	addi	sp,sp,-64
    80009e4e:	f822                	sd	s0,48(sp)
    80009e50:	f426                	sd	s1,40(sp)
    80009e52:	f04a                	sd	s2,32(sp)
    80009e54:	ec4e                	sd	s3,24(sp)
    80009e56:	e852                	sd	s4,16(sp)
    80009e58:	e456                	sd	s5,8(sp)
    80009e5a:	8936                	mv	s2,a3
    80009e5c:	843e                	mv	s0,a5
    80009e5e:	fc06                	sd	ra,56(sp)
    80009e60:	84aa                	mv	s1,a0
    80009e62:	89ae                	mv	s3,a1
    80009e64:	8a32                	mv	s4,a2
    80009e66:	8aba                	mv	s5,a4
    80009e68:	c15ff0ef          	jal	ra,80009a7c <enormlz>
    80009e6c:	09000793          	li	a5,144
    80009e70:	40a90933          	sub	s2,s2,a0
    80009e74:	12a7d863          	bge	a5,a0,80009fa4 <emdnorm+0x158>
    80009e78:	67a1                	lui	a5,0x8
    80009e7a:	17f9                	addi	a5,a5,-2 # 7ffe <_tbss_end+0x7fba>
    80009e7c:	2327dd63          	bge	a5,s2,8000a0b6 <emdnorm+0x26a>
    80009e80:	1a0a8c63          	beqz	s5,8000a038 <emdnorm+0x1ec>
    80009e84:	00442a83          	lw	s5,4(s0)
    80009e88:	401c                	lw	a5,0(s0)
    80009e8a:	20fa8363          	beq	s5,a5,8000a090 <emdnorm+0x244>
    80009e8e:	01a40713          	addi	a4,s0,26
    80009e92:	03440793          	addi	a5,s0,52
    80009e96:	0709                	addi	a4,a4,2
    80009e98:	fe071f23          	sh	zero,-2(a4)
    80009e9c:	fee79de3          	bne	a5,a4,80009e96 <emdnorm+0x4a>
    80009ea0:	03800793          	li	a5,56
    80009ea4:	2afa8f63          	beq	s5,a5,8000a162 <emdnorm+0x316>
    80009ea8:	1557d663          	bge	a5,s5,80009ff4 <emdnorm+0x1a8>
    80009eac:	04000793          	li	a5,64
    80009eb0:	20fa8c63          	beq	s5,a5,8000a0c8 <emdnorm+0x27c>
    80009eb4:	07100793          	li	a5,113
    80009eb8:	2cfa9d63          	bne	s5,a5,8000a192 <emdnorm+0x346>
    80009ebc:	400087b7          	lui	a5,0x40008
    80009ec0:	46a9                	li	a3,10
    80009ec2:	7761                	lui	a4,0xffff8
    80009ec4:	17fd                	addi	a5,a5,-1 # 40007fff <__malloc_len+0x3d007fff>
    80009ec6:	c414                	sw	a3,8(s0)
    80009ec8:	c85c                	sw	a5,20(s0)
    80009eca:	00e41c23          	sh	a4,24(s0)
    80009ece:	c454                	sw	a3,12(s0)
    80009ed0:	02e41723          	sh	a4,46(s0)
    80009ed4:	01542023          	sw	s5,0(s0)
    80009ed8:	1b205263          	blez	s2,8000a07c <emdnorm+0x230>
    80009edc:	0144d603          	lhu	a2,20(s1)
    80009ee0:	01448593          	addi	a1,s1,20
    80009ee4:	47ad                	li	a5,11
    80009ee6:	1646                	slli	a2,a2,0x31
    80009ee8:	9245                	srli	a2,a2,0x31
    80009eea:	4731                	li	a4,12
    80009eec:	9f1d                	subw	a4,a4,a5
    80009eee:	1702                	slli	a4,a4,0x20
    80009ef0:	9301                	srli	a4,a4,0x20
    80009ef2:	973e                	add	a4,a4,a5
    80009ef4:	0706                	slli	a4,a4,0x1
    80009ef6:	0786                	slli	a5,a5,0x1
    80009ef8:	00248693          	addi	a3,s1,2
    80009efc:	97a6                	add	a5,a5,s1
    80009efe:	9736                	add	a4,a4,a3
    80009f00:	0007d683          	lhu	a3,0(a5)
    80009f04:	c299                	beqz	a3,80009f0a <emdnorm+0xbe>
    80009f06:	00166613          	ori	a2,a2,1
    80009f0a:	00079023          	sh	zero,0(a5)
    80009f0e:	0789                	addi	a5,a5,2
    80009f10:	fef718e3          	bne	a4,a5,80009f00 <emdnorm+0xb4>
    80009f14:	0005d703          	lhu	a4,0(a1)
    80009f18:	01445683          	lhu	a3,20(s0)
    80009f1c:	fff6c693          	not	a3,a3
    80009f20:	8f75                	and	a4,a4,a3
    80009f22:	00e59023          	sh	a4,0(a1)
    80009f26:	01645783          	lhu	a5,22(s0)
    80009f2a:	00c7f733          	and	a4,a5,a2
    80009f2e:	c721                	beqz	a4,80009f76 <emdnorm+0x12a>
    80009f30:	00c79d63          	bne	a5,a2,80009f4a <emdnorm+0xfe>
    80009f34:	22099463          	bnez	s3,8000a15c <emdnorm+0x310>
    80009f38:	445c                	lw	a5,12(s0)
    80009f3a:	01845703          	lhu	a4,24(s0)
    80009f3e:	0786                	slli	a5,a5,0x1
    80009f40:	97a6                	add	a5,a5,s1
    80009f42:	0007d783          	lhu	a5,0(a5)
    80009f46:	8ff9                	and	a5,a5,a4
    80009f48:	c79d                	beqz	a5,80009f76 <emdnorm+0x12a>
    80009f4a:	03240793          	addi	a5,s0,50
    80009f4e:	01848613          	addi	a2,s1,24
    80009f52:	00248513          	addi	a0,s1,2
    80009f56:	4581                	li	a1,0
    80009f58:	0007d703          	lhu	a4,0(a5)
    80009f5c:	00065683          	lhu	a3,0(a2)
    80009f60:	1679                	addi	a2,a2,-2
    80009f62:	17f9                	addi	a5,a5,-2
    80009f64:	9736                	add	a4,a4,a3
    80009f66:	972e                	add	a4,a4,a1
    80009f68:	01075593          	srli	a1,a4,0x10
    80009f6c:	00e61123          	sh	a4,2(a2)
    80009f70:	8985                	andi	a1,a1,1
    80009f72:	fec513e3          	bne	a0,a2,80009f58 <emdnorm+0x10c>
    80009f76:	1b205a63          	blez	s2,8000a12a <emdnorm+0x2de>
    80009f7a:	0044d783          	lhu	a5,4(s1)
    80009f7e:	18079b63          	bnez	a5,8000a114 <emdnorm+0x2c8>
    80009f82:	67a1                	lui	a5,0x8
    80009f84:	00049c23          	sh	zero,24(s1)
    80009f88:	17f9                	addi	a5,a5,-2 # 7ffe <_tbss_end+0x7fba>
    80009f8a:	0b27c963          	blt	a5,s2,8000a03c <emdnorm+0x1f0>
    80009f8e:	01249123          	sh	s2,2(s1)
    80009f92:	70e2                	ld	ra,56(sp)
    80009f94:	7442                	ld	s0,48(sp)
    80009f96:	74a2                	ld	s1,40(sp)
    80009f98:	7902                	ld	s2,32(sp)
    80009f9a:	69e2                	ld	s3,24(sp)
    80009f9c:	6a42                	ld	s4,16(sp)
    80009f9e:	6aa2                	ld	s5,8(sp)
    80009fa0:	6121                	addi	sp,sp,64
    80009fa2:	8082                	ret
    80009fa4:	02094b63          	bltz	s2,80009fda <emdnorm+0x18e>
    80009fa8:	fc0a8de3          	beqz	s5,80009f82 <emdnorm+0x136>
    80009fac:	00442a83          	lw	s5,4(s0)
    80009fb0:	401c                	lw	a5,0(s0)
    80009fb2:	ecfa9ee3          	bne	s5,a5,80009e8e <emdnorm+0x42>
    80009fb6:	23204263          	bgtz	s2,8000a1da <emdnorm+0x38e>
    80009fba:	09000713          	li	a4,144
    80009fbe:	22e79063          	bne	a5,a4,8000a1de <emdnorm+0x392>
    80009fc2:	440c                	lw	a1,8(s0)
    80009fc4:	01445683          	lhu	a3,20(s0)
    80009fc8:	09000a93          	li	s5,144
    80009fcc:	0586                	slli	a1,a1,0x1
    80009fce:	95a6                	add	a1,a1,s1
    80009fd0:	0005d703          	lhu	a4,0(a1)
    80009fd4:	00d77633          	and	a2,a4,a3
    80009fd8:	b791                	j	80009f1c <emdnorm+0xd0>
    80009fda:	f7000793          	li	a5,-144
    80009fde:	10f95c63          	bge	s2,a5,8000a0f6 <emdnorm+0x2aa>
    80009fe2:	00248793          	addi	a5,s1,2
    80009fe6:	04e9                	addi	s1,s1,26
    80009fe8:	0789                	addi	a5,a5,2
    80009fea:	fe079f23          	sh	zero,-2(a5)
    80009fee:	fe979de3          	bne	a5,s1,80009fe8 <emdnorm+0x19c>
    80009ff2:	b745                	j	80009f92 <emdnorm+0x146>
    80009ff4:	47e1                	li	a5,24
    80009ff6:	06fa8163          	beq	s5,a5,8000a058 <emdnorm+0x20c>
    80009ffa:	03500793          	li	a5,53
    80009ffe:	18fa9a63          	bne	s5,a5,8000a192 <emdnorm+0x346>
    8000a002:	6785                	lui	a5,0x1
    8000a004:	04000737          	lui	a4,0x4000
    8000a008:	4699                	li	a3,6
    8000a00a:	80078793          	addi	a5,a5,-2048 # 800 <_tbss_end+0x7bc>
    8000a00e:	7ff70713          	addi	a4,a4,2047 # 40007ff <__malloc_len+0x10007ff>
    8000a012:	c414                	sw	a3,8(s0)
    8000a014:	c858                	sw	a4,20(s0)
    8000a016:	00f41c23          	sh	a5,24(s0)
    8000a01a:	c454                	sw	a3,12(s0)
    8000a01c:	02f41323          	sh	a5,38(s0)
    8000a020:	01542023          	sw	s5,0(s0)
    8000a024:	05205c63          	blez	s2,8000a07c <emdnorm+0x230>
    8000a028:	00c4d603          	lhu	a2,12(s1)
    8000a02c:	00c48593          	addi	a1,s1,12
    8000a030:	479d                	li	a5,7
    8000a032:	7ff67613          	andi	a2,a2,2047
    8000a036:	bd55                	j	80009eea <emdnorm+0x9e>
    8000a038:	00049c23          	sh	zero,24(s1)
    8000a03c:	77e1                	lui	a5,0xffff8
    8000a03e:	fff7c793          	not	a5,a5
    8000a042:	00f49123          	sh	a5,2(s1)
    8000a046:	00448793          	addi	a5,s1,4
    8000a04a:	04e1                	addi	s1,s1,24
    8000a04c:	00079023          	sh	zero,0(a5) # ffffffffffff8000 <_end+0xffffffff7cfe6dc0>
    8000a050:	0789                	addi	a5,a5,2
    8000a052:	fe979de3          	bne	a5,s1,8000a04c <emdnorm+0x200>
    8000a056:	bf35                	j	80009f92 <emdnorm+0x146>
    8000a058:	008007b7          	lui	a5,0x800
    8000a05c:	4691                	li	a3,4
    8000a05e:	10000713          	li	a4,256
    8000a062:	0ff78793          	addi	a5,a5,255 # 8000ff <_tbss_end+0x8000bb>
    8000a066:	c414                	sw	a3,8(s0)
    8000a068:	c85c                	sw	a5,20(s0)
    8000a06a:	00e41c23          	sh	a4,24(s0)
    8000a06e:	c454                	sw	a3,12(s0)
    8000a070:	02e41123          	sh	a4,34(s0)
    8000a074:	01542023          	sw	s5,0(s0)
    8000a078:	15204663          	bgtz	s2,8000a1c4 <emdnorm+0x378>
    8000a07c:	0184d783          	lhu	a5,24(s1)
    8000a080:	8526                	mv	a0,s1
    8000a082:	8b85                	andi	a5,a5,1
    8000a084:	00f9e7b3          	or	a5,s3,a5
    8000a088:	0007899b          	sext.w	s3,a5
    8000a08c:	883ff0ef          	jal	ra,8000990e <eshdn1>
    8000a090:	441c                	lw	a5,8(s0)
    8000a092:	01445683          	lhu	a3,20(s0)
    8000a096:	08f00513          	li	a0,143
    8000a09a:	00179593          	slli	a1,a5,0x1
    8000a09e:	95a6                	add	a1,a1,s1
    8000a0a0:	0005d703          	lhu	a4,0(a1)
    8000a0a4:	00d77633          	and	a2,a4,a3
    8000a0a8:	e7554ae3          	blt	a0,s5,80009f1c <emdnorm+0xd0>
    8000a0ac:	2785                	addiw	a5,a5,1
    8000a0ae:	4531                	li	a0,12
    8000a0b0:	e2f55de3          	bge	a0,a5,80009eea <emdnorm+0x9e>
    8000a0b4:	b5a5                	j	80009f1c <emdnorm+0xd0>
    8000a0b6:	00248793          	addi	a5,s1,2
    8000a0ba:	04e9                	addi	s1,s1,26
    8000a0bc:	0789                	addi	a5,a5,2
    8000a0be:	fe079f23          	sh	zero,-2(a5)
    8000a0c2:	fe979de3          	bne	a5,s1,8000a0bc <emdnorm+0x270>
    8000a0c6:	b5f1                	j	80009f92 <emdnorm+0x146>
    8000a0c8:	479d                	li	a5,7
    8000a0ca:	c41c                	sw	a5,8(s0)
    8000a0cc:	800107b7          	lui	a5,0x80010
    8000a0d0:	17fd                	addi	a5,a5,-1 # ffffffff8000ffff <_end+0xfffffffefcffedbf>
    8000a0d2:	4705                	li	a4,1
    8000a0d4:	c85c                	sw	a5,20(s0)
    8000a0d6:	4799                	li	a5,6
    8000a0d8:	00e41c23          	sh	a4,24(s0)
    8000a0dc:	c45c                	sw	a5,12(s0)
    8000a0de:	02e41323          	sh	a4,38(s0)
    8000a0e2:	01542023          	sw	s5,0(s0)
    8000a0e6:	f9205be3          	blez	s2,8000a07c <emdnorm+0x230>
    8000a0ea:	00e4d603          	lhu	a2,14(s1)
    8000a0ee:	00e48593          	addi	a1,s1,14
    8000a0f2:	47a1                	li	a5,8
    8000a0f4:	bbdd                	j	80009eea <emdnorm+0x9e>
    8000a0f6:	0009059b          	sext.w	a1,s2
    8000a0fa:	8526                	mv	a0,s1
    8000a0fc:	a8dff0ef          	jal	ra,80009b88 <eshift.part.0>
    8000a100:	c955                	beqz	a0,8000a1b4 <emdnorm+0x368>
    8000a102:	0c0a8763          	beqz	s5,8000a1d0 <emdnorm+0x384>
    8000a106:	00442a83          	lw	s5,4(s0)
    8000a10a:	401c                	lw	a5,0(s0)
    8000a10c:	4985                	li	s3,1
    8000a10e:	d8fa90e3          	bne	s5,a5,80009e8e <emdnorm+0x42>
    8000a112:	b565                	j	80009fba <emdnorm+0x16e>
    8000a114:	8526                	mv	a0,s1
    8000a116:	ff8ff0ef          	jal	ra,8000990e <eshdn1>
    8000a11a:	67a1                	lui	a5,0x8
    8000a11c:	0905                	addi	s2,s2,1
    8000a11e:	00049c23          	sh	zero,24(s1)
    8000a122:	17f9                	addi	a5,a5,-2 # 7ffe <_tbss_end+0x7fba>
    8000a124:	f127cce3          	blt	a5,s2,8000a03c <emdnorm+0x1f0>
    8000a128:	b59d                	j	80009f8e <emdnorm+0x142>
    8000a12a:	09000793          	li	a5,144
    8000a12e:	00fa8f63          	beq	s5,a5,8000a14c <emdnorm+0x300>
    8000a132:	8526                	mv	a0,s1
    8000a134:	819ff0ef          	jal	ra,8000994c <eshup1>
    8000a138:	0044d783          	lhu	a5,4(s1)
    8000a13c:	eb99                	bnez	a5,8000a152 <emdnorm+0x306>
    8000a13e:	00049c23          	sh	zero,24(s1)
    8000a142:	e40956e3          	bgez	s2,80009f8e <emdnorm+0x142>
    8000a146:	00049123          	sh	zero,2(s1)
    8000a14a:	b5a1                	j	80009f92 <emdnorm+0x146>
    8000a14c:	0044d783          	lhu	a5,4(s1)
    8000a150:	d7fd                	beqz	a5,8000a13e <emdnorm+0x2f2>
    8000a152:	8526                	mv	a0,s1
    8000a154:	fbaff0ef          	jal	ra,8000990e <eshdn1>
    8000a158:	0905                	addi	s2,s2,1
    8000a15a:	b7d5                	j	8000a13e <emdnorm+0x2f2>
    8000a15c:	de0a07e3          	beqz	s4,80009f4a <emdnorm+0xfe>
    8000a160:	bd19                	j	80009f76 <emdnorm+0x12a>
    8000a162:	008007b7          	lui	a5,0x800
    8000a166:	4699                	li	a3,6
    8000a168:	10000713          	li	a4,256
    8000a16c:	0ff78793          	addi	a5,a5,255 # 8000ff <_tbss_end+0x8000bb>
    8000a170:	c414                	sw	a3,8(s0)
    8000a172:	c85c                	sw	a5,20(s0)
    8000a174:	00e41c23          	sh	a4,24(s0)
    8000a178:	c454                	sw	a3,12(s0)
    8000a17a:	02e41323          	sh	a4,38(s0)
    8000a17e:	01542023          	sw	s5,0(s0)
    8000a182:	ef205de3          	blez	s2,8000a07c <emdnorm+0x230>
    8000a186:	00c4c603          	lbu	a2,12(s1)
    8000a18a:	00c48593          	addi	a1,s1,12
    8000a18e:	479d                	li	a5,7
    8000a190:	bba9                	j	80009eea <emdnorm+0x9e>
    8000a192:	47b1                	li	a5,12
    8000a194:	c41c                	sw	a5,8(s0)
    8000a196:	800107b7          	lui	a5,0x80010
    8000a19a:	17fd                	addi	a5,a5,-1 # ffffffff8000ffff <_end+0xfffffffefcffedbf>
    8000a19c:	4705                	li	a4,1
    8000a19e:	c85c                	sw	a5,20(s0)
    8000a1a0:	47ad                	li	a5,11
    8000a1a2:	c45c                	sw	a5,12(s0)
    8000a1a4:	00e41c23          	sh	a4,24(s0)
    8000a1a8:	02e41823          	sh	a4,48(s0)
    8000a1ac:	01542023          	sw	s5,0(s0)
    8000a1b0:	87d6                	mv	a5,s5
    8000a1b2:	b511                	j	80009fb6 <emdnorm+0x16a>
    8000a1b4:	000a8e63          	beqz	s5,8000a1d0 <emdnorm+0x384>
    8000a1b8:	00442a83          	lw	s5,4(s0)
    8000a1bc:	401c                	lw	a5,0(s0)
    8000a1be:	ccfa98e3          	bne	s5,a5,80009e8e <emdnorm+0x42>
    8000a1c2:	bbe5                	j	80009fba <emdnorm+0x16e>
    8000a1c4:	0084c603          	lbu	a2,8(s1)
    8000a1c8:	00848593          	addi	a1,s1,8
    8000a1cc:	4795                	li	a5,5
    8000a1ce:	bb31                	j	80009eea <emdnorm+0x9e>
    8000a1d0:	00049c23          	sh	zero,24(s1)
    8000a1d4:	00049123          	sh	zero,2(s1)
    8000a1d8:	bb6d                	j	80009f92 <emdnorm+0x146>
    8000a1da:	8abe                	mv	s5,a5
    8000a1dc:	bd55                	j	8000a090 <emdnorm+0x244>
    8000a1de:	8abe                	mv	s5,a5
    8000a1e0:	bd71                	j	8000a07c <emdnorm+0x230>

Disassembly of section .text.eiremain:

000000008000a1e2 <eiremain>:
    8000a1e2:	711d                	addi	sp,sp,-96
    8000a1e4:	e0ca                	sd	s2,64(sp)
    8000a1e6:	fc4e                	sd	s3,56(sp)
    8000a1e8:	892e                	mv	s2,a1
    8000a1ea:	00255983          	lhu	s3,2(a0)
    8000a1ee:	ec86                	sd	ra,88(sp)
    8000a1f0:	e8a2                	sd	s0,80(sp)
    8000a1f2:	e4a6                	sd	s1,72(sp)
    8000a1f4:	f852                	sd	s4,48(sp)
    8000a1f6:	84b2                	mv	s1,a2
    8000a1f8:	ec5e                	sd	s7,24(sp)
    8000a1fa:	f456                	sd	s5,40(sp)
    8000a1fc:	f05a                	sd	s6,32(sp)
    8000a1fe:	e862                	sd	s8,16(sp)
    8000a200:	e466                	sd	s9,8(sp)
    8000a202:	e06a                	sd	s10,0(sp)
    8000a204:	8baa                	mv	s7,a0
    8000a206:	877ff0ef          	jal	ra,80009a7c <enormlz>
    8000a20a:	00295403          	lhu	s0,2(s2)
    8000a20e:	87aa                	mv	a5,a0
    8000a210:	854a                	mv	a0,s2
    8000a212:	40f989b3          	sub	s3,s3,a5
    8000a216:	03448a13          	addi	s4,s1,52
    8000a21a:	863ff0ef          	jal	ra,80009a7c <enormlz>
    8000a21e:	8c09                	sub	s0,s0,a0
    8000a220:	04e48713          	addi	a4,s1,78
    8000a224:	87d2                	mv	a5,s4
    8000a226:	0789                	addi	a5,a5,2
    8000a228:	fe079f23          	sh	zero,-2(a5)
    8000a22c:	fee79de3          	bne	a5,a4,8000a226 <eiremain+0x44>
    8000a230:	07344a63          	blt	s0,s3,8000a2a4 <eiremain+0xc2>
    8000a234:	004b8b13          	addi	s6,s7,4
    8000a238:	00490a93          	addi	s5,s2,4
    8000a23c:	01ab8c13          	addi	s8,s7,26
    8000a240:	00290d13          	addi	s10,s2,2
    8000a244:	8756                	mv	a4,s5
    8000a246:	87da                	mv	a5,s6
    8000a248:	0007d603          	lhu	a2,0(a5)
    8000a24c:	00075683          	lhu	a3,0(a4)
    8000a250:	0789                	addi	a5,a5,2
    8000a252:	0709                	addi	a4,a4,2
    8000a254:	06d61c63          	bne	a2,a3,8000a2cc <eiremain+0xea>
    8000a258:	fefc18e3          	bne	s8,a5,8000a248 <eiremain+0x66>
    8000a25c:	018b8613          	addi	a2,s7,24
    8000a260:	01890713          	addi	a4,s2,24
    8000a264:	4681                	li	a3,0
    8000a266:	00075783          	lhu	a5,0(a4)
    8000a26a:	00065583          	lhu	a1,0(a2)
    8000a26e:	1779                	addi	a4,a4,-2
    8000a270:	1679                	addi	a2,a2,-2
    8000a272:	8f8d                	sub	a5,a5,a1
    8000a274:	8f95                	sub	a5,a5,a3
    8000a276:	0107d693          	srli	a3,a5,0x10
    8000a27a:	00f71123          	sh	a5,2(a4)
    8000a27e:	8a85                	andi	a3,a3,1
    8000a280:	ffa713e3          	bne	a4,s10,8000a266 <eiremain+0x84>
    8000a284:	4c85                	li	s9,1
    8000a286:	8552                	mv	a0,s4
    8000a288:	ec4ff0ef          	jal	ra,8000994c <eshup1>
    8000a28c:	04c4d783          	lhu	a5,76(s1)
    8000a290:	147d                	addi	s0,s0,-1
    8000a292:	854a                	mv	a0,s2
    8000a294:	00fce7b3          	or	a5,s9,a5
    8000a298:	04f49623          	sh	a5,76(s1)
    8000a29c:	eb0ff0ef          	jal	ra,8000994c <eshup1>
    8000a2a0:	fb3452e3          	bge	s0,s3,8000a244 <eiremain+0x62>
    8000a2a4:	86a2                	mv	a3,s0
    8000a2a6:	6446                	ld	s0,80(sp)
    8000a2a8:	60e6                	ld	ra,88(sp)
    8000a2aa:	79e2                	ld	s3,56(sp)
    8000a2ac:	7a42                	ld	s4,48(sp)
    8000a2ae:	7aa2                	ld	s5,40(sp)
    8000a2b0:	7b02                	ld	s6,32(sp)
    8000a2b2:	6be2                	ld	s7,24(sp)
    8000a2b4:	6c42                	ld	s8,16(sp)
    8000a2b6:	6ca2                	ld	s9,8(sp)
    8000a2b8:	6d02                	ld	s10,0(sp)
    8000a2ba:	87a6                	mv	a5,s1
    8000a2bc:	854a                	mv	a0,s2
    8000a2be:	64a6                	ld	s1,72(sp)
    8000a2c0:	6906                	ld	s2,64(sp)
    8000a2c2:	4701                	li	a4,0
    8000a2c4:	4601                	li	a2,0
    8000a2c6:	4581                	li	a1,0
    8000a2c8:	6125                	addi	sp,sp,96
    8000a2ca:	b649                	j	80009e4c <emdnorm>
    8000a2cc:	4c81                	li	s9,0
    8000a2ce:	fac6ece3          	bltu	a3,a2,8000a286 <eiremain+0xa4>
    8000a2d2:	b769                	j	8000a25c <eiremain+0x7a>

Disassembly of section .text.e113toe.isra.0:

000000008000a2d4 <e113toe.isra.0>:
    8000a2d4:	7179                	addi	sp,sp,-48
    8000a2d6:	f022                	sd	s0,32(sp)
    8000a2d8:	f406                	sd	ra,40(sp)
    8000a2da:	842e                	mv	s0,a1
    8000a2dc:	878a                	mv	a5,sp
    8000a2de:	01a10713          	addi	a4,sp,26
    8000a2e2:	0789                	addi	a5,a5,2
    8000a2e4:	fe079f23          	sh	zero,-2(a5)
    8000a2e8:	fee79de3          	bne	a5,a4,8000a2e2 <e113toe.isra.0+0xe>
    8000a2ec:	00e55783          	lhu	a5,14(a0)
    8000a2f0:	6721                	lui	a4,0x8
    8000a2f2:	177d                	addi	a4,a4,-1 # 7fff <_tbss_end+0x7fbb>
    8000a2f4:	03079693          	slli	a3,a5,0x30
    8000a2f8:	96fd                	srai	a3,a3,0x3f
    8000a2fa:	00d11023          	sh	a3,0(sp)
    8000a2fe:	00e7f6b3          	and	a3,a5,a4
    8000a302:	8636                	mv	a2,a3
    8000a304:	04e68363          	beq	a3,a4,8000a34a <e113toe.isra.0+0x76>
    8000a308:	00e50793          	addi	a5,a0,14
    8000a30c:	00d11123          	sh	a3,2(sp)
    8000a310:	00610713          	addi	a4,sp,6
    8000a314:	ffe7d683          	lhu	a3,-2(a5)
    8000a318:	17f9                	addi	a5,a5,-2
    8000a31a:	0709                	addi	a4,a4,2
    8000a31c:	fed71f23          	sh	a3,-2(a4)
    8000a320:	fef51ae3          	bne	a0,a5,8000a314 <e113toe.isra.0+0x40>
    8000a324:	ea19                	bnez	a2,8000a33a <e113toe.isra.0+0x66>
    8000a326:	00011223          	sh	zero,4(sp)
    8000a32a:	85a2                	mv	a1,s0
    8000a32c:	850a                	mv	a0,sp
    8000a32e:	ec2ff0ef          	jal	ra,800099f0 <emovo.constprop.0>
    8000a332:	70a2                	ld	ra,40(sp)
    8000a334:	7402                	ld	s0,32(sp)
    8000a336:	6145                	addi	sp,sp,48
    8000a338:	8082                	ret
    8000a33a:	4785                	li	a5,1
    8000a33c:	55fd                	li	a1,-1
    8000a33e:	850a                	mv	a0,sp
    8000a340:	00f11223          	sh	a5,4(sp)
    8000a344:	845ff0ef          	jal	ra,80009b88 <eshift.part.0>
    8000a348:	b7cd                	j	8000a32a <e113toe.isra.0+0x56>
    8000a34a:	87aa                	mv	a5,a0
    8000a34c:	00e50693          	addi	a3,a0,14
    8000a350:	0007d703          	lhu	a4,0(a5)
    8000a354:	0789                	addi	a5,a5,2
    8000a356:	ef21                	bnez	a4,8000a3ae <e113toe.isra.0+0xda>
    8000a358:	fed79ce3          	bne	a5,a3,8000a350 <e113toe.isra.0+0x7c>
    8000a35c:	01440713          	addi	a4,s0,20
    8000a360:	87a2                	mv	a5,s0
    8000a362:	0789                	addi	a5,a5,2
    8000a364:	fe079f23          	sh	zero,-2(a5)
    8000a368:	fee79de3          	bne	a5,a4,8000a362 <e113toe.isra.0+0x8e>
    8000a36c:	01240713          	addi	a4,s0,18
    8000a370:	87a2                	mv	a5,s0
    8000a372:	0789                	addi	a5,a5,2
    8000a374:	fe079f23          	sh	zero,-2(a5)
    8000a378:	fee79de3          	bne	a5,a4,8000a372 <e113toe.isra.0+0x9e>
    8000a37c:	01245783          	lhu	a5,18(s0)
    8000a380:	66a1                	lui	a3,0x8
    8000a382:	16fd                	addi	a3,a3,-1 # 7fff <_tbss_end+0x7fbb>
    8000a384:	8fd5                	or	a5,a5,a3
    8000a386:	17c2                	slli	a5,a5,0x30
    8000a388:	93c1                	srli	a5,a5,0x30
    8000a38a:	00f41923          	sh	a5,18(s0)
    8000a38e:	00e51683          	lh	a3,14(a0)
    8000a392:	fa06d0e3          	bgez	a3,8000a332 <e113toe.isra.0+0x5e>
    8000a396:	86a2                	mv	a3,s0
    8000a398:	0006d603          	lhu	a2,0(a3)
    8000a39c:	0689                	addi	a3,a3,2
    8000a39e:	fa51                	bnez	a2,8000a332 <e113toe.isra.0+0x5e>
    8000a3a0:	fee69ce3          	bne	a3,a4,8000a398 <e113toe.isra.0+0xc4>
    8000a3a4:	7761                	lui	a4,0xffff8
    8000a3a6:	8fb9                	xor	a5,a5,a4
    8000a3a8:	00f41923          	sh	a5,18(s0)
    8000a3ac:	b759                	j	8000a332 <e113toe.isra.0+0x5e>
    8000a3ae:	01040713          	addi	a4,s0,16
    8000a3b2:	87a2                	mv	a5,s0
    8000a3b4:	0789                	addi	a5,a5,2
    8000a3b6:	fe079f23          	sh	zero,-2(a5)
    8000a3ba:	fee79de3          	bne	a5,a4,8000a3b4 <e113toe.isra.0+0xe0>
    8000a3be:	77f1                	lui	a5,0xffffc
    8000a3c0:	00f41823          	sh	a5,16(s0)
    8000a3c4:	77e1                	lui	a5,0xffff8
    8000a3c6:	fff7c793          	not	a5,a5
    8000a3ca:	00f41923          	sh	a5,18(s0)
    8000a3ce:	b795                	j	8000a332 <e113toe.isra.0+0x5e>

Disassembly of section .text.ediv:

000000008000a3d0 <ediv>:
    8000a3d0:	01255783          	lhu	a5,18(a0)
    8000a3d4:	7151                	addi	sp,sp,-240
    8000a3d6:	f1a2                	sd	s0,224(sp)
    8000a3d8:	fff7c793          	not	a5,a5
    8000a3dc:	eda6                	sd	s1,216(sp)
    8000a3de:	e9ca                	sd	s2,208(sp)
    8000a3e0:	e5ce                	sd	s3,200(sp)
    8000a3e2:	f586                	sd	ra,232(sp)
    8000a3e4:	e1d2                	sd	s4,192(sp)
    8000a3e6:	fd56                	sd	s5,184(sp)
    8000a3e8:	f95a                	sd	s6,176(sp)
    8000a3ea:	f55e                	sd	s7,168(sp)
    8000a3ec:	f162                	sd	s8,160(sp)
    8000a3ee:	ed66                	sd	s9,152(sp)
    8000a3f0:	e96a                	sd	s10,144(sp)
    8000a3f2:	e56e                	sd	s11,136(sp)
    8000a3f4:	03179713          	slli	a4,a5,0x31
    8000a3f8:	84aa                	mv	s1,a0
    8000a3fa:	89ae                	mv	s3,a1
    8000a3fc:	8432                	mv	s0,a2
    8000a3fe:	8936                	mv	s2,a3
    8000a400:	eb11                	bnez	a4,8000a414 <ediv+0x44>
    8000a402:	01250693          	addi	a3,a0,18
    8000a406:	87aa                	mv	a5,a0
    8000a408:	0007d703          	lhu	a4,0(a5) # ffffffffffff8000 <_end+0xffffffff7cfe6dc0>
    8000a40c:	0789                	addi	a5,a5,2
    8000a40e:	ef4d                	bnez	a4,8000a4c8 <ediv+0xf8>
    8000a410:	fed79ce3          	bne	a5,a3,8000a408 <ediv+0x38>
    8000a414:	0129d783          	lhu	a5,18(s3)
    8000a418:	fff7c793          	not	a5,a5
    8000a41c:	03179713          	slli	a4,a5,0x31
    8000a420:	eb11                	bnez	a4,8000a434 <ediv+0x64>
    8000a422:	01298693          	addi	a3,s3,18
    8000a426:	87ce                	mv	a5,s3
    8000a428:	0007d703          	lhu	a4,0(a5)
    8000a42c:	0789                	addi	a5,a5,2
    8000a42e:	eb45                	bnez	a4,8000a4de <ediv+0x10e>
    8000a430:	fed79ce3          	bne	a5,a3,8000a428 <ediv+0x58>
    8000a434:	00005597          	auipc	a1,0x5
    8000a438:	82c58593          	addi	a1,a1,-2004 # 8000ec60 <ezero>
    8000a43c:	8526                	mv	a0,s1
    8000a43e:	927ff0ef          	jal	ra,80009d64 <ecmp>
    8000a442:	12050763          	beqz	a0,8000a570 <ediv+0x1a0>
    8000a446:	0124d603          	lhu	a2,18(s1)
    8000a44a:	67a1                	lui	a5,0x8
    8000a44c:	17fd                	addi	a5,a5,-1 # 7fff <_tbss_end+0x7fbb>
    8000a44e:	00f67533          	and	a0,a2,a5
    8000a452:	0af51163          	bne	a0,a5,8000a4f4 <ediv+0x124>
    8000a456:	01248693          	addi	a3,s1,18
    8000a45a:	87a6                	mv	a5,s1
    8000a45c:	0007d703          	lhu	a4,0(a5)
    8000a460:	0789                	addi	a5,a5,2
    8000a462:	eb49                	bnez	a4,8000a4f4 <ediv+0x124>
    8000a464:	fed79ce3          	bne	a5,a3,8000a45c <ediv+0x8c>
    8000a468:	0129d703          	lhu	a4,18(s3)
    8000a46c:	fff74793          	not	a5,a4
    8000a470:	03179693          	slli	a3,a5,0x31
    8000a474:	e6f5                	bnez	a3,8000a560 <ediv+0x190>
    8000a476:	01298693          	addi	a3,s3,18
    8000a47a:	87ce                	mv	a5,s3
    8000a47c:	0007d583          	lhu	a1,0(a5)
    8000a480:	0789                	addi	a5,a5,2
    8000a482:	36059c63          	bnez	a1,8000a7fa <ediv+0x42a>
    8000a486:	fed79be3          	bne	a5,a3,8000a47c <ediv+0xac>
    8000a48a:	01040713          	addi	a4,s0,16
    8000a48e:	87a2                	mv	a5,s0
    8000a490:	0789                	addi	a5,a5,2
    8000a492:	fe079f23          	sh	zero,-2(a5)
    8000a496:	fee79de3          	bne	a5,a4,8000a490 <ediv+0xc0>
    8000a49a:	77f1                	lui	a5,0xffffc
    8000a49c:	00f41823          	sh	a5,16(s0)
    8000a4a0:	77e1                	lui	a5,0xffff8
    8000a4a2:	fff7c793          	not	a5,a5
    8000a4a6:	00f41923          	sh	a5,18(s0)
    8000a4aa:	70ae                	ld	ra,232(sp)
    8000a4ac:	740e                	ld	s0,224(sp)
    8000a4ae:	64ee                	ld	s1,216(sp)
    8000a4b0:	694e                	ld	s2,208(sp)
    8000a4b2:	69ae                	ld	s3,200(sp)
    8000a4b4:	6a0e                	ld	s4,192(sp)
    8000a4b6:	7aea                	ld	s5,184(sp)
    8000a4b8:	7b4a                	ld	s6,176(sp)
    8000a4ba:	7baa                	ld	s7,168(sp)
    8000a4bc:	7c0a                	ld	s8,160(sp)
    8000a4be:	6cea                	ld	s9,152(sp)
    8000a4c0:	6d4a                	ld	s10,144(sp)
    8000a4c2:	6daa                	ld	s11,136(sp)
    8000a4c4:	616d                	addi	sp,sp,240
    8000a4c6:	8082                	ret
    8000a4c8:	01448713          	addi	a4,s1,20
    8000a4cc:	0004d783          	lhu	a5,0(s1)
    8000a4d0:	0489                	addi	s1,s1,2
    8000a4d2:	0409                	addi	s0,s0,2
    8000a4d4:	fef41f23          	sh	a5,-2(s0)
    8000a4d8:	fee49ae3          	bne	s1,a4,8000a4cc <ediv+0xfc>
    8000a4dc:	b7f9                	j	8000a4aa <ediv+0xda>
    8000a4de:	01440713          	addi	a4,s0,20
    8000a4e2:	0009d783          	lhu	a5,0(s3)
    8000a4e6:	0409                	addi	s0,s0,2
    8000a4e8:	0989                	addi	s3,s3,2
    8000a4ea:	fef41f23          	sh	a5,-2(s0)
    8000a4ee:	fee41ae3          	bne	s0,a4,8000a4e2 <ediv+0x112>
    8000a4f2:	bf65                	j	8000a4aa <ediv+0xda>
    8000a4f4:	0129d703          	lhu	a4,18(s3)
    8000a4f8:	fff74793          	not	a5,a4
    8000a4fc:	03179693          	slli	a3,a5,0x31
    8000a500:	e2d1                	bnez	a3,8000a584 <ediv+0x1b4>
    8000a502:	4801                	li	a6,0
    8000a504:	01298693          	addi	a3,s3,18
    8000a508:	87ce                	mv	a5,s3
    8000a50a:	0007d583          	lhu	a1,0(a5) # ffffffffffff8000 <_end+0xffffffff7cfe6dc0>
    8000a50e:	0789                	addi	a5,a5,2
    8000a510:	e5b1                	bnez	a1,8000a55c <ediv+0x18c>
    8000a512:	fed79ce3          	bne	a5,a3,8000a50a <ediv+0x13a>
    8000a516:	67a1                	lui	a5,0x8
    8000a518:	17fd                	addi	a5,a5,-1 # 7fff <_tbss_end+0x7fbb>
    8000a51a:	0af50663          	beq	a0,a5,8000a5c6 <ediv+0x1f6>
    8000a51e:	823d                	srli	a2,a2,0xf
    8000a520:	0009d783          	lhu	a5,0(s3)
    8000a524:	0989                	addi	s3,s3,2
    8000a526:	2c079663          	bnez	a5,8000a7f2 <ediv+0x422>
    8000a52a:	fed99be3          	bne	s3,a3,8000a520 <ediv+0x150>
    8000a52e:	00f75793          	srli	a5,a4,0xf
    8000a532:	8fb1                	xor	a5,a5,a2
    8000a534:	00f7979b          	slliw	a5,a5,0xf
    8000a538:	00f41923          	sh	a5,18(s0)
    8000a53c:	01240713          	addi	a4,s0,18
    8000a540:	87a2                	mv	a5,s0
    8000a542:	0789                	addi	a5,a5,2
    8000a544:	fe079f23          	sh	zero,-2(a5)
    8000a548:	fee79de3          	bne	a5,a4,8000a542 <ediv+0x172>
    8000a54c:	01245783          	lhu	a5,18(s0)
    8000a550:	6721                	lui	a4,0x8
    8000a552:	177d                	addi	a4,a4,-1 # 7fff <_tbss_end+0x7fbb>
    8000a554:	8fd9                	or	a5,a5,a4
    8000a556:	00f41923          	sh	a5,18(s0)
    8000a55a:	bf81                	j	8000a4aa <ediv+0xda>
    8000a55c:	02080463          	beqz	a6,8000a584 <ediv+0x1b4>
    8000a560:	01440793          	addi	a5,s0,20
    8000a564:	0409                	addi	s0,s0,2
    8000a566:	fe041f23          	sh	zero,-2(s0)
    8000a56a:	fef41de3          	bne	s0,a5,8000a564 <ediv+0x194>
    8000a56e:	bf35                	j	8000a4aa <ediv+0xda>
    8000a570:	00004597          	auipc	a1,0x4
    8000a574:	6f058593          	addi	a1,a1,1776 # 8000ec60 <ezero>
    8000a578:	854e                	mv	a0,s3
    8000a57a:	feaff0ef          	jal	ra,80009d64 <ecmp>
    8000a57e:	ec0514e3          	bnez	a0,8000a446 <ediv+0x76>
    8000a582:	b721                	j	8000a48a <ediv+0xba>
    8000a584:	100c                	addi	a1,sp,32
    8000a586:	8526                	mv	a0,s1
    8000a588:	f48ff0ef          	jal	ra,80009cd0 <emovi>
    8000a58c:	008c                	addi	a1,sp,64
    8000a58e:	854e                	mv	a0,s3
    8000a590:	f40ff0ef          	jal	ra,80009cd0 <emovi>
    8000a594:	04215b03          	lhu	s6,66(sp)
    8000a598:	02215c03          	lhu	s8,34(sp)
    8000a59c:	020b1f63          	bnez	s6,8000a5da <ediv+0x20a>
    8000a5a0:	04210793          	addi	a5,sp,66
    8000a5a4:	05810c93          	addi	s9,sp,88
    8000a5a8:	0007d703          	lhu	a4,0(a5)
    8000a5ac:	0789                	addi	a5,a5,2
    8000a5ae:	22071463          	bnez	a4,8000a7d6 <ediv+0x406>
    8000a5b2:	fefc9be3          	bne	s9,a5,8000a5a8 <ediv+0x1d8>
    8000a5b6:	01440793          	addi	a5,s0,20
    8000a5ba:	0409                	addi	s0,s0,2
    8000a5bc:	fe041f23          	sh	zero,-2(s0)
    8000a5c0:	fef41de3          	bne	s0,a5,8000a5ba <ediv+0x1ea>
    8000a5c4:	b5dd                	j	8000a4aa <ediv+0xda>
    8000a5c6:	01248593          	addi	a1,s1,18
    8000a5ca:	0004d783          	lhu	a5,0(s1)
    8000a5ce:	0489                	addi	s1,s1,2
    8000a5d0:	22079363          	bnez	a5,8000a7f6 <ediv+0x426>
    8000a5d4:	feb49be3          	bne	s1,a1,8000a5ca <ediv+0x1fa>
    8000a5d8:	b799                	j	8000a51e <ediv+0x14e>
    8000a5da:	e45a                	sd	s6,8(sp)
    8000a5dc:	040c1063          	bnez	s8,8000a61c <ediv+0x24c>
    8000a5e0:	02210793          	addi	a5,sp,34
    8000a5e4:	1834                	addi	a3,sp,56
    8000a5e6:	0007d703          	lhu	a4,0(a5)
    8000a5ea:	0789                	addi	a5,a5,2
    8000a5ec:	1e071c63          	bnez	a4,8000a7e4 <ediv+0x414>
    8000a5f0:	fed79be3          	bne	a5,a3,8000a5e6 <ediv+0x216>
    8000a5f4:	02015683          	lhu	a3,32(sp)
    8000a5f8:	04015603          	lhu	a2,64(sp)
    8000a5fc:	01240713          	addi	a4,s0,18
    8000a600:	87a2                	mv	a5,s0
    8000a602:	8e91                	sub	a3,a3,a2
    8000a604:	00d036b3          	snez	a3,a3
    8000a608:	00f6969b          	slliw	a3,a3,0xf
    8000a60c:	00d41923          	sh	a3,18(s0)
    8000a610:	0789                	addi	a5,a5,2
    8000a612:	fe079f23          	sh	zero,-2(a5)
    8000a616:	fee79de3          	bne	a5,a4,8000a610 <ediv+0x240>
    8000a61a:	bf0d                	j	8000a54c <ediv+0x17c>
    8000a61c:	e862                	sd	s8,16(sp)
    8000a61e:	4786                	lw	a5,64(sp)
    8000a620:	03890493          	addi	s1,s2,56
    8000a624:	03490713          	addi	a4,s2,52
    8000a628:	02f92a23          	sw	a5,52(s2)
    8000a62c:	ec3a                	sd	a4,24(sp)
    8000a62e:	04e90993          	addi	s3,s2,78
    8000a632:	87a6                	mv	a5,s1
    8000a634:	0789                	addi	a5,a5,2
    8000a636:	fe079f23          	sh	zero,-2(a5)
    8000a63a:	ff379de3          	bne	a5,s3,8000a634 <ediv+0x264>
    8000a63e:	0088                	addi	a0,sp,64
    8000a640:	aceff0ef          	jal	ra,8000990e <eshdn1>
    8000a644:	02615b83          	lhu	s7,38(sp)
    8000a648:	6a41                	lui	s4,0x10
    8000a64a:	04210d13          	addi	s10,sp,66
    8000a64e:	010b9a93          	slli	s5,s7,0x10
    8000a652:	417a8ab3          	sub	s5,s5,s7
    8000a656:	05810c93          	addi	s9,sp,88
    8000a65a:	1a7d                	addi	s4,s4,-1 # ffff <_tbss_end+0xffbb>
    8000a65c:	07a10d93          	addi	s11,sp,122
    8000a660:	06210c13          	addi	s8,sp,98
    8000a664:	04415783          	lhu	a5,68(sp)
    8000a668:	04615703          	lhu	a4,70(sp)
    8000a66c:	8b52                	mv	s6,s4
    8000a66e:	07c2                	slli	a5,a5,0x10
    8000a670:	97ba                	add	a5,a5,a4
    8000a672:	00fae863          	bltu	s5,a5,8000a682 <ediv+0x2b2>
    8000a676:	0377d7b3          	divu	a5,a5,s7
    8000a67a:	03079b13          	slli	s6,a5,0x30
    8000a67e:	030b5b13          	srli	s6,s6,0x30
    8000a682:	1090                	addi	a2,sp,96
    8000a684:	100c                	addi	a1,sp,32
    8000a686:	855a                	mv	a0,s6
    8000a688:	b00ff0ef          	jal	ra,80009988 <m16m>
    8000a68c:	00d8                	addi	a4,sp,68
    8000a68e:	10dc                	addi	a5,sp,100
    8000a690:	0007d603          	lhu	a2,0(a5)
    8000a694:	00075683          	lhu	a3,0(a4)
    8000a698:	0789                	addi	a5,a5,2
    8000a69a:	0709                	addi	a4,a4,2
    8000a69c:	0ad61a63          	bne	a2,a3,8000a750 <ediv+0x380>
    8000a6a0:	ffb798e3          	bne	a5,s11,8000a690 <ediv+0x2c0>
    8000a6a4:	4681                	li	a3,0
    8000a6a6:	18b0                	addi	a2,sp,120
    8000a6a8:	87e6                	mv	a5,s9
    8000a6aa:	0007d703          	lhu	a4,0(a5)
    8000a6ae:	00065583          	lhu	a1,0(a2)
    8000a6b2:	17f9                	addi	a5,a5,-2
    8000a6b4:	1679                	addi	a2,a2,-2
    8000a6b6:	8f0d                	sub	a4,a4,a1
    8000a6b8:	8f15                	sub	a4,a4,a3
    8000a6ba:	01075693          	srli	a3,a4,0x10
    8000a6be:	00e79123          	sh	a4,2(a5)
    8000a6c2:	8a85                	andi	a3,a3,1
    8000a6c4:	ffa793e3          	bne	a5,s10,8000a6aa <ediv+0x2da>
    8000a6c8:	01649023          	sh	s6,0(s1)
    8000a6cc:	00dc                	addi	a5,sp,68
    8000a6ce:	0027d703          	lhu	a4,2(a5)
    8000a6d2:	0789                	addi	a5,a5,2
    8000a6d4:	fee79f23          	sh	a4,-2(a5)
    8000a6d8:	ff979be3          	bne	a5,s9,8000a6ce <ediv+0x2fe>
    8000a6dc:	04011c23          	sh	zero,88(sp)
    8000a6e0:	0489                	addi	s1,s1,2
    8000a6e2:	f89991e3          	bne	s3,s1,8000a664 <ediv+0x294>
    8000a6e6:	4701                	li	a4,0
    8000a6e8:	00dc                	addi	a5,sp,68
    8000a6ea:	05a10693          	addi	a3,sp,90
    8000a6ee:	0007d603          	lhu	a2,0(a5)
    8000a6f2:	0789                	addi	a5,a5,2
    8000a6f4:	8f51                	or	a4,a4,a2
    8000a6f6:	fed79ce3          	bne	a5,a3,8000a6ee <ediv+0x31e>
    8000a6fa:	64e2                	ld	s1,24(sp)
    8000a6fc:	2701                	sext.w	a4,a4
    8000a6fe:	00e035b3          	snez	a1,a4
    8000a702:	009c                	addi	a5,sp,64
    8000a704:	0004d703          	lhu	a4,0(s1)
    8000a708:	0789                	addi	a5,a5,2
    8000a70a:	0489                	addi	s1,s1,2
    8000a70c:	fee79f23          	sh	a4,-2(a5)
    8000a710:	fed79ae3          	bne	a5,a3,8000a704 <ediv+0x334>
    8000a714:	67a2                	ld	a5,8(sp)
    8000a716:	6742                	ld	a4,16(sp)
    8000a718:	6691                	lui	a3,0x4
    8000a71a:	16fd                	addi	a3,a3,-1 # 3fff <_tbss_end+0x3fbb>
    8000a71c:	40e78b33          	sub	s6,a5,a4
    8000a720:	0088                	addi	a0,sp,64
    8000a722:	87ca                	mv	a5,s2
    8000a724:	04000713          	li	a4,64
    8000a728:	96da                	add	a3,a3,s6
    8000a72a:	4601                	li	a2,0
    8000a72c:	f20ff0ef          	jal	ra,80009e4c <emdnorm>
    8000a730:	04015703          	lhu	a4,64(sp)
    8000a734:	02015783          	lhu	a5,32(sp)
    8000a738:	85a2                	mv	a1,s0
    8000a73a:	0088                	addi	a0,sp,64
    8000a73c:	8f99                	sub	a5,a5,a4
    8000a73e:	00f037b3          	snez	a5,a5
    8000a742:	40f007bb          	negw	a5,a5
    8000a746:	04f11023          	sh	a5,64(sp)
    8000a74a:	aa6ff0ef          	jal	ra,800099f0 <emovo.constprop.0>
    8000a74e:	bbb1                	j	8000a4aa <ediv+0xda>
    8000a750:	f4c6fae3          	bgeu	a3,a2,8000a6a4 <ediv+0x2d4>
    8000a754:	fffb079b          	addiw	a5,s6,-1
    8000a758:	03079313          	slli	t1,a5,0x30
    8000a75c:	03035313          	srli	t1,t1,0x30
    8000a760:	4681                	li	a3,0
    8000a762:	1830                	addi	a2,sp,56
    8000a764:	18b8                	addi	a4,sp,120
    8000a766:	00075783          	lhu	a5,0(a4)
    8000a76a:	00065583          	lhu	a1,0(a2)
    8000a76e:	1779                	addi	a4,a4,-2
    8000a770:	1679                	addi	a2,a2,-2
    8000a772:	8f8d                	sub	a5,a5,a1
    8000a774:	8f95                	sub	a5,a5,a3
    8000a776:	0107d693          	srli	a3,a5,0x10
    8000a77a:	00f71123          	sh	a5,2(a4)
    8000a77e:	8a85                	andi	a3,a3,1
    8000a780:	ff8713e3          	bne	a4,s8,8000a766 <ediv+0x396>
    8000a784:	00d8                	addi	a4,sp,68
    8000a786:	10dc                	addi	a5,sp,100
    8000a788:	0007d603          	lhu	a2,0(a5)
    8000a78c:	00075683          	lhu	a3,0(a4)
    8000a790:	0789                	addi	a5,a5,2
    8000a792:	0709                	addi	a4,a4,2
    8000a794:	00d61663          	bne	a2,a3,8000a7a0 <ediv+0x3d0>
    8000a798:	ffb798e3          	bne	a5,s11,8000a788 <ediv+0x3b8>
    8000a79c:	8b1a                	mv	s6,t1
    8000a79e:	b719                	j	8000a6a4 <ediv+0x2d4>
    8000a7a0:	fec6fee3          	bgeu	a3,a2,8000a79c <ediv+0x3cc>
    8000a7a4:	ffeb051b          	addiw	a0,s6,-2
    8000a7a8:	03051b13          	slli	s6,a0,0x30
    8000a7ac:	030b5b13          	srli	s6,s6,0x30
    8000a7b0:	4681                	li	a3,0
    8000a7b2:	1830                	addi	a2,sp,56
    8000a7b4:	18b8                	addi	a4,sp,120
    8000a7b6:	00075783          	lhu	a5,0(a4)
    8000a7ba:	00065583          	lhu	a1,0(a2)
    8000a7be:	1779                	addi	a4,a4,-2
    8000a7c0:	1679                	addi	a2,a2,-2
    8000a7c2:	8f8d                	sub	a5,a5,a1
    8000a7c4:	8f95                	sub	a5,a5,a3
    8000a7c6:	0107d693          	srli	a3,a5,0x10
    8000a7ca:	00f71123          	sh	a5,2(a4)
    8000a7ce:	8a85                	andi	a3,a3,1
    8000a7d0:	ff8713e3          	bne	a4,s8,8000a7b6 <ediv+0x3e6>
    8000a7d4:	bdc1                	j	8000a6a4 <ediv+0x2d4>
    8000a7d6:	0088                	addi	a0,sp,64
    8000a7d8:	aa4ff0ef          	jal	ra,80009a7c <enormlz>
    8000a7dc:	40a007b3          	neg	a5,a0
    8000a7e0:	e43e                	sd	a5,8(sp)
    8000a7e2:	bbed                	j	8000a5dc <ediv+0x20c>
    8000a7e4:	1008                	addi	a0,sp,32
    8000a7e6:	a96ff0ef          	jal	ra,80009a7c <enormlz>
    8000a7ea:	40a007b3          	neg	a5,a0
    8000a7ee:	e83e                	sd	a5,16(sp)
    8000a7f0:	b53d                	j	8000a61e <ediv+0x24e>
    8000a7f2:	4781                	li	a5,0
    8000a7f4:	bb3d                	j	8000a532 <ediv+0x162>
    8000a7f6:	4601                	li	a2,0
    8000a7f8:	b325                	j	8000a520 <ediv+0x150>
    8000a7fa:	4805                	li	a6,1
    8000a7fc:	b331                	j	8000a508 <ediv+0x138>

Disassembly of section .text.emul:

000000008000a7fe <emul>:
    8000a7fe:	01255803          	lhu	a6,18(a0)
    8000a802:	6721                	lui	a4,0x8
    8000a804:	7131                	addi	sp,sp,-192
    8000a806:	177d                	addi	a4,a4,-1 # 7fff <_tbss_end+0x7fbb>
    8000a808:	f922                	sd	s0,176(sp)
    8000a80a:	f526                	sd	s1,168(sp)
    8000a80c:	f14a                	sd	s2,160(sp)
    8000a80e:	e556                	sd	s5,136(sp)
    8000a810:	84aa                	mv	s1,a0
    8000a812:	fd06                	sd	ra,184(sp)
    8000a814:	ed4e                	sd	s3,152(sp)
    8000a816:	e952                	sd	s4,144(sp)
    8000a818:	e15a                	sd	s6,128(sp)
    8000a81a:	fcde                	sd	s7,120(sp)
    8000a81c:	f8e2                	sd	s8,112(sp)
    8000a81e:	f4e6                	sd	s9,104(sp)
    8000a820:	f0ea                	sd	s10,96(sp)
    8000a822:	00e87533          	and	a0,a6,a4
    8000a826:	892e                	mv	s2,a1
    8000a828:	8432                	mv	s0,a2
    8000a82a:	8ab6                	mv	s5,a3
    8000a82c:	12e51863          	bne	a0,a4,8000a95c <emul+0x15e>
    8000a830:	01248993          	addi	s3,s1,18
    8000a834:	8726                	mv	a4,s1
    8000a836:	00075603          	lhu	a2,0(a4)
    8000a83a:	0709                	addi	a4,a4,2
    8000a83c:	18061a63          	bnez	a2,8000a9d0 <emul+0x1d2>
    8000a840:	ff371be3          	bne	a4,s3,8000a836 <emul+0x38>
    8000a844:	01295603          	lhu	a2,18(s2)
    8000a848:	fff64793          	not	a5,a2
    8000a84c:	03179713          	slli	a4,a5,0x31
    8000a850:	10070c63          	beqz	a4,8000a968 <emul+0x16a>
    8000a854:	87a6                	mv	a5,s1
    8000a856:	0007d703          	lhu	a4,0(a5)
    8000a85a:	0789                	addi	a5,a5,2
    8000a85c:	1e071763          	bnez	a4,8000aa4a <emul+0x24c>
    8000a860:	ff379be3          	bne	a5,s3,8000a856 <emul+0x58>
    8000a864:	00004597          	auipc	a1,0x4
    8000a868:	3fc58593          	addi	a1,a1,1020 # 8000ec60 <ezero>
    8000a86c:	854a                	mv	a0,s2
    8000a86e:	cf6ff0ef          	jal	ra,80009d64 <ecmp>
    8000a872:	1e050f63          	beqz	a0,8000aa70 <emul+0x272>
    8000a876:	01295603          	lhu	a2,18(s2)
    8000a87a:	65a1                	lui	a1,0x8
    8000a87c:	15fd                	addi	a1,a1,-1 # 7fff <_tbss_end+0x7fbb>
    8000a87e:	00b67733          	and	a4,a2,a1
    8000a882:	86ba                	mv	a3,a4
    8000a884:	01290793          	addi	a5,s2,18
    8000a888:	30b71d63          	bne	a4,a1,8000aba2 <emul+0x3a4>
    8000a88c:	874a                	mv	a4,s2
    8000a88e:	00075683          	lhu	a3,0(a4)
    8000a892:	0709                	addi	a4,a4,2
    8000a894:	18069663          	bnez	a3,8000aa20 <emul+0x222>
    8000a898:	fee79be3          	bne	a5,a4,8000a88e <emul+0x90>
    8000a89c:	00004597          	auipc	a1,0x4
    8000a8a0:	3c458593          	addi	a1,a1,964 # 8000ec60 <ezero>
    8000a8a4:	8526                	mv	a0,s1
    8000a8a6:	cbeff0ef          	jal	ra,80009d64 <ecmp>
    8000a8aa:	1c050363          	beqz	a0,8000aa70 <emul+0x272>
    8000a8ae:	0124d803          	lhu	a6,18(s1)
    8000a8b2:	01295603          	lhu	a2,18(s2)
    8000a8b6:	67a1                	lui	a5,0x8
    8000a8b8:	17fd                	addi	a5,a5,-1 # 7fff <_tbss_end+0x7fbb>
    8000a8ba:	00f87733          	and	a4,a6,a5
    8000a8be:	00f676b3          	and	a3,a2,a5
    8000a8c2:	85ba                	mv	a1,a4
    8000a8c4:	16f70763          	beq	a4,a5,8000aa32 <emul+0x234>
    8000a8c8:	8736                	mv	a4,a3
    8000a8ca:	86ae                	mv	a3,a1
    8000a8cc:	67a1                	lui	a5,0x8
    8000a8ce:	2701                	sext.w	a4,a4
    8000a8d0:	17fd                	addi	a5,a5,-1 # 7fff <_tbss_end+0x7fbb>
    8000a8d2:	0af71e63          	bne	a4,a5,8000a98e <emul+0x190>
    8000a8d6:	01290793          	addi	a5,s2,18
    8000a8da:	874a                	mv	a4,s2
    8000a8dc:	00075583          	lhu	a1,0(a4)
    8000a8e0:	0709                	addi	a4,a4,2
    8000a8e2:	e5d5                	bnez	a1,8000a98e <emul+0x190>
    8000a8e4:	fee79ce3          	bne	a5,a4,8000a8dc <emul+0xde>
    8000a8e8:	65a1                	lui	a1,0x8
    8000a8ea:	15fd                	addi	a1,a1,-1 # 7fff <_tbss_end+0x7fbb>
    8000a8ec:	0006871b          	sext.w	a4,a3
    8000a8f0:	01248993          	addi	s3,s1,18
    8000a8f4:	18b69f63          	bne	a3,a1,8000aa92 <emul+0x294>
    8000a8f8:	0004d783          	lhu	a5,0(s1)
    8000a8fc:	0489                	addi	s1,s1,2
    8000a8fe:	18079d63          	bnez	a5,8000aa98 <emul+0x29a>
    8000a902:	fe999be3          	bne	s3,s1,8000a8f8 <emul+0xfa>
    8000a906:	00f85813          	srli	a6,a6,0xf
    8000a90a:	67a1                	lui	a5,0x8
    8000a90c:	17fd                	addi	a5,a5,-1 # 7fff <_tbss_end+0x7fbb>
    8000a90e:	14f70863          	beq	a4,a5,8000aa5e <emul+0x260>
    8000a912:	00f65793          	srli	a5,a2,0xf
    8000a916:	0107c7b3          	xor	a5,a5,a6
    8000a91a:	00f7979b          	slliw	a5,a5,0xf
    8000a91e:	00f41923          	sh	a5,18(s0)
    8000a922:	01240713          	addi	a4,s0,18
    8000a926:	87a2                	mv	a5,s0
    8000a928:	0789                	addi	a5,a5,2
    8000a92a:	fe079f23          	sh	zero,-2(a5)
    8000a92e:	fee79de3          	bne	a5,a4,8000a928 <emul+0x12a>
    8000a932:	01245783          	lhu	a5,18(s0)
    8000a936:	6721                	lui	a4,0x8
    8000a938:	177d                	addi	a4,a4,-1 # 7fff <_tbss_end+0x7fbb>
    8000a93a:	8fd9                	or	a5,a5,a4
    8000a93c:	00f41923          	sh	a5,18(s0)
    8000a940:	70ea                	ld	ra,184(sp)
    8000a942:	744a                	ld	s0,176(sp)
    8000a944:	74aa                	ld	s1,168(sp)
    8000a946:	790a                	ld	s2,160(sp)
    8000a948:	69ea                	ld	s3,152(sp)
    8000a94a:	6a4a                	ld	s4,144(sp)
    8000a94c:	6aaa                	ld	s5,136(sp)
    8000a94e:	6b0a                	ld	s6,128(sp)
    8000a950:	7be6                	ld	s7,120(sp)
    8000a952:	7c46                	ld	s8,112(sp)
    8000a954:	7ca6                	ld	s9,104(sp)
    8000a956:	7d06                	ld	s10,96(sp)
    8000a958:	6129                	addi	sp,sp,192
    8000a95a:	8082                	ret
    8000a95c:	0125d603          	lhu	a2,18(a1)
    8000a960:	00e677b3          	and	a5,a2,a4
    8000a964:	02e79563          	bne	a5,a4,8000a98e <emul+0x190>
    8000a968:	01290793          	addi	a5,s2,18
    8000a96c:	874a                	mv	a4,s2
    8000a96e:	00075683          	lhu	a3,0(a4)
    8000a972:	0709                	addi	a4,a4,2
    8000a974:	eaad                	bnez	a3,8000a9e6 <emul+0x1e8>
    8000a976:	fef71ce3          	bne	a4,a5,8000a96e <emul+0x170>
    8000a97a:	6721                	lui	a4,0x8
    8000a97c:	177d                	addi	a4,a4,-1 # 7fff <_tbss_end+0x7fbb>
    8000a97e:	01248993          	addi	s3,s1,18
    8000a982:	ece509e3          	beq	a0,a4,8000a854 <emul+0x56>
    8000a986:	00e676b3          	and	a3,a2,a4
    8000a98a:	f0e681e3          	beq	a3,a4,8000a88c <emul+0x8e>
    8000a98e:	8526                	mv	a0,s1
    8000a990:	858a                	mv	a1,sp
    8000a992:	b3eff0ef          	jal	ra,80009cd0 <emovi>
    8000a996:	854a                	mv	a0,s2
    8000a998:	100c                	addi	a1,sp,32
    8000a99a:	b36ff0ef          	jal	ra,80009cd0 <emovi>
    8000a99e:	00215903          	lhu	s2,2(sp)
    8000a9a2:	02215483          	lhu	s1,34(sp)
    8000a9a6:	04090b63          	beqz	s2,8000a9fc <emul+0x1fe>
    8000a9aa:	ecfd                	bnez	s1,8000aaa8 <emul+0x2aa>
    8000a9ac:	02210793          	addi	a5,sp,34
    8000a9b0:	1834                	addi	a3,sp,56
    8000a9b2:	0007d703          	lhu	a4,0(a5)
    8000a9b6:	0789                	addi	a5,a5,2
    8000a9b8:	1c071d63          	bnez	a4,8000ab92 <emul+0x394>
    8000a9bc:	fed79be3          	bne	a5,a3,8000a9b2 <emul+0x1b4>
    8000a9c0:	01440793          	addi	a5,s0,20
    8000a9c4:	0409                	addi	s0,s0,2
    8000a9c6:	fe041f23          	sh	zero,-2(s0)
    8000a9ca:	fe879de3          	bne	a5,s0,8000a9c4 <emul+0x1c6>
    8000a9ce:	bf8d                	j	8000a940 <emul+0x142>
    8000a9d0:	01440713          	addi	a4,s0,20
    8000a9d4:	0004d783          	lhu	a5,0(s1)
    8000a9d8:	0409                	addi	s0,s0,2
    8000a9da:	0489                	addi	s1,s1,2
    8000a9dc:	fef41f23          	sh	a5,-2(s0)
    8000a9e0:	fee41ae3          	bne	s0,a4,8000a9d4 <emul+0x1d6>
    8000a9e4:	bfb1                	j	8000a940 <emul+0x142>
    8000a9e6:	01490713          	addi	a4,s2,20
    8000a9ea:	00095783          	lhu	a5,0(s2)
    8000a9ee:	0909                	addi	s2,s2,2
    8000a9f0:	0409                	addi	s0,s0,2
    8000a9f2:	fef41f23          	sh	a5,-2(s0)
    8000a9f6:	ff271ae3          	bne	a4,s2,8000a9ea <emul+0x1ec>
    8000a9fa:	b799                	j	8000a940 <emul+0x142>
    8000a9fc:	00210793          	addi	a5,sp,2
    8000aa00:	0834                	addi	a3,sp,24
    8000aa02:	0007d703          	lhu	a4,0(a5)
    8000aa06:	0789                	addi	a5,a5,2
    8000aa08:	16071f63          	bnez	a4,8000ab86 <emul+0x388>
    8000aa0c:	fef69be3          	bne	a3,a5,8000aa02 <emul+0x204>
    8000aa10:	01440793          	addi	a5,s0,20
    8000aa14:	0409                	addi	s0,s0,2
    8000aa16:	fe041f23          	sh	zero,-2(s0)
    8000aa1a:	fef41de3          	bne	s0,a5,8000aa14 <emul+0x216>
    8000aa1e:	b70d                	j	8000a940 <emul+0x142>
    8000aa20:	0124d803          	lhu	a6,18(s1)
    8000aa24:	65a1                	lui	a1,0x8
    8000aa26:	15fd                	addi	a1,a1,-1 # 7fff <_tbss_end+0x7fbb>
    8000aa28:	00b87733          	and	a4,a6,a1
    8000aa2c:	86ba                	mv	a3,a4
    8000aa2e:	eab716e3          	bne	a4,a1,8000a8da <emul+0xdc>
    8000aa32:	01248993          	addi	s3,s1,18
    8000aa36:	87a6                	mv	a5,s1
    8000aa38:	0007d703          	lhu	a4,0(a5)
    8000aa3c:	0789                	addi	a5,a5,2
    8000aa3e:	e32d                	bnez	a4,8000aaa0 <emul+0x2a2>
    8000aa40:	fef99ce3          	bne	s3,a5,8000aa38 <emul+0x23a>
    8000aa44:	0006871b          	sext.w	a4,a3
    8000aa48:	bd45                	j	8000a8f8 <emul+0xfa>
    8000aa4a:	65a1                	lui	a1,0x8
    8000aa4c:	15fd                	addi	a1,a1,-1 # 7fff <_tbss_end+0x7fbb>
    8000aa4e:	00b67733          	and	a4,a2,a1
    8000aa52:	86ba                	mv	a3,a4
    8000aa54:	01290793          	addi	a5,s2,18
    8000aa58:	e2b70ae3          	beq	a4,a1,8000a88c <emul+0x8e>
    8000aa5c:	bfe9                	j	8000aa36 <emul+0x238>
    8000aa5e:	01290793          	addi	a5,s2,18
    8000aa62:	00095703          	lhu	a4,0(s2)
    8000aa66:	0909                	addi	s2,s2,2
    8000aa68:	eb15                	bnez	a4,8000aa9c <emul+0x29e>
    8000aa6a:	fef91ce3          	bne	s2,a5,8000aa62 <emul+0x264>
    8000aa6e:	b555                	j	8000a912 <emul+0x114>
    8000aa70:	01040713          	addi	a4,s0,16
    8000aa74:	87a2                	mv	a5,s0
    8000aa76:	0789                	addi	a5,a5,2
    8000aa78:	fe079f23          	sh	zero,-2(a5)
    8000aa7c:	fef71de3          	bne	a4,a5,8000aa76 <emul+0x278>
    8000aa80:	77f1                	lui	a5,0xffffc
    8000aa82:	00f41823          	sh	a5,16(s0)
    8000aa86:	77e1                	lui	a5,0xffff8
    8000aa88:	fff7c793          	not	a5,a5
    8000aa8c:	00f41923          	sh	a5,18(s0)
    8000aa90:	bd45                	j	8000a940 <emul+0x142>
    8000aa92:	00f85813          	srli	a6,a6,0xf
    8000aa96:	b7f1                	j	8000aa62 <emul+0x264>
    8000aa98:	4801                	li	a6,0
    8000aa9a:	bd85                	j	8000a90a <emul+0x10c>
    8000aa9c:	4781                	li	a5,0
    8000aa9e:	bda5                	j	8000a916 <emul+0x118>
    8000aaa0:	8736                	mv	a4,a3
    8000aaa2:	66a1                	lui	a3,0x8
    8000aaa4:	16fd                	addi	a3,a3,-1 # 7fff <_tbss_end+0x7fbb>
    8000aaa6:	b51d                	j	8000a8cc <emul+0xce>
    8000aaa8:	89a6                	mv	s3,s1
    8000aaaa:	02015783          	lhu	a5,32(sp)
    8000aaae:	0104949b          	slliw	s1,s1,0x10
    8000aab2:	038a8a13          	addi	s4,s5,56 # ffffffff80000038 <_end+0xfffffffefcfeedf8>
    8000aab6:	8fc5                	or	a5,a5,s1
    8000aab8:	02faaa23          	sw	a5,52(s5)
    8000aabc:	034a8493          	addi	s1,s5,52
    8000aac0:	87d2                	mv	a5,s4
    8000aac2:	04ea8713          	addi	a4,s5,78
    8000aac6:	00079023          	sh	zero,0(a5) # ffffffffffff8000 <_end+0xffffffff7cfe6dc0>
    8000aaca:	0789                	addi	a5,a5,2
    8000aacc:	fee79de3          	bne	a5,a4,8000aac6 <emul+0x2c8>
    8000aad0:	04ca8c93          	addi	s9,s5,76
    8000aad4:	4c01                	li	s8,0
    8000aad6:	01810b13          	addi	s6,sp,24
    8000aada:	00410d13          	addi	s10,sp,4
    8000aade:	04210b93          	addi	s7,sp,66
    8000aae2:	000b5503          	lhu	a0,0(s6)
    8000aae6:	1b79                	addi	s6,s6,-2
    8000aae8:	e925                	bnez	a0,8000ab58 <emul+0x35a>
    8000aaea:	04cad783          	lhu	a5,76(s5)
    8000aaee:	8766                	mv	a4,s9
    8000aaf0:	00fc6c33          	or	s8,s8,a5
    8000aaf4:	ffe75603          	lhu	a2,-2(a4)
    8000aaf8:	1779                	addi	a4,a4,-2
    8000aafa:	00c71123          	sh	a2,2(a4)
    8000aafe:	feea1be3          	bne	s4,a4,8000aaf4 <emul+0x2f6>
    8000ab02:	020a9c23          	sh	zero,56(s5)
    8000ab06:	fdab1ee3          	bne	s6,s10,8000aae2 <emul+0x2e4>
    8000ab0a:	101c                	addi	a5,sp,32
    8000ab0c:	03a10693          	addi	a3,sp,58
    8000ab10:	0004d703          	lhu	a4,0(s1)
    8000ab14:	0789                	addi	a5,a5,2
    8000ab16:	0489                	addi	s1,s1,2
    8000ab18:	fee79f23          	sh	a4,-2(a5)
    8000ab1c:	fef69ae3          	bne	a3,a5,8000ab10 <emul+0x312>
    8000ab20:	76f1                	lui	a3,0xffffc
    8000ab22:	994e                	add	s2,s2,s3
    8000ab24:	0689                	addi	a3,a3,2 # ffffffffffffc002 <_end+0xffffffff7cfeadc2>
    8000ab26:	85e2                	mv	a1,s8
    8000ab28:	1008                	addi	a0,sp,32
    8000ab2a:	87d6                	mv	a5,s5
    8000ab2c:	04000713          	li	a4,64
    8000ab30:	96ca                	add	a3,a3,s2
    8000ab32:	4601                	li	a2,0
    8000ab34:	b18ff0ef          	jal	ra,80009e4c <emdnorm>
    8000ab38:	02015703          	lhu	a4,32(sp)
    8000ab3c:	00015783          	lhu	a5,0(sp)
    8000ab40:	85a2                	mv	a1,s0
    8000ab42:	1008                	addi	a0,sp,32
    8000ab44:	8f99                	sub	a5,a5,a4
    8000ab46:	00f037b3          	snez	a5,a5
    8000ab4a:	40f007bb          	negw	a5,a5
    8000ab4e:	02f11023          	sh	a5,32(sp)
    8000ab52:	e9ffe0ef          	jal	ra,800099f0 <emovo.constprop.0>
    8000ab56:	b3ed                	j	8000a940 <emul+0x142>
    8000ab58:	0090                	addi	a2,sp,64
    8000ab5a:	100c                	addi	a1,sp,32
    8000ab5c:	e2dfe0ef          	jal	ra,80009988 <m16m>
    8000ab60:	8566                	mv	a0,s9
    8000ab62:	4581                	li	a1,0
    8000ab64:	08b0                	addi	a2,sp,88
    8000ab66:	00055783          	lhu	a5,0(a0)
    8000ab6a:	00065703          	lhu	a4,0(a2)
    8000ab6e:	1579                	addi	a0,a0,-2
    8000ab70:	1679                	addi	a2,a2,-2
    8000ab72:	973e                	add	a4,a4,a5
    8000ab74:	972e                	add	a4,a4,a1
    8000ab76:	01075593          	srli	a1,a4,0x10
    8000ab7a:	00e51123          	sh	a4,2(a0)
    8000ab7e:	8985                	andi	a1,a1,1
    8000ab80:	ff7613e3          	bne	a2,s7,8000ab66 <emul+0x368>
    8000ab84:	b79d                	j	8000aaea <emul+0x2ec>
    8000ab86:	850a                	mv	a0,sp
    8000ab88:	ef5fe0ef          	jal	ra,80009a7c <enormlz>
    8000ab8c:	40a00933          	neg	s2,a0
    8000ab90:	bd29                	j	8000a9aa <emul+0x1ac>
    8000ab92:	1008                	addi	a0,sp,32
    8000ab94:	ee9fe0ef          	jal	ra,80009a7c <enormlz>
    8000ab98:	40a009b3          	neg	s3,a0
    8000ab9c:	02215483          	lhu	s1,34(sp)
    8000aba0:	b729                	j	8000aaaa <emul+0x2ac>
    8000aba2:	0124d803          	lhu	a6,18(s1)
    8000aba6:	00b877b3          	and	a5,a6,a1
    8000abaa:	e8b786e3          	beq	a5,a1,8000aa36 <emul+0x238>
    8000abae:	b3c5                	j	8000a98e <emul+0x190>

Disassembly of section .text._ldtoa_r:

000000008000abb0 <_ldtoa_r>:
    8000abb0:	d9010113          	addi	sp,sp,-624
    8000abb4:	09100313          	li	t1,145
    8000abb8:	f4b2                	sd	a2,104(sp)
    8000abba:	06053e03          	ld	t3,96(a0)
    8000abbe:	02031613          	slli	a2,t1,0x20
    8000abc2:	167d                	addi	a2,a2,-1
    8000abc4:	26813023          	sd	s0,608(sp)
    8000abc8:	25313423          	sd	s3,584(sp)
    8000abcc:	26113423          	sd	ra,616(sp)
    8000abd0:	24913c23          	sd	s1,600(sp)
    8000abd4:	25213823          	sd	s2,592(sp)
    8000abd8:	25413023          	sd	s4,576(sp)
    8000abdc:	23513c23          	sd	s5,568(sp)
    8000abe0:	23613823          	sd	s6,560(sp)
    8000abe4:	23713423          	sd	s7,552(sp)
    8000abe8:	23813023          	sd	s8,544(sp)
    8000abec:	21913c23          	sd	s9,536(sp)
    8000abf0:	21a13823          	sd	s10,528(sp)
    8000abf4:	21b13423          	sd	s11,520(sp)
    8000abf8:	f0ae                	sd	a1,96(sp)
    8000abfa:	fb32                	sd	a2,432(sp)
    8000abfc:	e436                	sd	a3,8(sp)
    8000abfe:	ec3a                	sd	a4,24(sp)
    8000ac00:	f03e                	sd	a5,32(sp)
    8000ac02:	f446                	sd	a7,40(sp)
    8000ac04:	89aa                	mv	s3,a0
    8000ac06:	8442                	mv	s0,a6
    8000ac08:	020e0163          	beqz	t3,8000ac2a <_ldtoa_r+0x7a>
    8000ac0c:	553c                	lw	a5,104(a0)
    8000ac0e:	4705                	li	a4,1
    8000ac10:	85f2                	mv	a1,t3
    8000ac12:	00f7173b          	sllw	a4,a4,a5
    8000ac16:	1782                	slli	a5,a5,0x20
    8000ac18:	1702                	slli	a4,a4,0x20
    8000ac1a:	9381                	srli	a5,a5,0x20
    8000ac1c:	8fd9                	or	a5,a5,a4
    8000ac1e:	00fe3423          	sd	a5,8(t3)
    8000ac22:	1ea010ef          	jal	ra,8000be0c <_Bfree>
    8000ac26:	0609b023          	sd	zero,96(s3)
    8000ac2a:	090c                	addi	a1,sp,144
    8000ac2c:	1088                	addi	a0,sp,96
    8000ac2e:	ea6ff0ef          	jal	ra,8000a2d4 <e113toe.isra.0>
    8000ac32:	0a215683          	lhu	a3,162(sp)
    8000ac36:	67a1                	lui	a5,0x8
    8000ac38:	17fd                	addi	a5,a5,-1 # 7fff <_tbss_end+0x7fbb>
    8000ac3a:	00f6f733          	and	a4,a3,a5
    8000ac3e:	f83a                	sd	a4,48(sp)
    8000ac40:	34f70f63          	beq	a4,a5,8000af9e <_ldtoa_r+0x3ee>
    8000ac44:	0106979b          	slliw	a5,a3,0x10
    8000ac48:	4107d79b          	sraiw	a5,a5,0x10
    8000ac4c:	6722                	ld	a4,8(sp)
    8000ac4e:	01f7d79b          	srliw	a5,a5,0x1f
    8000ac52:	c01c                	sw	a5,0(s0)
    8000ac54:	478d                	li	a5,3
    8000ac56:	72f70963          	beq	a4,a5,8000b388 <_ldtoa_r+0x7d8>
    8000ac5a:	47d1                	li	a5,20
    8000ac5c:	e83e                	sd	a5,16(sp)
    8000ac5e:	67a2                	ld	a5,8(sp)
    8000ac60:	74079063          	bnez	a5,8000b3a0 <_ldtoa_r+0x7f0>
    8000ac64:	191c                	addi	a5,sp,176
    8000ac66:	0918                	addi	a4,sp,144
    8000ac68:	01c0                	addi	s0,sp,196
    8000ac6a:	00075683          	lhu	a3,0(a4)
    8000ac6e:	0789                	addi	a5,a5,2
    8000ac70:	0709                	addi	a4,a4,2
    8000ac72:	fed79f23          	sh	a3,-2(a5)
    8000ac76:	fe879ae3          	bne	a5,s0,8000ac6a <_ldtoa_r+0xba>
    8000ac7a:	0c215a83          	lhu	s5,194(sp)
    8000ac7e:	4481                	li	s1,0
    8000ac80:	00fad793          	srli	a5,s5,0xf
    8000ac84:	cb91                	beqz	a5,8000ac98 <_ldtoa_r+0xe8>
    8000ac86:	031a9f13          	slli	t5,s5,0x31
    8000ac8a:	031f5a93          	srli	s5,t5,0x31
    8000ac8e:	67c1                	lui	a5,0x10
    8000ac90:	0d511123          	sh	s5,194(sp)
    8000ac94:	fff78493          	addi	s1,a5,-1 # ffff <_tbss_end+0xffbb>
    8000ac98:	0998                	addi	a4,sp,208
    8000ac9a:	00004797          	auipc	a5,0x4
    8000ac9e:	fae78793          	addi	a5,a5,-82 # 8000ec48 <eone>
    8000aca2:	00004917          	auipc	s2,0x4
    8000aca6:	fba90913          	addi	s2,s2,-70 # 8000ec5c <eone+0x14>
    8000acaa:	0007d683          	lhu	a3,0(a5)
    8000acae:	0789                	addi	a5,a5,2
    8000acb0:	0709                	addi	a4,a4,2
    8000acb2:	fed71f23          	sh	a3,-2(a4)
    8000acb6:	ff279ae3          	bne	a5,s2,8000acaa <_ldtoa_r+0xfa>
    8000acba:	520a9b63          	bnez	s5,8000b1f0 <_ldtoa_r+0x640>
    8000acbe:	191c                	addi	a5,sp,176
    8000acc0:	0c210693          	addi	a3,sp,194
    8000acc4:	0007d703          	lhu	a4,0(a5)
    8000acc8:	52071c63          	bnez	a4,8000b200 <_ldtoa_r+0x650>
    8000accc:	0789                	addi	a5,a5,2
    8000acce:	fef69be3          	bne	a3,a5,8000acc4 <_ldtoa_r+0x114>
    8000acd2:	4401                	li	s0,0
    8000acd4:	17010b13          	addi	s6,sp,368
    8000acd8:	1b010b93          	addi	s7,sp,432
    8000acdc:	11010a13          	addi	s4,sp,272
    8000ace0:	12810a93          	addi	s5,sp,296
    8000ace4:	85d2                	mv	a1,s4
    8000ace6:	0988                	addi	a0,sp,208
    8000ace8:	fe9fe0ef          	jal	ra,80009cd0 <emovi>
    8000acec:	8952                	mv	s2,s4
    8000acee:	0994                	addi	a3,sp,208
    8000acf0:	87d2                	mv	a5,s4
    8000acf2:	6398                	ld	a4,0(a5)
    8000acf4:	07a1                	addi	a5,a5,8
    8000acf6:	06a1                	addi	a3,a3,8
    8000acf8:	fee6bc23          	sd	a4,-8(a3)
    8000acfc:	fefa9be3          	bne	s5,a5,8000acf2 <_ldtoa_r+0x142>
    8000ad00:	85d2                	mv	a1,s4
    8000ad02:	1908                	addi	a0,sp,176
    8000ad04:	0e011423          	sh	zero,232(sp)
    8000ad08:	fc9fe0ef          	jal	ra,80009cd0 <emovi>
    8000ad0c:	0c810c93          	addi	s9,sp,200
    8000ad10:	191c                	addi	a5,sp,176
    8000ad12:	00093703          	ld	a4,0(s2)
    8000ad16:	07a1                	addi	a5,a5,8
    8000ad18:	0921                	addi	s2,s2,8
    8000ad1a:	fee7bc23          	sd	a4,-8(a5)
    8000ad1e:	fefc9ae3          	bne	s9,a5,8000ad12 <_ldtoa_r+0x162>
    8000ad22:	865e                	mv	a2,s7
    8000ad24:	190c                	addi	a1,sp,176
    8000ad26:	0988                	addi	a0,sp,208
    8000ad28:	0c011423          	sh	zero,200(sp)
    8000ad2c:	cb6ff0ef          	jal	ra,8000a1e2 <eiremain>
    8000ad30:	1fc15d83          	lhu	s11,508(sp)
    8000ad34:	100d9763          	bnez	s11,8000ae42 <_ldtoa_r+0x292>
    8000ad38:	00004917          	auipc	s2,0x4
    8000ad3c:	f2890913          	addi	s2,s2,-216 # 8000ec60 <ezero>
    8000ad40:	0b210d13          	addi	s10,sp,178
    8000ad44:	0f210c13          	addi	s8,sp,242
    8000ad48:	85ca                	mv	a1,s2
    8000ad4a:	1908                	addi	a0,sp,176
    8000ad4c:	818ff0ef          	jal	ra,80009d64 <ecmp>
    8000ad50:	c96d                	beqz	a0,8000ae42 <_ldtoa_r+0x292>
    8000ad52:	4701                	li	a4,0
    8000ad54:	86e6                	mv	a3,s9
    8000ad56:	0006d783          	lhu	a5,0(a3)
    8000ad5a:	00f7d613          	srli	a2,a5,0xf
    8000ad5e:	c219                	beqz	a2,8000ad64 <_ldtoa_r+0x1b4>
    8000ad60:	00176713          	ori	a4,a4,1
    8000ad64:	0017979b          	slliw	a5,a5,0x1
    8000ad68:	17c2                	slli	a5,a5,0x30
    8000ad6a:	00277613          	andi	a2,a4,2
    8000ad6e:	93c1                	srli	a5,a5,0x30
    8000ad70:	c219                	beqz	a2,8000ad76 <_ldtoa_r+0x1c6>
    8000ad72:	0017e793          	ori	a5,a5,1
    8000ad76:	0017171b          	slliw	a4,a4,0x1
    8000ad7a:	00f69023          	sh	a5,0(a3)
    8000ad7e:	1742                	slli	a4,a4,0x30
    8000ad80:	16f9                	addi	a3,a3,-2
    8000ad82:	9341                	srli	a4,a4,0x30
    8000ad84:	fda699e3          	bne	a3,s10,8000ad56 <_ldtoa_r+0x1a6>
    8000ad88:	1998                	addi	a4,sp,240
    8000ad8a:	191c                	addi	a5,sp,176
    8000ad8c:	6394                	ld	a3,0(a5)
    8000ad8e:	07a1                	addi	a5,a5,8
    8000ad90:	0721                	addi	a4,a4,8
    8000ad92:	fed73c23          	sd	a3,-8(a4)
    8000ad96:	fefc9be3          	bne	s9,a5,8000ad8c <_ldtoa_r+0x1dc>
    8000ad9a:	10011423          	sh	zero,264(sp)
    8000ad9e:	4701                	li	a4,0
    8000ada0:	0234                	addi	a3,sp,264
    8000ada2:	0006d783          	lhu	a5,0(a3)
    8000ada6:	00f7d613          	srli	a2,a5,0xf
    8000adaa:	c219                	beqz	a2,8000adb0 <_ldtoa_r+0x200>
    8000adac:	00176713          	ori	a4,a4,1
    8000adb0:	0017979b          	slliw	a5,a5,0x1
    8000adb4:	17c2                	slli	a5,a5,0x30
    8000adb6:	00277613          	andi	a2,a4,2
    8000adba:	93c1                	srli	a5,a5,0x30
    8000adbc:	c219                	beqz	a2,8000adc2 <_ldtoa_r+0x212>
    8000adbe:	0017e793          	ori	a5,a5,1
    8000adc2:	0017171b          	slliw	a4,a4,0x1
    8000adc6:	00f69023          	sh	a5,0(a3)
    8000adca:	1742                	slli	a4,a4,0x30
    8000adcc:	16f9                	addi	a3,a3,-2
    8000adce:	9341                	srli	a4,a4,0x30
    8000add0:	fd8699e3          	bne	a3,s8,8000ada2 <_ldtoa_r+0x1f2>
    8000add4:	4701                	li	a4,0
    8000add6:	0234                	addi	a3,sp,264
    8000add8:	0006d783          	lhu	a5,0(a3)
    8000addc:	00f7d613          	srli	a2,a5,0xf
    8000ade0:	c219                	beqz	a2,8000ade6 <_ldtoa_r+0x236>
    8000ade2:	00176713          	ori	a4,a4,1
    8000ade6:	0017979b          	slliw	a5,a5,0x1
    8000adea:	17c2                	slli	a5,a5,0x30
    8000adec:	00277613          	andi	a2,a4,2
    8000adf0:	93c1                	srli	a5,a5,0x30
    8000adf2:	c219                	beqz	a2,8000adf8 <_ldtoa_r+0x248>
    8000adf4:	0017e793          	ori	a5,a5,1
    8000adf8:	0017171b          	slliw	a4,a4,0x1
    8000adfc:	00f69023          	sh	a5,0(a3)
    8000ae00:	1742                	slli	a4,a4,0x30
    8000ae02:	16f9                	addi	a3,a3,-2
    8000ae04:	9341                	srli	a4,a4,0x30
    8000ae06:	fd8699e3          	bne	a3,s8,8000add8 <_ldtoa_r+0x228>
    8000ae0a:	4601                	li	a2,0
    8000ae0c:	86e6                	mv	a3,s9
    8000ae0e:	0238                	addi	a4,sp,264
    8000ae10:	0006d583          	lhu	a1,0(a3)
    8000ae14:	00075783          	lhu	a5,0(a4)
    8000ae18:	16f9                	addi	a3,a3,-2
    8000ae1a:	1779                	addi	a4,a4,-2
    8000ae1c:	97ae                	add	a5,a5,a1
    8000ae1e:	97b2                	add	a5,a5,a2
    8000ae20:	0107d613          	srli	a2,a5,0x10
    8000ae24:	00f69123          	sh	a5,2(a3)
    8000ae28:	8a05                	andi	a2,a2,1
    8000ae2a:	ff8713e3          	bne	a4,s8,8000ae10 <_ldtoa_r+0x260>
    8000ae2e:	865e                	mv	a2,s7
    8000ae30:	190c                	addi	a1,sp,176
    8000ae32:	0988                	addi	a0,sp,208
    8000ae34:	baeff0ef          	jal	ra,8000a1e2 <eiremain>
    8000ae38:	1fc15783          	lhu	a5,508(sp)
    8000ae3c:	347d                	addiw	s0,s0,-1
    8000ae3e:	d789                	beqz	a5,8000ad48 <_ldtoa_r+0x198>
    8000ae40:	8dbe                	mv	s11,a5
    8000ae42:	02000793          	li	a5,32
    8000ae46:	c099                	beqz	s1,8000ae4c <_ldtoa_r+0x29c>
    8000ae48:	02d00793          	li	a5,45
    8000ae4c:	6722                	ld	a4,8(sp)
    8000ae4e:	16f10823          	sb	a5,368(sp)
    8000ae52:	468d                	li	a3,3
    8000ae54:	67c2                	ld	a5,16(sp)
    8000ae56:	00d71363          	bne	a4,a3,8000ae5c <_ldtoa_r+0x2ac>
    8000ae5a:	9fa1                	addw	a5,a5,s0
    8000ae5c:	02a00693          	li	a3,42
    8000ae60:	863e                	mv	a2,a5
    8000ae62:	00f6d463          	bge	a3,a5,8000ae6a <_ldtoa_r+0x2ba>
    8000ae66:	02a00613          	li	a2,42
    8000ae6a:	46a9                	li	a3,10
    8000ae6c:	00060a9b          	sext.w	s5,a2
    8000ae70:	4edd8a63          	beq	s11,a3,8000b364 <_ldtoa_r+0x7b4>
    8000ae74:	030d8d9b          	addiw	s11,s11,48
    8000ae78:	02e00693          	li	a3,46
    8000ae7c:	17b108a3          	sb	s11,369(sp)
    8000ae80:	16d10923          	sb	a3,370(sp)
    8000ae84:	1a07c963          	bltz	a5,8000b036 <_ldtoa_r+0x486>
    8000ae88:	17310493          	addi	s1,sp,371
    8000ae8c:	4a01                	li	s4,0
    8000ae8e:	0f010c13          	addi	s8,sp,240
    8000ae92:	10810d93          	addi	s11,sp,264
    8000ae96:	0b210d13          	addi	s10,sp,178
    8000ae9a:	0f210913          	addi	s2,sp,242
    8000ae9e:	4701                	li	a4,0
    8000aea0:	86e6                	mv	a3,s9
    8000aea2:	0006d783          	lhu	a5,0(a3)
    8000aea6:	00f7d613          	srli	a2,a5,0xf
    8000aeaa:	c219                	beqz	a2,8000aeb0 <_ldtoa_r+0x300>
    8000aeac:	00176713          	ori	a4,a4,1
    8000aeb0:	0017979b          	slliw	a5,a5,0x1
    8000aeb4:	17c2                	slli	a5,a5,0x30
    8000aeb6:	00277613          	andi	a2,a4,2
    8000aeba:	93c1                	srli	a5,a5,0x30
    8000aebc:	c219                	beqz	a2,8000aec2 <_ldtoa_r+0x312>
    8000aebe:	0017e793          	ori	a5,a5,1
    8000aec2:	0017171b          	slliw	a4,a4,0x1
    8000aec6:	00f69023          	sh	a5,0(a3)
    8000aeca:	1742                	slli	a4,a4,0x30
    8000aecc:	16f9                	addi	a3,a3,-2
    8000aece:	9341                	srli	a4,a4,0x30
    8000aed0:	fda699e3          	bne	a3,s10,8000aea2 <_ldtoa_r+0x2f2>
    8000aed4:	87e2                	mv	a5,s8
    8000aed6:	1918                	addi	a4,sp,176
    8000aed8:	6314                	ld	a3,0(a4)
    8000aeda:	07a1                	addi	a5,a5,8
    8000aedc:	0721                	addi	a4,a4,8
    8000aede:	fed7bc23          	sd	a3,-8(a5)
    8000aee2:	fefd9be3          	bne	s11,a5,8000aed8 <_ldtoa_r+0x328>
    8000aee6:	10011423          	sh	zero,264(sp)
    8000aeea:	4701                	li	a4,0
    8000aeec:	86ee                	mv	a3,s11
    8000aeee:	0006d783          	lhu	a5,0(a3)
    8000aef2:	00f7d613          	srli	a2,a5,0xf
    8000aef6:	c219                	beqz	a2,8000aefc <_ldtoa_r+0x34c>
    8000aef8:	00176713          	ori	a4,a4,1
    8000aefc:	0017979b          	slliw	a5,a5,0x1
    8000af00:	17c2                	slli	a5,a5,0x30
    8000af02:	00277613          	andi	a2,a4,2
    8000af06:	93c1                	srli	a5,a5,0x30
    8000af08:	c219                	beqz	a2,8000af0e <_ldtoa_r+0x35e>
    8000af0a:	0017e793          	ori	a5,a5,1
    8000af0e:	0017171b          	slliw	a4,a4,0x1
    8000af12:	00f69023          	sh	a5,0(a3)
    8000af16:	1742                	slli	a4,a4,0x30
    8000af18:	16f9                	addi	a3,a3,-2
    8000af1a:	9341                	srli	a4,a4,0x30
    8000af1c:	fd2699e3          	bne	a3,s2,8000aeee <_ldtoa_r+0x33e>
    8000af20:	4701                	li	a4,0
    8000af22:	86ee                	mv	a3,s11
    8000af24:	0006d783          	lhu	a5,0(a3)
    8000af28:	00f7d613          	srli	a2,a5,0xf
    8000af2c:	c219                	beqz	a2,8000af32 <_ldtoa_r+0x382>
    8000af2e:	00176713          	ori	a4,a4,1
    8000af32:	0017979b          	slliw	a5,a5,0x1
    8000af36:	17c2                	slli	a5,a5,0x30
    8000af38:	00277613          	andi	a2,a4,2
    8000af3c:	93c1                	srli	a5,a5,0x30
    8000af3e:	c219                	beqz	a2,8000af44 <_ldtoa_r+0x394>
    8000af40:	0017e793          	ori	a5,a5,1
    8000af44:	0017171b          	slliw	a4,a4,0x1
    8000af48:	00f69023          	sh	a5,0(a3)
    8000af4c:	1742                	slli	a4,a4,0x30
    8000af4e:	16f9                	addi	a3,a3,-2
    8000af50:	9341                	srli	a4,a4,0x30
    8000af52:	fd2699e3          	bne	a3,s2,8000af24 <_ldtoa_r+0x374>
    8000af56:	4601                	li	a2,0
    8000af58:	86e6                	mv	a3,s9
    8000af5a:	876e                	mv	a4,s11
    8000af5c:	0006d583          	lhu	a1,0(a3)
    8000af60:	00075783          	lhu	a5,0(a4)
    8000af64:	16f9                	addi	a3,a3,-2
    8000af66:	1779                	addi	a4,a4,-2
    8000af68:	97ae                	add	a5,a5,a1
    8000af6a:	97b2                	add	a5,a5,a2
    8000af6c:	0107d613          	srli	a2,a5,0x10
    8000af70:	00f69123          	sh	a5,2(a3)
    8000af74:	8a05                	andi	a2,a2,1
    8000af76:	ff2713e3          	bne	a4,s2,8000af5c <_ldtoa_r+0x3ac>
    8000af7a:	190c                	addi	a1,sp,176
    8000af7c:	865e                	mv	a2,s7
    8000af7e:	0988                	addi	a0,sp,208
    8000af80:	a62ff0ef          	jal	ra,8000a1e2 <eiremain>
    8000af84:	1fc15583          	lhu	a1,508(sp)
    8000af88:	00148793          	addi	a5,s1,1
    8000af8c:	2a05                	addiw	s4,s4,1
    8000af8e:	0305871b          	addiw	a4,a1,48
    8000af92:	fee78fa3          	sb	a4,-1(a5)
    8000af96:	0b4ac663          	blt	s5,s4,8000b042 <_ldtoa_r+0x492>
    8000af9a:	84be                	mv	s1,a5
    8000af9c:	b709                	j	8000ae9e <_ldtoa_r+0x2ee>
    8000af9e:	091c                	addi	a5,sp,144
    8000afa0:	0a210613          	addi	a2,sp,162
    8000afa4:	0007d703          	lhu	a4,0(a5)
    8000afa8:	0789                	addi	a5,a5,2
    8000afaa:	60071a63          	bnez	a4,8000b5be <_ldtoa_r+0xa0e>
    8000afae:	fec79be3          	bne	a5,a2,8000afa4 <_ldtoa_r+0x3f4>
    8000afb2:	82bd                	srli	a3,a3,0xf
    8000afb4:	6722                	ld	a4,8(sp)
    8000afb6:	c014                	sw	a3,0(s0)
    8000afb8:	478d                	li	a5,3
    8000afba:	5ef70663          	beq	a4,a5,8000b5a6 <_ldtoa_r+0x9f6>
    8000afbe:	47d1                	li	a5,20
    8000afc0:	e83e                	sd	a5,16(sp)
    8000afc2:	cb19                	beqz	a4,8000afd8 <_ldtoa_r+0x428>
    8000afc4:	67e2                	ld	a5,24(sp)
    8000afc6:	fff78a9b          	addiw	s5,a5,-1
    8000afca:	02a00793          	li	a5,42
    8000afce:	0157d463          	bge	a5,s5,8000afd6 <_ldtoa_r+0x426>
    8000afd2:	02a00a93          	li	s5,42
    8000afd6:	e856                	sd	s5,16(sp)
    8000afd8:	09015703          	lhu	a4,144(sp)
    8000afdc:	091c                	addi	a5,sp,144
    8000afde:	0a210693          	addi	a3,sp,162
    8000afe2:	0789                	addi	a5,a5,2
    8000afe4:	e719                	bnez	a4,8000aff2 <_ldtoa_r+0x442>
    8000afe6:	c6d78fe3          	beq	a5,a3,8000ac64 <_ldtoa_r+0xb4>
    8000afea:	0007d703          	lhu	a4,0(a5)
    8000afee:	0789                	addi	a5,a5,2
    8000aff0:	db7d                	beqz	a4,8000afe6 <_ldtoa_r+0x436>
    8000aff2:	17010b13          	addi	s6,sp,368
    8000aff6:	00004597          	auipc	a1,0x4
    8000affa:	a1258593          	addi	a1,a1,-1518 # 8000ea08 <blanks.1+0x380>
    8000affe:	855a                	mv	a0,s6
    8000b000:	8a1f70ef          	jal	ra,800028a0 <sprintf>
    8000b004:	6409                	lui	s0,0x2
    8000b006:	70f40413          	addi	s0,s0,1807 # 270f <_tbss_end+0x26cb>
    8000b00a:	09000793          	li	a5,144
    8000b00e:	1af12a23          	sw	a5,436(sp)
    8000b012:	1c812023          	sw	s0,448(sp)
    8000b016:	091c                	addi	a5,sp,144
    8000b018:	0a210613          	addi	a2,sp,162
    8000b01c:	0007d703          	lhu	a4,0(a5)
    8000b020:	0789                	addi	a5,a5,2
    8000b022:	72071563          	bnez	a4,8000b74c <_ldtoa_r+0xb9c>
    8000b026:	fec79be3          	bne	a5,a2,8000b01c <_ldtoa_r+0x46c>
    8000b02a:	7702                	ld	a4,32(sp)
    8000b02c:	6789                	lui	a5,0x2
    8000b02e:	70f78793          	addi	a5,a5,1807 # 270f <_tbss_end+0x26cb>
    8000b032:	c31c                	sw	a5,0(a4)
    8000b034:	a875                	j	8000b0f0 <_ldtoa_r+0x540>
    8000b036:	1fc15583          	lhu	a1,508(sp)
    8000b03a:	17210493          	addi	s1,sp,370
    8000b03e:	17310793          	addi	a5,sp,371
    8000b042:	4691                	li	a3,4
    8000b044:	04b6d463          	bge	a3,a1,8000b08c <_ldtoa_r+0x4dc>
    8000b048:	4695                	li	a3,5
    8000b04a:	72d58b63          	beq	a1,a3,8000b780 <_ldtoa_r+0xbd0>
    8000b04e:	ffe7c683          	lbu	a3,-2(a5)
    8000b052:	ffe78593          	addi	a1,a5,-2
    8000b056:	07f6f693          	andi	a3,a3,127
    8000b05a:	020ac463          	bltz	s5,8000b082 <_ldtoa_r+0x4d2>
    8000b05e:	02e00793          	li	a5,46
    8000b062:	03800613          	li	a2,56
    8000b066:	03000513          	li	a0,48
    8000b06a:	6cf68563          	beq	a3,a5,8000b734 <_ldtoa_r+0xb84>
    8000b06e:	6ad67f63          	bgeu	a2,a3,8000b72c <_ldtoa_r+0xb7c>
    8000b072:	fff5c683          	lbu	a3,-1(a1)
    8000b076:	00a58023          	sb	a0,0(a1)
    8000b07a:	15fd                	addi	a1,a1,-1
    8000b07c:	07f6f693          	andi	a3,a3,127
    8000b080:	b7ed                	j	8000b06a <_ldtoa_r+0x4ba>
    8000b082:	03100693          	li	a3,49
    8000b086:	fed78f23          	sb	a3,-2(a5)
    8000b08a:	2405                	addiw	s0,s0,1
    8000b08c:	8622                	mv	a2,s0
    8000b08e:	00004597          	auipc	a1,0x4
    8000b092:	8ca58593          	addi	a1,a1,-1846 # 8000e958 <blanks.1+0x2d0>
    8000b096:	8526                	mv	a0,s1
    8000b098:	809f70ef          	jal	ra,800028a0 <sprintf>
    8000b09c:	09000793          	li	a5,144
    8000b0a0:	7742                	ld	a4,48(sp)
    8000b0a2:	1af12a23          	sw	a5,436(sp)
    8000b0a6:	67a1                	lui	a5,0x8
    8000b0a8:	1c812023          	sw	s0,448(sp)
    8000b0ac:	17fd                	addi	a5,a5,-1 # 7fff <_tbss_end+0x7fbb>
    8000b0ae:	f6f704e3          	beq	a4,a5,8000b016 <_ldtoa_r+0x466>
    8000b0b2:	7702                	ld	a4,32(sp)
    8000b0b4:	17014683          	lbu	a3,368(sp)
    8000b0b8:	0014079b          	addiw	a5,s0,1
    8000b0bc:	c31c                	sw	a5,0(a4)
    8000b0be:	4e068263          	beqz	a3,8000b5a2 <_ldtoa_r+0x9f2>
    8000b0c2:	87da                	mv	a5,s6
    8000b0c4:	02e00613          	li	a2,46
    8000b0c8:	26c68c63          	beq	a3,a2,8000b340 <_ldtoa_r+0x790>
    8000b0cc:	0017c683          	lbu	a3,1(a5)
    8000b0d0:	0785                	addi	a5,a5,1
    8000b0d2:	fafd                	bnez	a3,8000b0c8 <_ldtoa_r+0x518>
    8000b0d4:	04500613          	li	a2,69
    8000b0d8:	00fb6563          	bltu	s6,a5,8000b0e2 <_ldtoa_r+0x532>
    8000b0dc:	a801                	j	8000b0ec <_ldtoa_r+0x53c>
    8000b0de:	4d678263          	beq	a5,s6,8000b5a2 <_ldtoa_r+0x9f2>
    8000b0e2:	fff7c703          	lbu	a4,-1(a5)
    8000b0e6:	17fd                	addi	a5,a5,-1
    8000b0e8:	fec71be3          	bne	a4,a2,8000b0de <_ldtoa_r+0x52e>
    8000b0ec:	00078023          	sb	zero,0(a5)
    8000b0f0:	87da                	mv	a5,s6
    8000b0f2:	02000613          	li	a2,32
    8000b0f6:	02d00593          	li	a1,45
    8000b0fa:	0007c703          	lbu	a4,0(a5)
    8000b0fe:	00c70463          	beq	a4,a2,8000b106 <_ldtoa_r+0x556>
    8000b102:	00b71463          	bne	a4,a1,8000b10a <_ldtoa_r+0x55a>
    8000b106:	0785                	addi	a5,a5,1
    8000b108:	bfcd                	j	8000b0fa <_ldtoa_r+0x54a>
    8000b10a:	865a                	mv	a2,s6
    8000b10c:	0007c703          	lbu	a4,0(a5)
    8000b110:	8932                	mv	s2,a2
    8000b112:	0785                	addi	a5,a5,1
    8000b114:	00e60023          	sb	a4,0(a2)
    8000b118:	0605                	addi	a2,a2,1
    8000b11a:	fb6d                	bnez	a4,8000b10c <_ldtoa_r+0x55c>
    8000b11c:	6722                	ld	a4,8(sp)
    8000b11e:	4789                	li	a5,2
    8000b120:	fff94603          	lbu	a2,-1(s2)
    8000b124:	20f70463          	beq	a4,a5,8000b32c <_ldtoa_r+0x77c>
    8000b128:	6742                	ld	a4,16(sp)
    8000b12a:	87ba                	mv	a5,a4
    8000b12c:	00875363          	bge	a4,s0,8000b132 <_ldtoa_r+0x582>
    8000b130:	87a2                	mv	a5,s0
    8000b132:	03000593          	li	a1,48
    8000b136:	0007869b          	sext.w	a3,a5
    8000b13a:	02b61463          	bne	a2,a1,8000b162 <_ldtoa_r+0x5b2>
    8000b13e:	416907b3          	sub	a5,s2,s6
    8000b142:	02f6d063          	bge	a3,a5,8000b162 <_ldtoa_r+0x5b2>
    8000b146:	03000613          	li	a2,48
    8000b14a:	a029                	j	8000b154 <_ldtoa_r+0x5a4>
    8000b14c:	416907b3          	sub	a5,s2,s6
    8000b150:	00f6d963          	bge	a3,a5,8000b162 <_ldtoa_r+0x5b2>
    8000b154:	ffe94783          	lbu	a5,-2(s2)
    8000b158:	fe090fa3          	sb	zero,-1(s2)
    8000b15c:	197d                	addi	s2,s2,-1
    8000b15e:	fec787e3          	beq	a5,a2,8000b14c <_ldtoa_r+0x59c>
    8000b162:	6722                	ld	a4,8(sp)
    8000b164:	478d                	li	a5,3
    8000b166:	18f70e63          	beq	a4,a5,8000b302 <_ldtoa_r+0x752>
    8000b16a:	67e2                	ld	a5,24(sp)
    8000b16c:	467d                	li	a2,31
    8000b16e:	4685                	li	a3,1
    8000b170:	0097849b          	addiw	s1,a5,9
    8000b174:	4791                	li	a5,4
    8000b176:	1a967763          	bgeu	a2,s1,8000b324 <_ldtoa_r+0x774>
    8000b17a:	0017979b          	slliw	a5,a5,0x1
    8000b17e:	01c78713          	addi	a4,a5,28
    8000b182:	0006859b          	sext.w	a1,a3
    8000b186:	2685                	addiw	a3,a3,1
    8000b188:	fee4f9e3          	bgeu	s1,a4,8000b17a <_ldtoa_r+0x5ca>
    8000b18c:	2581                	sext.w	a1,a1
    8000b18e:	06b9a423          	sw	a1,104(s3)
    8000b192:	854e                	mv	a0,s3
    8000b194:	415000ef          	jal	ra,8000bda8 <_Balloc>
    8000b198:	842a                	mv	s0,a0
    8000b19a:	76050b63          	beqz	a0,8000b910 <_ldtoa_r+0xd60>
    8000b19e:	06a9b023          	sd	a0,96(s3)
    8000b1a2:	85da                	mv	a1,s6
    8000b1a4:	8cbf70ef          	jal	ra,80002a6e <strcpy>
    8000b1a8:	7722                	ld	a4,40(sp)
    8000b1aa:	c709                	beqz	a4,8000b1b4 <_ldtoa_r+0x604>
    8000b1ac:	416907b3          	sub	a5,s2,s6
    8000b1b0:	97a2                	add	a5,a5,s0
    8000b1b2:	e31c                	sd	a5,0(a4)
    8000b1b4:	26813083          	ld	ra,616(sp)
    8000b1b8:	8522                	mv	a0,s0
    8000b1ba:	26013403          	ld	s0,608(sp)
    8000b1be:	25813483          	ld	s1,600(sp)
    8000b1c2:	25013903          	ld	s2,592(sp)
    8000b1c6:	24813983          	ld	s3,584(sp)
    8000b1ca:	24013a03          	ld	s4,576(sp)
    8000b1ce:	23813a83          	ld	s5,568(sp)
    8000b1d2:	23013b03          	ld	s6,560(sp)
    8000b1d6:	22813b83          	ld	s7,552(sp)
    8000b1da:	22013c03          	ld	s8,544(sp)
    8000b1de:	21813c83          	ld	s9,536(sp)
    8000b1e2:	21013d03          	ld	s10,528(sp)
    8000b1e6:	20813d83          	ld	s11,520(sp)
    8000b1ea:	27010113          	addi	sp,sp,624
    8000b1ee:	8082                	ret
    8000b1f0:	67a1                	lui	a5,0x8
    8000b1f2:	17fd                	addi	a5,a5,-1 # 7fff <_tbss_end+0x7fbb>
    8000b1f4:	50fa8a63          	beq	s5,a5,8000b708 <_ldtoa_r+0xb58>
    8000b1f8:	0c011783          	lh	a5,192(sp)
    8000b1fc:	5607d863          	bgez	a5,8000b76c <_ldtoa_r+0xbbc>
    8000b200:	190c                	addi	a1,sp,176
    8000b202:	00004517          	auipc	a0,0x4
    8000b206:	a4650513          	addi	a0,a0,-1466 # 8000ec48 <eone>
    8000b20a:	b5bfe0ef          	jal	ra,80009d64 <ecmp>
    8000b20e:	ac0502e3          	beqz	a0,8000acd2 <_ldtoa_r+0x122>
    8000b212:	1a054263          	bltz	a0,8000b3b6 <_ldtoa_r+0x806>
    8000b216:	5c0a9563          	bnez	s5,8000b7e0 <_ldtoa_r+0xc30>
    8000b21a:	0c011783          	lh	a5,192(sp)
    8000b21e:	4401                	li	s0,0
    8000b220:	1b010b93          	addi	s7,sp,432
    8000b224:	0207c163          	bltz	a5,8000b246 <_ldtoa_r+0x696>
    8000b228:	00004c17          	auipc	s8,0x4
    8000b22c:	a08c0c13          	addi	s8,s8,-1528 # 8000ec30 <etens+0xf0>
    8000b230:	1910                	addi	a2,sp,176
    8000b232:	86de                	mv	a3,s7
    8000b234:	85b2                	mv	a1,a2
    8000b236:	8562                	mv	a0,s8
    8000b238:	dc6ff0ef          	jal	ra,8000a7fe <emul>
    8000b23c:	0c011783          	lh	a5,192(sp)
    8000b240:	347d                	addiw	s0,s0,-1
    8000b242:	fe07d7e3          	bgez	a5,8000b230 <_ldtoa_r+0x680>
    8000b246:	11010a13          	addi	s4,sp,272
    8000b24a:	12810a93          	addi	s5,sp,296
    8000b24e:	87d2                	mv	a5,s4
    8000b250:	1918                	addi	a4,sp,176
    8000b252:	1250                	addi	a2,sp,292
    8000b254:	00075683          	lhu	a3,0(a4)
    8000b258:	0789                	addi	a5,a5,2
    8000b25a:	0709                	addi	a4,a4,2
    8000b25c:	fed79f23          	sh	a3,-2(a5)
    8000b260:	fec79ae3          	bne	a5,a2,8000b254 <_ldtoa_r+0x6a4>
    8000b264:	0998                	addi	a4,sp,208
    8000b266:	00004797          	auipc	a5,0x4
    8000b26a:	9e278793          	addi	a5,a5,-1566 # 8000ec48 <eone>
    8000b26e:	0007d683          	lhu	a3,0(a5)
    8000b272:	0789                	addi	a5,a5,2
    8000b274:	0709                	addi	a4,a4,2
    8000b276:	fed71f23          	sh	a3,-2(a4)
    8000b27a:	ff279ae3          	bne	a5,s2,8000b26e <_ldtoa_r+0x6be>
    8000b27e:	797d                	lui	s2,0xfffff
    8000b280:	00004c97          	auipc	s9,0x4
    8000b284:	8c0c8c93          	addi	s9,s9,-1856 # 8000eb40 <etens>
    8000b288:	00003c17          	auipc	s8,0x3
    8000b28c:	7b0c0c13          	addi	s8,s8,1968 # 8000ea38 <emtens>
    8000b290:	00004d97          	auipc	s11,0x4
    8000b294:	9b8d8d93          	addi	s11,s11,-1608 # 8000ec48 <eone>
    8000b298:	00004d17          	auipc	s10,0x4
    8000b29c:	890d0d13          	addi	s10,s10,-1904 # 8000eb28 <emtens+0xf0>
    8000b2a0:	a019                	j	8000b2a6 <_ldtoa_r+0x6f6>
    8000b2a2:	0c51                	addi	s8,s8,20
    8000b2a4:	0cd1                	addi	s9,s9,20
    8000b2a6:	85d2                	mv	a1,s4
    8000b2a8:	856e                	mv	a0,s11
    8000b2aa:	abbfe0ef          	jal	ra,80009d64 <ecmp>
    8000b2ae:	02a05e63          	blez	a0,8000b2ea <_ldtoa_r+0x73a>
    8000b2b2:	85d2                	mv	a1,s4
    8000b2b4:	8562                	mv	a0,s8
    8000b2b6:	aaffe0ef          	jal	ra,80009d64 <ecmp>
    8000b2ba:	02054063          	bltz	a0,8000b2da <_ldtoa_r+0x72a>
    8000b2be:	86de                	mv	a3,s7
    8000b2c0:	8652                	mv	a2,s4
    8000b2c2:	85d2                	mv	a1,s4
    8000b2c4:	8566                	mv	a0,s9
    8000b2c6:	d38ff0ef          	jal	ra,8000a7fe <emul>
    8000b2ca:	0990                	addi	a2,sp,208
    8000b2cc:	86de                	mv	a3,s7
    8000b2ce:	85b2                	mv	a1,a2
    8000b2d0:	8566                	mv	a0,s9
    8000b2d2:	d2cff0ef          	jal	ra,8000a7fe <emul>
    8000b2d6:	0089043b          	addw	s0,s2,s0
    8000b2da:	01f9579b          	srliw	a5,s2,0x1f
    8000b2de:	012787bb          	addw	a5,a5,s2
    8000b2e2:	4017d91b          	sraiw	s2,a5,0x1
    8000b2e6:	fbac1ee3          	bne	s8,s10,8000b2a2 <_ldtoa_r+0x6f2>
    8000b2ea:	0990                	addi	a2,sp,208
    8000b2ec:	86de                	mv	a3,s7
    8000b2ee:	00004597          	auipc	a1,0x4
    8000b2f2:	95a58593          	addi	a1,a1,-1702 # 8000ec48 <eone>
    8000b2f6:	8532                	mv	a0,a2
    8000b2f8:	8d8ff0ef          	jal	ra,8000a3d0 <ediv>
    8000b2fc:	17010b13          	addi	s6,sp,368
    8000b300:	b2d5                	j	8000ace4 <_ldtoa_r+0x134>
    8000b302:	67c2                	ld	a5,16(sp)
    8000b304:	9c3d                	addw	s0,s0,a5
    8000b306:	3e044263          	bltz	s0,8000b6ea <_ldtoa_r+0xb3a>
    8000b30a:	7782                	ld	a5,32(sp)
    8000b30c:	6762                	ld	a4,24(sp)
    8000b30e:	439c                	lw	a5,0(a5)
    8000b310:	9fb9                	addw	a5,a5,a4
    8000b312:	ec3e                	sd	a5,24(sp)
    8000b314:	67e2                	ld	a5,24(sp)
    8000b316:	467d                	li	a2,31
    8000b318:	4685                	li	a3,1
    8000b31a:	0037849b          	addiw	s1,a5,3
    8000b31e:	4791                	li	a5,4
    8000b320:	e4966de3          	bltu	a2,s1,8000b17a <_ldtoa_r+0x5ca>
    8000b324:	0609a423          	sw	zero,104(s3)
    8000b328:	4581                	li	a1,0
    8000b32a:	b5a5                	j	8000b192 <_ldtoa_r+0x5e2>
    8000b32c:	03000793          	li	a5,48
    8000b330:	e2f61de3          	bne	a2,a5,8000b16a <_ldtoa_r+0x5ba>
    8000b334:	416907b3          	sub	a5,s2,s6
    8000b338:	4685                	li	a3,1
    8000b33a:	e0f6c6e3          	blt	a3,a5,8000b146 <_ldtoa_r+0x596>
    8000b33e:	b535                	j	8000b16a <_ldtoa_r+0x5ba>
    8000b340:	0007c683          	lbu	a3,0(a5)
    8000b344:	d80688e3          	beqz	a3,8000b0d4 <_ldtoa_r+0x524>
    8000b348:	0017c703          	lbu	a4,1(a5)
    8000b34c:	0785                	addi	a5,a5,1
    8000b34e:	fee78fa3          	sb	a4,-1(a5)
    8000b352:	d80701e3          	beqz	a4,8000b0d4 <_ldtoa_r+0x524>
    8000b356:	0017c703          	lbu	a4,1(a5)
    8000b35a:	0785                	addi	a5,a5,1
    8000b35c:	fee78fa3          	sb	a4,-1(a5)
    8000b360:	f765                	bnez	a4,8000b348 <_ldtoa_r+0x798>
    8000b362:	bb8d                	j	8000b0d4 <_ldtoa_r+0x524>
    8000b364:	03100693          	li	a3,49
    8000b368:	16d108a3          	sb	a3,369(sp)
    8000b36c:	02e00693          	li	a3,46
    8000b370:	16d10923          	sb	a3,370(sp)
    8000b374:	2405                	addiw	s0,s0,1
    8000b376:	22f05063          	blez	a5,8000b596 <_ldtoa_r+0x9e6>
    8000b37a:	03000793          	li	a5,48
    8000b37e:	16f109a3          	sb	a5,371(sp)
    8000b382:	3afd                	addiw	s5,s5,-1
    8000b384:	1ac4                	addi	s1,sp,372
    8000b386:	b619                	j	8000ae8c <_ldtoa_r+0x2dc>
    8000b388:	6762                	ld	a4,24(sp)
    8000b38a:	02a00793          	li	a5,42
    8000b38e:	8aba                	mv	s5,a4
    8000b390:	00e7d463          	bge	a5,a4,8000b398 <_ldtoa_r+0x7e8>
    8000b394:	02a00a93          	li	s5,42
    8000b398:	000a879b          	sext.w	a5,s5
    8000b39c:	e83e                	sd	a5,16(sp)
    8000b39e:	b0d9                	j	8000ac64 <_ldtoa_r+0xb4>
    8000b3a0:	67e2                	ld	a5,24(sp)
    8000b3a2:	fff78a9b          	addiw	s5,a5,-1
    8000b3a6:	02a00793          	li	a5,42
    8000b3aa:	0157d463          	bge	a5,s5,8000b3b2 <_ldtoa_r+0x802>
    8000b3ae:	02a00a93          	li	s5,42
    8000b3b2:	e856                	sd	s5,16(sp)
    8000b3b4:	b845                	j	8000ac64 <_ldtoa_r+0xb4>
    8000b3b6:	0f010c13          	addi	s8,sp,240
    8000b3ba:	8762                	mv	a4,s8
    8000b3bc:	191c                	addi	a5,sp,176
    8000b3be:	0007d683          	lhu	a3,0(a5)
    8000b3c2:	0789                	addi	a5,a5,2
    8000b3c4:	0709                	addi	a4,a4,2
    8000b3c6:	fed71f23          	sh	a3,-2(a4)
    8000b3ca:	fe879ae3          	bne	a5,s0,8000b3be <_ldtoa_r+0x80e>
    8000b3ce:	6791                	lui	a5,0x4
    8000b3d0:	08e78793          	addi	a5,a5,142 # 408e <_tbss_end+0x404a>
    8000b3d4:	10f11123          	sh	a5,258(sp)
    8000b3d8:	67a1                	lui	a5,0x8
    8000b3da:	17fd                	addi	a5,a5,-1 # 7fff <_tbss_end+0x7fbb>
    8000b3dc:	fc3e                	sd	a5,56(sp)
    8000b3de:	77f1                	lui	a5,0xffffc
    8000b3e0:	4401                	li	s0,0
    8000b3e2:	4741                	li	a4,16
    8000b3e4:	00003e97          	auipc	t4,0x3
    8000b3e8:	7fce8e93          	addi	t4,t4,2044 # 8000ebe0 <etens+0xa0>
    8000b3ec:	2789                	addiw	a5,a5,2 # ffffffffffffc002 <_end+0xffffffff7cfeadc2>
    8000b3ee:	e4a6                	sd	s1,72(sp)
    8000b3f0:	e8ce                	sd	s3,80(sp)
    8000b3f2:	84a2                	mv	s1,s0
    8000b3f4:	17010b13          	addi	s6,sp,368
    8000b3f8:	1b010b93          	addi	s7,sp,432
    8000b3fc:	08c10d13          	addi	s10,sp,140
    8000b400:	11010a13          	addi	s4,sp,272
    8000b404:	0e210c93          	addi	s9,sp,226
    8000b408:	c2be                	sw	a5,68(sp)
    8000b40a:	0e410d93          	addi	s11,sp,228
    8000b40e:	843a                	mv	s0,a4
    8000b410:	89f6                	mv	s3,t4
    8000b412:	86de                	mv	a3,s7
    8000b414:	0990                	addi	a2,sp,208
    8000b416:	85e2                	mv	a1,s8
    8000b418:	854e                	mv	a0,s3
    8000b41a:	fb7fe0ef          	jal	ra,8000a3d0 <ediv>
    8000b41e:	18bc                	addi	a5,sp,120
    8000b420:	0998                	addi	a4,sp,208
    8000b422:	00075683          	lhu	a3,0(a4)
    8000b426:	0789                	addi	a5,a5,2
    8000b428:	0709                	addi	a4,a4,2
    8000b42a:	fed79f23          	sh	a3,-2(a5)
    8000b42e:	ffa79ae3          	bne	a5,s10,8000b422 <_ldtoa_r+0x872>
    8000b432:	77e2                	ld	a5,56(sp)
    8000b434:	08a15583          	lhu	a1,138(sp)
    8000b438:	00f5f533          	and	a0,a1,a5
    8000b43c:	4796                	lw	a5,68(sp)
    8000b43e:	9fa9                	addw	a5,a5,a0
    8000b440:	853e                	mv	a0,a5
    8000b442:	2af05b63          	blez	a5,8000b6f8 <_ldtoa_r+0xb48>
    8000b446:	09000793          	li	a5,144
    8000b44a:	40a7863b          	subw	a2,a5,a0
    8000b44e:	8752                	mv	a4,s4
    8000b450:	18bc                	addi	a5,sp,120
    8000b452:	0007d683          	lhu	a3,0(a5)
    8000b456:	0789                	addi	a5,a5,2
    8000b458:	0709                	addi	a4,a4,2
    8000b45a:	fed71f23          	sh	a3,-2(a4)
    8000b45e:	ffa79ae3          	bne	a5,s10,8000b452 <_ldtoa_r+0x8a2>
    8000b462:	04c05c63          	blez	a2,8000b4ba <_ldtoa_r+0x90a>
    8000b466:	47bd                	li	a5,15
    8000b468:	8752                	mv	a4,s4
    8000b46a:	02c7d763          	bge	a5,a2,8000b498 <_ldtoa_r+0x8e8>
    8000b46e:	08000693          	li	a3,128
    8000b472:	9e89                	subw	a3,a3,a0
    8000b474:	0046d69b          	srliw	a3,a3,0x4
    8000b478:	0016871b          	addiw	a4,a3,1
    8000b47c:	0706                	slli	a4,a4,0x1
    8000b47e:	9752                	add	a4,a4,s4
    8000b480:	87d2                	mv	a5,s4
    8000b482:	0789                	addi	a5,a5,2
    8000b484:	fe079f23          	sh	zero,-2(a5)
    8000b488:	fee79de3          	bne	a5,a4,8000b482 <_ldtoa_r+0x8d2>
    8000b48c:	08000613          	li	a2,128
    8000b490:	9e09                	subw	a2,a2,a0
    8000b492:	0046969b          	slliw	a3,a3,0x4
    8000b496:	9e15                	subw	a2,a2,a3
    8000b498:	00003697          	auipc	a3,0x3
    8000b49c:	57868693          	addi	a3,a3,1400 # 8000ea10 <bmask>
    8000b4a0:	00161793          	slli	a5,a2,0x1
    8000b4a4:	97b6                	add	a5,a5,a3
    8000b4a6:	0007d783          	lhu	a5,0(a5)
    8000b4aa:	00075683          	lhu	a3,0(a4)
    8000b4ae:	8ff5                	and	a5,a5,a3
    8000b4b0:	00f71023          	sh	a5,0(a4)
    8000b4b4:	81bd                	srli	a1,a1,0xf
    8000b4b6:	10059663          	bnez	a1,8000b5c2 <_ldtoa_r+0xa12>
    8000b4ba:	099c                	addi	a5,sp,208
    8000b4bc:	8752                	mv	a4,s4
    8000b4be:	0007d603          	lhu	a2,0(a5)
    8000b4c2:	00075683          	lhu	a3,0(a4)
    8000b4c6:	02d61163          	bne	a2,a3,8000b4e8 <_ldtoa_r+0x938>
    8000b4ca:	0789                	addi	a5,a5,2
    8000b4cc:	0709                	addi	a4,a4,2
    8000b4ce:	ff9798e3          	bne	a5,s9,8000b4be <_ldtoa_r+0x90e>
    8000b4d2:	8762                	mv	a4,s8
    8000b4d4:	099c                	addi	a5,sp,208
    8000b4d6:	0007d683          	lhu	a3,0(a5)
    8000b4da:	0789                	addi	a5,a5,2
    8000b4dc:	0709                	addi	a4,a4,2
    8000b4de:	fed71f23          	sh	a3,-2(a4)
    8000b4e2:	ffb79ae3          	bne	a5,s11,8000b4d6 <_ldtoa_r+0x926>
    8000b4e6:	9ca1                	addw	s1,s1,s0
    8000b4e8:	09d1                	addi	s3,s3,20
    8000b4ea:	00003797          	auipc	a5,0x3
    8000b4ee:	75a78793          	addi	a5,a5,1882 # 8000ec44 <etens+0x104>
    8000b4f2:	8005                	srli	s0,s0,0x1
    8000b4f4:	f0f99fe3          	bne	s3,a5,8000b412 <_ldtoa_r+0x862>
    8000b4f8:	10215683          	lhu	a3,258(sp)
    8000b4fc:	77f1                	lui	a5,0xffffc
    8000b4fe:	f727879b          	addiw	a5,a5,-142 # ffffffffffffbf72 <_end+0xffffffff7cfead32>
    8000b502:	9fb5                	addw	a5,a5,a3
    8000b504:	8426                	mv	s0,s1
    8000b506:	69c6                	ld	s3,80(sp)
    8000b508:	64a6                	ld	s1,72(sp)
    8000b50a:	015787bb          	addw	a5,a5,s5
    8000b50e:	10f11123          	sh	a5,258(sp)
    8000b512:	1914                	addi	a3,sp,176
    8000b514:	87e2                	mv	a5,s8
    8000b516:	024c                	addi	a1,sp,260
    8000b518:	0007d703          	lhu	a4,0(a5)
    8000b51c:	0789                	addi	a5,a5,2
    8000b51e:	0689                	addi	a3,a3,2
    8000b520:	fee69f23          	sh	a4,-2(a3)
    8000b524:	feb79ae3          	bne	a5,a1,8000b518 <_ldtoa_r+0x968>
    8000b528:	0994                	addi	a3,sp,208
    8000b52a:	00003797          	auipc	a5,0x3
    8000b52e:	71e78793          	addi	a5,a5,1822 # 8000ec48 <eone>
    8000b532:	0007d703          	lhu	a4,0(a5)
    8000b536:	0789                	addi	a5,a5,2
    8000b538:	0689                	addi	a3,a3,2
    8000b53a:	fee69f23          	sh	a4,-2(a3)
    8000b53e:	ff279ae3          	bne	a5,s2,8000b532 <_ldtoa_r+0x982>
    8000b542:	6c85                	lui	s9,0x1
    8000b544:	00003917          	auipc	s2,0x3
    8000b548:	5fc90913          	addi	s2,s2,1532 # 8000eb40 <etens>
    8000b54c:	00003d17          	auipc	s10,0x3
    8000b550:	6e4d0d13          	addi	s10,s10,1764 # 8000ec30 <etens+0xf0>
    8000b554:	a031                	j	8000b560 <_ldtoa_r+0x9b0>
    8000b556:	001cdc93          	srli	s9,s9,0x1
    8000b55a:	1da90563          	beq	s2,s10,8000b724 <_ldtoa_r+0xb74>
    8000b55e:	0951                	addi	s2,s2,20
    8000b560:	85e2                	mv	a1,s8
    8000b562:	856a                	mv	a0,s10
    8000b564:	801fe0ef          	jal	ra,80009d64 <ecmp>
    8000b568:	1aa04e63          	bgtz	a0,8000b724 <_ldtoa_r+0xb74>
    8000b56c:	85e2                	mv	a1,s8
    8000b56e:	854a                	mv	a0,s2
    8000b570:	ff4fe0ef          	jal	ra,80009d64 <ecmp>
    8000b574:	fea041e3          	bgtz	a0,8000b556 <_ldtoa_r+0x9a6>
    8000b578:	86de                	mv	a3,s7
    8000b57a:	8662                	mv	a2,s8
    8000b57c:	85e2                	mv	a1,s8
    8000b57e:	854a                	mv	a0,s2
    8000b580:	e51fe0ef          	jal	ra,8000a3d0 <ediv>
    8000b584:	0990                	addi	a2,sp,208
    8000b586:	86de                	mv	a3,s7
    8000b588:	85b2                	mv	a1,a2
    8000b58a:	854a                	mv	a0,s2
    8000b58c:	a72ff0ef          	jal	ra,8000a7fe <emul>
    8000b590:	008c843b          	addw	s0,s9,s0
    8000b594:	b7c9                	j	8000b556 <_ldtoa_r+0x9a6>
    8000b596:	17310493          	addi	s1,sp,371
    8000b59a:	4a81                	li	s5,0
    8000b59c:	ae0798e3          	bnez	a5,8000b08c <_ldtoa_r+0x4dc>
    8000b5a0:	b0f5                	j	8000ae8c <_ldtoa_r+0x2dc>
    8000b5a2:	87da                	mv	a5,s6
    8000b5a4:	b6a1                	j	8000b0ec <_ldtoa_r+0x53c>
    8000b5a6:	6762                	ld	a4,24(sp)
    8000b5a8:	02a00793          	li	a5,42
    8000b5ac:	8aba                	mv	s5,a4
    8000b5ae:	00e7d463          	bge	a5,a4,8000b5b6 <_ldtoa_r+0xa06>
    8000b5b2:	02a00a93          	li	s5,42
    8000b5b6:	000a879b          	sext.w	a5,s5
    8000b5ba:	e83e                	sd	a5,16(sp)
    8000b5bc:	bc31                	j	8000afd8 <_ldtoa_r+0x428>
    8000b5be:	4681                	li	a3,0
    8000b5c0:	bad5                	j	8000afb4 <_ldtoa_r+0x404>
    8000b5c2:	18bc                	addi	a5,sp,120
    8000b5c4:	8752                	mv	a4,s4
    8000b5c6:	a039                	j	8000b5d4 <_ldtoa_r+0xa24>
    8000b5c8:	0789                	addi	a5,a5,2
    8000b5ca:	08a10693          	addi	a3,sp,138
    8000b5ce:	0709                	addi	a4,a4,2
    8000b5d0:	eed785e3          	beq	a5,a3,8000b4ba <_ldtoa_r+0x90a>
    8000b5d4:	0007d603          	lhu	a2,0(a5)
    8000b5d8:	00075683          	lhu	a3,0(a4)
    8000b5dc:	fed606e3          	beq	a2,a3,8000b5c8 <_ldtoa_r+0xa18>
    8000b5e0:	12215783          	lhu	a5,290(sp)
    8000b5e4:	fff7c793          	not	a5,a5
    8000b5e8:	03179713          	slli	a4,a5,0x31
    8000b5ec:	2c070363          	beqz	a4,8000b8b2 <_ldtoa_r+0xd02>
    8000b5f0:	1a0c                	addi	a1,sp,304
    8000b5f2:	00003517          	auipc	a0,0x3
    8000b5f6:	65650513          	addi	a0,a0,1622 # 8000ec48 <eone>
    8000b5fa:	ed6fe0ef          	jal	ra,80009cd0 <emovi>
    8000b5fe:	0a8c                	addi	a1,sp,336
    8000b600:	8552                	mv	a0,s4
    8000b602:	ecefe0ef          	jal	ra,80009cd0 <emovi>
    8000b606:	13015783          	lhu	a5,304(sp)
    8000b60a:	15215703          	lhu	a4,338(sp)
    8000b60e:	13215883          	lhu	a7,306(sp)
    8000b612:	fff7c793          	not	a5,a5
    8000b616:	12f11823          	sh	a5,304(sp)
    8000b61a:	40e885b3          	sub	a1,a7,a4
    8000b61e:	86ba                	mv	a3,a4
    8000b620:	04b05e63          	blez	a1,8000b67c <_ldtoa_r+0xacc>
    8000b624:	0a8c                	addi	a1,sp,336
    8000b626:	86da                	mv	a3,s6
    8000b628:	12bc                	addi	a5,sp,360
    8000b62a:	855a                	mv	a0,s6
    8000b62c:	862e                	mv	a2,a1
    8000b62e:	00063803          	ld	a6,0(a2)
    8000b632:	0621                	addi	a2,a2,8
    8000b634:	0521                	addi	a0,a0,8
    8000b636:	ff053c23          	sd	a6,-8(a0)
    8000b63a:	fec79ae3          	bne	a5,a2,8000b62e <_ldtoa_r+0xa7e>
    8000b63e:	1a10                	addi	a2,sp,304
    8000b640:	18011423          	sh	zero,392(sp)
    8000b644:	02a8                	addi	a0,sp,328
    8000b646:	87b2                	mv	a5,a2
    8000b648:	0007b803          	ld	a6,0(a5)
    8000b64c:	07a1                	addi	a5,a5,8
    8000b64e:	05a1                	addi	a1,a1,8
    8000b650:	ff05bc23          	sd	a6,-8(a1)
    8000b654:	fea79ae3          	bne	a5,a0,8000b648 <_ldtoa_r+0xa98>
    8000b658:	16011423          	sh	zero,360(sp)
    8000b65c:	018b0793          	addi	a5,s6,24
    8000b660:	628c                	ld	a1,0(a3)
    8000b662:	06a1                	addi	a3,a3,8
    8000b664:	0621                	addi	a2,a2,8
    8000b666:	feb63c23          	sd	a1,-8(a2)
    8000b66a:	fef69be3          	bne	a3,a5,8000b660 <_ldtoa_r+0xab0>
    8000b66e:	15215683          	lhu	a3,338(sp)
    8000b672:	411705b3          	sub	a1,a4,a7
    8000b676:	14011423          	sh	zero,328(sp)
    8000b67a:	8736                	mv	a4,a3
    8000b67c:	24058e63          	beqz	a1,8000b8d8 <_ldtoa_r+0xd28>
    8000b680:	ecb6                	sd	a3,88(sp)
    8000b682:	f6f00793          	li	a5,-145
    8000b686:	04f5cd63          	blt	a1,a5,8000b6e0 <_ldtoa_r+0xb30>
    8000b68a:	2581                	sext.w	a1,a1
    8000b68c:	1a08                	addi	a0,sp,304
    8000b68e:	cfafe0ef          	jal	ra,80009b88 <eshift.part.0>
    8000b692:	66e6                	ld	a3,88(sp)
    8000b694:	85aa                	mv	a1,a0
    8000b696:	12bc                	addi	a5,sp,360
    8000b698:	13015603          	lhu	a2,304(sp)
    8000b69c:	15015703          	lhu	a4,336(sp)
    8000b6a0:	34e60463          	beq	a2,a4,8000b9e8 <_ldtoa_r+0xe38>
    8000b6a4:	4701                	li	a4,0
    8000b6a6:	14810893          	addi	a7,sp,328
    8000b6aa:	15210513          	addi	a0,sp,338
    8000b6ae:	0007d603          	lhu	a2,0(a5)
    8000b6b2:	0008d803          	lhu	a6,0(a7)
    8000b6b6:	17f9                	addi	a5,a5,-2
    8000b6b8:	18f9                	addi	a7,a7,-2
    8000b6ba:	41060633          	sub	a2,a2,a6
    8000b6be:	40e60733          	sub	a4,a2,a4
    8000b6c2:	01075613          	srli	a2,a4,0x10
    8000b6c6:	00e79123          	sh	a4,2(a5)
    8000b6ca:	00167713          	andi	a4,a2,1
    8000b6ce:	fea790e3          	bne	a5,a0,8000b6ae <_ldtoa_r+0xafe>
    8000b6d2:	4605                	li	a2,1
    8000b6d4:	87de                	mv	a5,s7
    8000b6d6:	04000713          	li	a4,64
    8000b6da:	0a88                	addi	a0,sp,336
    8000b6dc:	f70fe0ef          	jal	ra,80009e4c <emdnorm>
    8000b6e0:	85d2                	mv	a1,s4
    8000b6e2:	0a88                	addi	a0,sp,336
    8000b6e4:	b0cfe0ef          	jal	ra,800099f0 <emovo.constprop.0>
    8000b6e8:	bbc9                	j	8000b4ba <_ldtoa_r+0x90a>
    8000b6ea:	7782                	ld	a5,32(sp)
    8000b6ec:	16010823          	sb	zero,368(sp)
    8000b6f0:	895a                	mv	s2,s6
    8000b6f2:	0007a023          	sw	zero,0(a5)
    8000b6f6:	b939                	j	8000b314 <_ldtoa_r+0x764>
    8000b6f8:	87d2                	mv	a5,s4
    8000b6fa:	0789                	addi	a5,a5,2
    8000b6fc:	1258                	addi	a4,sp,292
    8000b6fe:	fe079f23          	sh	zero,-2(a5)
    8000b702:	fee79ce3          	bne	a5,a4,8000b6fa <_ldtoa_r+0xb4a>
    8000b706:	b37d                	j	8000b4b4 <_ldtoa_r+0x904>
    8000b708:	17010b13          	addi	s6,sp,368
    8000b70c:	ccd5                	beqz	s1,8000b7c8 <_ldtoa_r+0xc18>
    8000b70e:	00003597          	auipc	a1,0x3
    8000b712:	22258593          	addi	a1,a1,546 # 8000e930 <blanks.1+0x2a8>
    8000b716:	855a                	mv	a0,s6
    8000b718:	988f70ef          	jal	ra,800028a0 <sprintf>
    8000b71c:	6409                	lui	s0,0x2
    8000b71e:	70f40413          	addi	s0,s0,1807 # 270f <_tbss_end+0x26cb>
    8000b722:	baad                	j	8000b09c <_ldtoa_r+0x4ec>
    8000b724:	12810a93          	addi	s5,sp,296
    8000b728:	dbcff06f          	j	8000ace4 <_ldtoa_r+0x134>
    8000b72c:	2685                	addiw	a3,a3,1
    8000b72e:	00d58023          	sb	a3,0(a1)
    8000b732:	baa9                	j	8000b08c <_ldtoa_r+0x4dc>
    8000b734:	fff5c783          	lbu	a5,-1(a1)
    8000b738:	03800693          	li	a3,56
    8000b73c:	08f6fe63          	bgeu	a3,a5,8000b7d8 <_ldtoa_r+0xc28>
    8000b740:	03100793          	li	a5,49
    8000b744:	2405                	addiw	s0,s0,1
    8000b746:	fef58fa3          	sb	a5,-1(a1)
    8000b74a:	b289                	j	8000b08c <_ldtoa_r+0x4dc>
    8000b74c:	091c                	addi	a5,sp,144
    8000b74e:	0a210613          	addi	a2,sp,162
    8000b752:	a019                	j	8000b758 <_ldtoa_r+0xba8>
    8000b754:	94c78fe3          	beq	a5,a2,8000b0b2 <_ldtoa_r+0x502>
    8000b758:	0007d703          	lhu	a4,0(a5)
    8000b75c:	0789                	addi	a5,a5,2
    8000b75e:	db7d                	beqz	a4,8000b754 <_ldtoa_r+0xba4>
    8000b760:	7702                	ld	a4,32(sp)
    8000b762:	6789                	lui	a5,0x2
    8000b764:	70f78793          	addi	a5,a5,1807 # 270f <_tbss_end+0x26cb>
    8000b768:	c31c                	sw	a5,0(a4)
    8000b76a:	b259                	j	8000b0f0 <_ldtoa_r+0x540>
    8000b76c:	17010b13          	addi	s6,sp,368
    8000b770:	00003597          	auipc	a1,0x3
    8000b774:	1e058593          	addi	a1,a1,480 # 8000e950 <blanks.1+0x2c8>
    8000b778:	855a                	mv	a0,s6
    8000b77a:	926f70ef          	jal	ra,800028a0 <sprintf>
    8000b77e:	bf79                	j	8000b71c <_ldtoa_r+0xb6c>
    8000b780:	098c                	addi	a1,sp,208
    8000b782:	1908                	addi	a0,sp,176
    8000b784:	fc3e                	sd	a5,56(sp)
    8000b786:	a6afe0ef          	jal	ra,800099f0 <emovo.constprop.0>
    8000b78a:	00003597          	auipc	a1,0x3
    8000b78e:	4d658593          	addi	a1,a1,1238 # 8000ec60 <ezero>
    8000b792:	0988                	addi	a0,sp,208
    8000b794:	dd0fe0ef          	jal	ra,80009d64 <ecmp>
    8000b798:	77e2                	ld	a5,56(sp)
    8000b79a:	8a051ae3          	bnez	a0,8000b04e <_ldtoa_r+0x49e>
    8000b79e:	8e0ac7e3          	bltz	s5,8000b08c <_ldtoa_r+0x4dc>
    8000b7a2:	ffe7c683          	lbu	a3,-2(a5)
    8000b7a6:	ffe78593          	addi	a1,a5,-2
    8000b7aa:	fd268613          	addi	a2,a3,-46
    8000b7ae:	00163613          	seqz	a2,a2
    8000b7b2:	fff64613          	not	a2,a2
    8000b7b6:	9626                	add	a2,a2,s1
    8000b7b8:	00064603          	lbu	a2,0(a2)
    8000b7bc:	07f6f693          	andi	a3,a3,127
    8000b7c0:	8a05                	andi	a2,a2,1
    8000b7c2:	88061ee3          	bnez	a2,8000b05e <_ldtoa_r+0x4ae>
    8000b7c6:	b0d9                	j	8000b08c <_ldtoa_r+0x4dc>
    8000b7c8:	00003597          	auipc	a1,0x3
    8000b7cc:	17858593          	addi	a1,a1,376 # 8000e940 <blanks.1+0x2b8>
    8000b7d0:	855a                	mv	a0,s6
    8000b7d2:	8cef70ef          	jal	ra,800028a0 <sprintf>
    8000b7d6:	b799                	j	8000b71c <_ldtoa_r+0xb6c>
    8000b7d8:	2785                	addiw	a5,a5,1
    8000b7da:	fef58fa3          	sb	a5,-1(a1)
    8000b7de:	b07d                	j	8000b08c <_ldtoa_r+0x4dc>
    8000b7e0:	11010a13          	addi	s4,sp,272
    8000b7e4:	85d2                	mv	a1,s4
    8000b7e6:	1908                	addi	a0,sp,176
    8000b7e8:	6d11                	lui	s10,0x4
    8000b7ea:	ce6fe0ef          	jal	ra,80009cd0 <emovi>
    8000b7ee:	4401                	li	s0,0
    8000b7f0:	12810a93          	addi	s5,sp,296
    8000b7f4:	11210b93          	addi	s7,sp,274
    8000b7f8:	1d79                	addi	s10,s10,-2 # 3ffe <_tbss_end+0x3fba>
    8000b7fa:	10810c93          	addi	s9,sp,264
    8000b7fe:	fd500d93          	li	s11,-43
    8000b802:	12815783          	lhu	a5,296(sp)
    8000b806:	8b9d                	andi	a5,a5,7
    8000b808:	efd1                	bnez	a5,8000b8a4 <_ldtoa_r+0xcf4>
    8000b80a:	0f010b13          	addi	s6,sp,240
    8000b80e:	8c52                	mv	s8,s4
    8000b810:	875a                	mv	a4,s6
    8000b812:	87d2                	mv	a5,s4
    8000b814:	6394                	ld	a3,0(a5)
    8000b816:	07a1                	addi	a5,a5,8
    8000b818:	0721                	addi	a4,a4,8
    8000b81a:	fed73c23          	sd	a3,-8(a4)
    8000b81e:	ff579be3          	bne	a5,s5,8000b814 <_ldtoa_r+0xc64>
    8000b822:	1988                	addi	a0,sp,240
    8000b824:	10011423          	sh	zero,264(sp)
    8000b828:	8e6fe0ef          	jal	ra,8000990e <eshdn1>
    8000b82c:	1988                	addi	a0,sp,240
    8000b82e:	8e0fe0ef          	jal	ra,8000990e <eshdn1>
    8000b832:	4601                	li	a2,0
    8000b834:	0234                	addi	a3,sp,264
    8000b836:	8756                	mv	a4,s5
    8000b838:	0006d583          	lhu	a1,0(a3)
    8000b83c:	00075783          	lhu	a5,0(a4)
    8000b840:	16f9                	addi	a3,a3,-2
    8000b842:	1779                	addi	a4,a4,-2
    8000b844:	97ae                	add	a5,a5,a1
    8000b846:	97b2                	add	a5,a5,a2
    8000b848:	0107d613          	srli	a2,a5,0x10
    8000b84c:	00f69123          	sh	a5,2(a3)
    8000b850:	8a05                	andi	a2,a2,1
    8000b852:	ff7713e3          	bne	a4,s7,8000b838 <_ldtoa_r+0xc88>
    8000b856:	0f215783          	lhu	a5,242(sp)
    8000b85a:	0f415703          	lhu	a4,244(sp)
    8000b85e:	278d                	addiw	a5,a5,3
    8000b860:	0ef11923          	sh	a5,242(sp)
    8000b864:	cf01                	beqz	a4,8000b87c <_ldtoa_r+0xccc>
    8000b866:	1988                	addi	a0,sp,240
    8000b868:	8a6fe0ef          	jal	ra,8000990e <eshdn1>
    8000b86c:	0f215783          	lhu	a5,242(sp)
    8000b870:	0f415703          	lhu	a4,244(sp)
    8000b874:	2785                	addiw	a5,a5,1
    8000b876:	0ef11923          	sh	a5,242(sp)
    8000b87a:	f775                	bnez	a4,8000b866 <_ldtoa_r+0xcb6>
    8000b87c:	10815783          	lhu	a5,264(sp)
    8000b880:	e395                	bnez	a5,8000b8a4 <_ldtoa_r+0xcf4>
    8000b882:	0f215783          	lhu	a5,242(sp)
    8000b886:	00fd6f63          	bltu	s10,a5,8000b8a4 <_ldtoa_r+0xcf4>
    8000b88a:	000b3783          	ld	a5,0(s6)
    8000b88e:	0b21                	addi	s6,s6,8
    8000b890:	0c21                	addi	s8,s8,8
    8000b892:	fefc3c23          	sd	a5,-8(s8)
    8000b896:	ff9b1ae3          	bne	s6,s9,8000b88a <_ldtoa_r+0xcda>
    8000b89a:	12011423          	sh	zero,296(sp)
    8000b89e:	347d                	addiw	s0,s0,-1
    8000b8a0:	f7b411e3          	bne	s0,s11,8000b802 <_ldtoa_r+0xc52>
    8000b8a4:	190c                	addi	a1,sp,176
    8000b8a6:	8552                	mv	a0,s4
    8000b8a8:	948fe0ef          	jal	ra,800099f0 <emovo.constprop.0>
    8000b8ac:	1b010b93          	addi	s7,sp,432
    8000b8b0:	ba79                	j	8000b24e <_ldtoa_r+0x69e>
    8000b8b2:	87d2                	mv	a5,s4
    8000b8b4:	12210713          	addi	a4,sp,290
    8000b8b8:	0007d683          	lhu	a3,0(a5)
    8000b8bc:	0789                	addi	a5,a5,2
    8000b8be:	be069ee3          	bnez	a3,8000b4ba <_ldtoa_r+0x90a>
    8000b8c2:	fee79be3          	bne	a5,a4,8000b8b8 <_ldtoa_r+0xd08>
    8000b8c6:	87d2                	mv	a5,s4
    8000b8c8:	0007d683          	lhu	a3,0(a5)
    8000b8cc:	0789                	addi	a5,a5,2
    8000b8ce:	d20691e3          	bnez	a3,8000b5f0 <_ldtoa_r+0xa40>
    8000b8d2:	fee79be3          	bne	a5,a4,8000b8c8 <_ldtoa_r+0xd18>
    8000b8d6:	b6d5                	j	8000b4ba <_ldtoa_r+0x90a>
    8000b8d8:	0ad0                	addi	a2,sp,340
    8000b8da:	1a5c                	addi	a5,sp,308
    8000b8dc:	14a10893          	addi	a7,sp,330
    8000b8e0:	0007d503          	lhu	a0,0(a5)
    8000b8e4:	00065583          	lhu	a1,0(a2)
    8000b8e8:	0789                	addi	a5,a5,2
    8000b8ea:	0609                	addi	a2,a2,2
    8000b8ec:	04b51063          	bne	a0,a1,8000b92c <_ldtoa_r+0xd7c>
    8000b8f0:	ff1798e3          	bne	a5,a7,8000b8e0 <_ldtoa_r+0xd30>
    8000b8f4:	13015603          	lhu	a2,304(sp)
    8000b8f8:	15015783          	lhu	a5,336(sp)
    8000b8fc:	08f60263          	beq	a2,a5,8000b980 <_ldtoa_r+0xdd0>
    8000b900:	87d2                	mv	a5,s4
    8000b902:	1258                	addi	a4,sp,292
    8000b904:	0789                	addi	a5,a5,2
    8000b906:	fe079f23          	sh	zero,-2(a5)
    8000b90a:	fee79de3          	bne	a5,a4,8000b904 <_ldtoa_r+0xd54>
    8000b90e:	b675                	j	8000b4ba <_ldtoa_r+0x90a>
    8000b910:	6585                	lui	a1,0x1
    8000b912:	00003697          	auipc	a3,0x3
    8000b916:	04e68693          	addi	a3,a3,78 # 8000e960 <blanks.1+0x2d8>
    8000b91a:	4601                	li	a2,0
    8000b91c:	b6e58593          	addi	a1,a1,-1170 # b6e <_tbss_end+0xb2a>
    8000b920:	00003517          	auipc	a0,0x3
    8000b924:	05850513          	addi	a0,a0,88 # 8000e978 <blanks.1+0x2f0>
    8000b928:	a33f90ef          	jal	ra,8000535a <__assert_func>
    8000b92c:	12bc                	addi	a5,sp,360
    8000b92e:	04a5f763          	bgeu	a1,a0,8000b97c <_ldtoa_r+0xdcc>
    8000b932:	0a98                	addi	a4,sp,336
    8000b934:	85da                	mv	a1,s6
    8000b936:	12bc                	addi	a5,sp,360
    8000b938:	855a                	mv	a0,s6
    8000b93a:	863a                	mv	a2,a4
    8000b93c:	00063803          	ld	a6,0(a2)
    8000b940:	0621                	addi	a2,a2,8
    8000b942:	0521                	addi	a0,a0,8
    8000b944:	ff053c23          	sd	a6,-8(a0)
    8000b948:	fec79ae3          	bne	a5,a2,8000b93c <_ldtoa_r+0xd8c>
    8000b94c:	1a10                	addi	a2,sp,304
    8000b94e:	18011423          	sh	zero,392(sp)
    8000b952:	8532                	mv	a0,a2
    8000b954:	00053803          	ld	a6,0(a0)
    8000b958:	0721                	addi	a4,a4,8
    8000b95a:	0521                	addi	a0,a0,8
    8000b95c:	ff073c23          	sd	a6,-8(a4)
    8000b960:	fee79ae3          	bne	a5,a4,8000b954 <_ldtoa_r+0xda4>
    8000b964:	16011423          	sh	zero,360(sp)
    8000b968:	02b8                	addi	a4,sp,328
    8000b96a:	6188                	ld	a0,0(a1)
    8000b96c:	0621                	addi	a2,a2,8
    8000b96e:	05a1                	addi	a1,a1,8
    8000b970:	fea63c23          	sd	a0,-8(a2)
    8000b974:	fec71be3          	bne	a4,a2,8000b96a <_ldtoa_r+0xdba>
    8000b978:	14011423          	sh	zero,328(sp)
    8000b97c:	4581                	li	a1,0
    8000b97e:	bb29                	j	8000b698 <_ldtoa_r+0xae8>
    8000b980:	87b6                	mv	a5,a3
    8000b982:	e689                	bnez	a3,8000b98c <_ldtoa_r+0xddc>
    8000b984:	15611603          	lh	a2,342(sp)
    8000b988:	00065e63          	bgez	a2,8000b9a4 <_ldtoa_r+0xdf4>
    8000b98c:	15210613          	addi	a2,sp,338
    8000b990:	12bc                	addi	a5,sp,360
    8000b992:	00065583          	lhu	a1,0(a2)
    8000b996:	e5a1                	bnez	a1,8000b9de <_ldtoa_r+0xe2e>
    8000b998:	0609                	addi	a2,a2,2
    8000b99a:	fec79ce3          	bne	a5,a2,8000b992 <_ldtoa_r+0xde2>
    8000b99e:	14e11923          	sh	a4,338(sp)
    8000b9a2:	bb3d                	j	8000b6e0 <_ldtoa_r+0xb30>
    8000b9a4:	12b4                	addi	a3,sp,360
    8000b9a6:	15210513          	addi	a0,sp,338
    8000b9aa:	0006d703          	lhu	a4,0(a3)
    8000b9ae:	00f75613          	srli	a2,a4,0xf
    8000b9b2:	c219                	beqz	a2,8000b9b8 <_ldtoa_r+0xe08>
    8000b9b4:	0017e793          	ori	a5,a5,1
    8000b9b8:	0017171b          	slliw	a4,a4,0x1
    8000b9bc:	1742                	slli	a4,a4,0x30
    8000b9be:	0027f613          	andi	a2,a5,2
    8000b9c2:	9341                	srli	a4,a4,0x30
    8000b9c4:	c219                	beqz	a2,8000b9ca <_ldtoa_r+0xe1a>
    8000b9c6:	00176713          	ori	a4,a4,1
    8000b9ca:	0017979b          	slliw	a5,a5,0x1
    8000b9ce:	00e69023          	sh	a4,0(a3)
    8000b9d2:	17c2                	slli	a5,a5,0x30
    8000b9d4:	16f9                	addi	a3,a3,-2
    8000b9d6:	93c1                	srli	a5,a5,0x30
    8000b9d8:	fca699e3          	bne	a3,a0,8000b9aa <_ldtoa_r+0xdfa>
    8000b9dc:	b311                	j	8000b6e0 <_ldtoa_r+0xb30>
    8000b9de:	00168713          	addi	a4,a3,1
    8000b9e2:	14e11923          	sh	a4,338(sp)
    8000b9e6:	b9ed                	j	8000b6e0 <_ldtoa_r+0xb30>
    8000b9e8:	4701                	li	a4,0
    8000b9ea:	02a8                	addi	a0,sp,328
    8000b9ec:	13210893          	addi	a7,sp,306
    8000b9f0:	0007d803          	lhu	a6,0(a5)
    8000b9f4:	00055603          	lhu	a2,0(a0)
    8000b9f8:	17f9                	addi	a5,a5,-2
    8000b9fa:	1579                	addi	a0,a0,-2
    8000b9fc:	9642                	add	a2,a2,a6
    8000b9fe:	9732                	add	a4,a4,a2
    8000ba00:	01075613          	srli	a2,a4,0x10
    8000ba04:	00e79123          	sh	a4,2(a5)
    8000ba08:	00167713          	andi	a4,a2,1
    8000ba0c:	ff1512e3          	bne	a0,a7,8000b9f0 <_ldtoa_r+0xe40>
    8000ba10:	4601                	li	a2,0
    8000ba12:	b1c9                	j	8000b6d4 <_ldtoa_r+0xb24>

Disassembly of section .text._ldcheck:

000000008000ba14 <_ldcheck>:
    8000ba14:	6118                	ld	a4,0(a0)
    8000ba16:	651c                	ld	a5,8(a0)
    8000ba18:	7139                	addi	sp,sp,-64
    8000ba1a:	850a                	mv	a0,sp
    8000ba1c:	080c                	addi	a1,sp,16
    8000ba1e:	e03a                	sd	a4,0(sp)
    8000ba20:	e43e                	sd	a5,8(sp)
    8000ba22:	fc06                	sd	ra,56(sp)
    8000ba24:	8b1fe0ef          	jal	ra,8000a2d4 <e113toe.isra.0>
    8000ba28:	02215783          	lhu	a5,34(sp)
    8000ba2c:	4501                	li	a0,0
    8000ba2e:	fff7c793          	not	a5,a5
    8000ba32:	03179713          	slli	a4,a5,0x31
    8000ba36:	eb19                	bnez	a4,8000ba4c <_ldcheck+0x38>
    8000ba38:	081c                	addi	a5,sp,16
    8000ba3a:	02210693          	addi	a3,sp,34
    8000ba3e:	0007d703          	lhu	a4,0(a5)
    8000ba42:	0789                	addi	a5,a5,2
    8000ba44:	e719                	bnez	a4,8000ba52 <_ldcheck+0x3e>
    8000ba46:	fed79ce3          	bne	a5,a3,8000ba3e <_ldcheck+0x2a>
    8000ba4a:	4509                	li	a0,2
    8000ba4c:	70e2                	ld	ra,56(sp)
    8000ba4e:	6121                	addi	sp,sp,64
    8000ba50:	8082                	ret
    8000ba52:	4505                	li	a0,1
    8000ba54:	bfe5                	j	8000ba4c <_ldcheck+0x38>

Disassembly of section .text.__localeconv_l:

000000008000ba56 <__localeconv_l>:
    8000ba56:	10050513          	addi	a0,a0,256
    8000ba5a:	8082                	ret

Disassembly of section .text._localeconv_r:

000000008000ba5c <_localeconv_r>:
    8000ba5c:	00004517          	auipc	a0,0x4
    8000ba60:	5dc50513          	addi	a0,a0,1500 # 80010038 <__global_locale+0x100>
    8000ba64:	8082                	ret

Disassembly of section .text.localeconv:

000000008000ba66 <localeconv>:
    8000ba66:	00004517          	auipc	a0,0x4
    8000ba6a:	5d250513          	addi	a0,a0,1490 # 80010038 <__global_locale+0x100>
    8000ba6e:	8082                	ret

Disassembly of section .text._setlocale_r:

000000008000ba70 <_setlocale_r>:
    8000ba70:	c60d                	beqz	a2,8000ba9a <_setlocale_r+0x2a>
    8000ba72:	1141                	addi	sp,sp,-16
    8000ba74:	00003597          	auipc	a1,0x3
    8000ba78:	20c58593          	addi	a1,a1,524 # 8000ec80 <ezero+0x20>
    8000ba7c:	8532                	mv	a0,a2
    8000ba7e:	e022                	sd	s0,0(sp)
    8000ba80:	e406                	sd	ra,8(sp)
    8000ba82:	8432                	mv	s0,a2
    8000ba84:	fcdf60ef          	jal	ra,80002a50 <strcmp>
    8000ba88:	ed11                	bnez	a0,8000baa4 <_setlocale_r+0x34>
    8000ba8a:	00003517          	auipc	a0,0x3
    8000ba8e:	1ee50513          	addi	a0,a0,494 # 8000ec78 <ezero+0x18>
    8000ba92:	60a2                	ld	ra,8(sp)
    8000ba94:	6402                	ld	s0,0(sp)
    8000ba96:	0141                	addi	sp,sp,16
    8000ba98:	8082                	ret
    8000ba9a:	00003517          	auipc	a0,0x3
    8000ba9e:	1de50513          	addi	a0,a0,478 # 8000ec78 <ezero+0x18>
    8000baa2:	8082                	ret
    8000baa4:	00003597          	auipc	a1,0x3
    8000baa8:	1d458593          	addi	a1,a1,468 # 8000ec78 <ezero+0x18>
    8000baac:	8522                	mv	a0,s0
    8000baae:	fa3f60ef          	jal	ra,80002a50 <strcmp>
    8000bab2:	dd61                	beqz	a0,8000ba8a <_setlocale_r+0x1a>
    8000bab4:	00003597          	auipc	a1,0x3
    8000bab8:	1d458593          	addi	a1,a1,468 # 8000ec88 <ezero+0x28>
    8000babc:	8522                	mv	a0,s0
    8000babe:	f93f60ef          	jal	ra,80002a50 <strcmp>
    8000bac2:	d561                	beqz	a0,8000ba8a <_setlocale_r+0x1a>
    8000bac4:	4501                	li	a0,0
    8000bac6:	b7f1                	j	8000ba92 <_setlocale_r+0x22>

Disassembly of section .text.__locale_mb_cur_max:

000000008000bac8 <__locale_mb_cur_max>:
    8000bac8:	00004517          	auipc	a0,0x4
    8000bacc:	5d054503          	lbu	a0,1488(a0) # 80010098 <__global_locale+0x160>
    8000bad0:	8082                	ret

Disassembly of section .text.setlocale:

000000008000bad2 <setlocale>:
    8000bad2:	c58d                	beqz	a1,8000bafc <setlocale+0x2a>
    8000bad4:	1141                	addi	sp,sp,-16
    8000bad6:	e022                	sd	s0,0(sp)
    8000bad8:	842e                	mv	s0,a1
    8000bada:	8522                	mv	a0,s0
    8000badc:	00003597          	auipc	a1,0x3
    8000bae0:	1a458593          	addi	a1,a1,420 # 8000ec80 <ezero+0x20>
    8000bae4:	e406                	sd	ra,8(sp)
    8000bae6:	f6bf60ef          	jal	ra,80002a50 <strcmp>
    8000baea:	ed11                	bnez	a0,8000bb06 <setlocale+0x34>
    8000baec:	00003517          	auipc	a0,0x3
    8000baf0:	18c50513          	addi	a0,a0,396 # 8000ec78 <ezero+0x18>
    8000baf4:	60a2                	ld	ra,8(sp)
    8000baf6:	6402                	ld	s0,0(sp)
    8000baf8:	0141                	addi	sp,sp,16
    8000bafa:	8082                	ret
    8000bafc:	00003517          	auipc	a0,0x3
    8000bb00:	17c50513          	addi	a0,a0,380 # 8000ec78 <ezero+0x18>
    8000bb04:	8082                	ret
    8000bb06:	00003597          	auipc	a1,0x3
    8000bb0a:	17258593          	addi	a1,a1,370 # 8000ec78 <ezero+0x18>
    8000bb0e:	8522                	mv	a0,s0
    8000bb10:	f41f60ef          	jal	ra,80002a50 <strcmp>
    8000bb14:	dd61                	beqz	a0,8000baec <setlocale+0x1a>
    8000bb16:	00003597          	auipc	a1,0x3
    8000bb1a:	17258593          	addi	a1,a1,370 # 8000ec88 <ezero+0x28>
    8000bb1e:	8522                	mv	a0,s0
    8000bb20:	f31f60ef          	jal	ra,80002a50 <strcmp>
    8000bb24:	d561                	beqz	a0,8000baec <setlocale+0x1a>
    8000bb26:	4501                	li	a0,0
    8000bb28:	b7f1                	j	8000baf4 <setlocale+0x22>

Disassembly of section .text.__smakebuf_r:

000000008000bb2a <__smakebuf_r>:
    8000bb2a:	01059783          	lh	a5,16(a1)
    8000bb2e:	7135                	addi	sp,sp,-160
    8000bb30:	e922                	sd	s0,144(sp)
    8000bb32:	ed06                	sd	ra,152(sp)
    8000bb34:	e526                	sd	s1,136(sp)
    8000bb36:	e14a                	sd	s2,128(sp)
    8000bb38:	fcce                	sd	s3,120(sp)
    8000bb3a:	f8d2                	sd	s4,112(sp)
    8000bb3c:	0027f713          	andi	a4,a5,2
    8000bb40:	842e                	mv	s0,a1
    8000bb42:	cf19                	beqz	a4,8000bb60 <__smakebuf_r+0x36>
    8000bb44:	07758793          	addi	a5,a1,119
    8000bb48:	e19c                	sd	a5,0(a1)
    8000bb4a:	ed9c                	sd	a5,24(a1)
    8000bb4c:	4785                	li	a5,1
    8000bb4e:	d19c                	sw	a5,32(a1)
    8000bb50:	60ea                	ld	ra,152(sp)
    8000bb52:	644a                	ld	s0,144(sp)
    8000bb54:	64aa                	ld	s1,136(sp)
    8000bb56:	690a                	ld	s2,128(sp)
    8000bb58:	79e6                	ld	s3,120(sp)
    8000bb5a:	7a46                	ld	s4,112(sp)
    8000bb5c:	610d                	addi	sp,sp,160
    8000bb5e:	8082                	ret
    8000bb60:	01259583          	lh	a1,18(a1)
    8000bb64:	84aa                	mv	s1,a0
    8000bb66:	0605c963          	bltz	a1,8000bbd8 <__smakebuf_r+0xae>
    8000bb6a:	0030                	addi	a2,sp,8
    8000bb6c:	091010ef          	jal	ra,8000d3fc <_fstat_r>
    8000bb70:	06054263          	bltz	a0,8000bbd4 <__smakebuf_r+0xaa>
    8000bb74:	4932                	lw	s2,12(sp)
    8000bb76:	67bd                	lui	a5,0xf
    8000bb78:	6a05                	lui	s4,0x1
    8000bb7a:	00f97933          	and	s2,s2,a5
    8000bb7e:	6789                	lui	a5,0x2
    8000bb80:	40f90933          	sub	s2,s2,a5
    8000bb84:	00193913          	seqz	s2,s2
    8000bb88:	40000993          	li	s3,1024
    8000bb8c:	800a0a13          	addi	s4,s4,-2048 # 800 <_tbss_end+0x7bc>
    8000bb90:	85ce                	mv	a1,s3
    8000bb92:	8526                	mv	a0,s1
    8000bb94:	b5ff90ef          	jal	ra,800056f2 <_malloc_r>
    8000bb98:	01041783          	lh	a5,16(s0)
    8000bb9c:	cd21                	beqz	a0,8000bbf4 <__smakebuf_r+0xca>
    8000bb9e:	ffffd717          	auipc	a4,0xffffd
    8000bba2:	24e70713          	addi	a4,a4,590 # 80008dec <_cleanup_r>
    8000bba6:	ecb8                	sd	a4,88(s1)
    8000bba8:	0807e793          	ori	a5,a5,128
    8000bbac:	00f41823          	sh	a5,16(s0)
    8000bbb0:	e008                	sd	a0,0(s0)
    8000bbb2:	ec08                	sd	a0,24(s0)
    8000bbb4:	03342023          	sw	s3,32(s0)
    8000bbb8:	06091163          	bnez	s2,8000bc1a <__smakebuf_r+0xf0>
    8000bbbc:	0147e7b3          	or	a5,a5,s4
    8000bbc0:	60ea                	ld	ra,152(sp)
    8000bbc2:	00f41823          	sh	a5,16(s0)
    8000bbc6:	644a                	ld	s0,144(sp)
    8000bbc8:	64aa                	ld	s1,136(sp)
    8000bbca:	690a                	ld	s2,128(sp)
    8000bbcc:	79e6                	ld	s3,120(sp)
    8000bbce:	7a46                	ld	s4,112(sp)
    8000bbd0:	610d                	addi	sp,sp,160
    8000bbd2:	8082                	ret
    8000bbd4:	01041783          	lh	a5,16(s0)
    8000bbd8:	0807f793          	andi	a5,a5,128
    8000bbdc:	4901                	li	s2,0
    8000bbde:	cb95                	beqz	a5,8000bc12 <__smakebuf_r+0xe8>
    8000bbe0:	04000993          	li	s3,64
    8000bbe4:	85ce                	mv	a1,s3
    8000bbe6:	8526                	mv	a0,s1
    8000bbe8:	b0bf90ef          	jal	ra,800056f2 <_malloc_r>
    8000bbec:	01041783          	lh	a5,16(s0)
    8000bbf0:	4a01                	li	s4,0
    8000bbf2:	f555                	bnez	a0,8000bb9e <__smakebuf_r+0x74>
    8000bbf4:	2007f713          	andi	a4,a5,512
    8000bbf8:	ff21                	bnez	a4,8000bb50 <__smakebuf_r+0x26>
    8000bbfa:	9bf1                	andi	a5,a5,-4
    8000bbfc:	0027e793          	ori	a5,a5,2
    8000bc00:	07740713          	addi	a4,s0,119
    8000bc04:	00f41823          	sh	a5,16(s0)
    8000bc08:	4785                	li	a5,1
    8000bc0a:	e018                	sd	a4,0(s0)
    8000bc0c:	ec18                	sd	a4,24(s0)
    8000bc0e:	d01c                	sw	a5,32(s0)
    8000bc10:	b781                	j	8000bb50 <__smakebuf_r+0x26>
    8000bc12:	40000993          	li	s3,1024
    8000bc16:	4a01                	li	s4,0
    8000bc18:	bfa5                	j	8000bb90 <__smakebuf_r+0x66>
    8000bc1a:	01241583          	lh	a1,18(s0)
    8000bc1e:	8526                	mv	a0,s1
    8000bc20:	011010ef          	jal	ra,8000d430 <_isatty_r>
    8000bc24:	e501                	bnez	a0,8000bc2c <__smakebuf_r+0x102>
    8000bc26:	01041783          	lh	a5,16(s0)
    8000bc2a:	bf49                	j	8000bbbc <__smakebuf_r+0x92>
    8000bc2c:	01045783          	lhu	a5,16(s0)
    8000bc30:	9bf1                	andi	a5,a5,-4
    8000bc32:	0017e793          	ori	a5,a5,1
    8000bc36:	0107979b          	slliw	a5,a5,0x10
    8000bc3a:	4107d79b          	sraiw	a5,a5,0x10
    8000bc3e:	bfbd                	j	8000bbbc <__smakebuf_r+0x92>

Disassembly of section .text.__swhatbuf_r:

000000008000bc40 <__swhatbuf_r>:
    8000bc40:	7175                	addi	sp,sp,-144
    8000bc42:	e122                	sd	s0,128(sp)
    8000bc44:	842e                	mv	s0,a1
    8000bc46:	01259583          	lh	a1,18(a1)
    8000bc4a:	fca6                	sd	s1,120(sp)
    8000bc4c:	f8ca                	sd	s2,112(sp)
    8000bc4e:	e506                	sd	ra,136(sp)
    8000bc50:	84b2                	mv	s1,a2
    8000bc52:	8936                	mv	s2,a3
    8000bc54:	0205cc63          	bltz	a1,8000bc8c <__swhatbuf_r+0x4c>
    8000bc58:	0030                	addi	a2,sp,8
    8000bc5a:	7a2010ef          	jal	ra,8000d3fc <_fstat_r>
    8000bc5e:	02054763          	bltz	a0,8000bc8c <__swhatbuf_r+0x4c>
    8000bc62:	47b2                	lw	a5,12(sp)
    8000bc64:	673d                	lui	a4,0xf
    8000bc66:	60aa                	ld	ra,136(sp)
    8000bc68:	8ff9                	and	a5,a5,a4
    8000bc6a:	6709                	lui	a4,0x2
    8000bc6c:	8f99                	sub	a5,a5,a4
    8000bc6e:	640a                	ld	s0,128(sp)
    8000bc70:	0017b793          	seqz	a5,a5
    8000bc74:	00f92023          	sw	a5,0(s2)
    8000bc78:	40000713          	li	a4,1024
    8000bc7c:	e098                	sd	a4,0(s1)
    8000bc7e:	6505                	lui	a0,0x1
    8000bc80:	74e6                	ld	s1,120(sp)
    8000bc82:	7946                	ld	s2,112(sp)
    8000bc84:	80050513          	addi	a0,a0,-2048 # 800 <_tbss_end+0x7bc>
    8000bc88:	6149                	addi	sp,sp,144
    8000bc8a:	8082                	ret
    8000bc8c:	01045783          	lhu	a5,16(s0)
    8000bc90:	0807f793          	andi	a5,a5,128
    8000bc94:	cf91                	beqz	a5,8000bcb0 <__swhatbuf_r+0x70>
    8000bc96:	60aa                	ld	ra,136(sp)
    8000bc98:	640a                	ld	s0,128(sp)
    8000bc9a:	4781                	li	a5,0
    8000bc9c:	00f92023          	sw	a5,0(s2)
    8000bca0:	04000713          	li	a4,64
    8000bca4:	e098                	sd	a4,0(s1)
    8000bca6:	7946                	ld	s2,112(sp)
    8000bca8:	74e6                	ld	s1,120(sp)
    8000bcaa:	4501                	li	a0,0
    8000bcac:	6149                	addi	sp,sp,144
    8000bcae:	8082                	ret
    8000bcb0:	60aa                	ld	ra,136(sp)
    8000bcb2:	640a                	ld	s0,128(sp)
    8000bcb4:	00f92023          	sw	a5,0(s2)
    8000bcb8:	40000713          	li	a4,1024
    8000bcbc:	e098                	sd	a4,0(s1)
    8000bcbe:	7946                	ld	s2,112(sp)
    8000bcc0:	74e6                	ld	s1,120(sp)
    8000bcc2:	4501                	li	a0,0
    8000bcc4:	6149                	addi	sp,sp,144
    8000bcc6:	8082                	ret

Disassembly of section .text._mbtowc_r:

000000008000bcc8 <_mbtowc_r>:
    8000bcc8:	00004797          	auipc	a5,0x4
    8000bccc:	3587b783          	ld	a5,856(a5) # 80010020 <__global_locale+0xe8>
    8000bcd0:	8782                	jr	a5

Disassembly of section .text.__ascii_mbtowc:

000000008000bcd2 <__ascii_mbtowc>:
    8000bcd2:	c999                	beqz	a1,8000bce8 <__ascii_mbtowc+0x16>
    8000bcd4:	c61d                	beqz	a2,8000bd02 <__ascii_mbtowc+0x30>
    8000bcd6:	ca95                	beqz	a3,8000bd0a <__ascii_mbtowc+0x38>
    8000bcd8:	00064783          	lbu	a5,0(a2)
    8000bcdc:	c19c                	sw	a5,0(a1)
    8000bcde:	00064503          	lbu	a0,0(a2)
    8000bce2:	00a03533          	snez	a0,a0
    8000bce6:	8082                	ret
    8000bce8:	1141                	addi	sp,sp,-16
    8000bcea:	006c                	addi	a1,sp,12
    8000bcec:	ce09                	beqz	a2,8000bd06 <__ascii_mbtowc+0x34>
    8000bcee:	c285                	beqz	a3,8000bd0e <__ascii_mbtowc+0x3c>
    8000bcf0:	00064783          	lbu	a5,0(a2)
    8000bcf4:	c19c                	sw	a5,0(a1)
    8000bcf6:	00064503          	lbu	a0,0(a2)
    8000bcfa:	00a03533          	snez	a0,a0
    8000bcfe:	0141                	addi	sp,sp,16
    8000bd00:	8082                	ret
    8000bd02:	4501                	li	a0,0
    8000bd04:	8082                	ret
    8000bd06:	4501                	li	a0,0
    8000bd08:	bfdd                	j	8000bcfe <__ascii_mbtowc+0x2c>
    8000bd0a:	5579                	li	a0,-2
    8000bd0c:	8082                	ret
    8000bd0e:	5579                	li	a0,-2
    8000bd10:	b7fd                	j	8000bcfe <__ascii_mbtowc+0x2c>

Disassembly of section .text.memchr:

000000008000bd12 <memchr>:
    8000bd12:	00757793          	andi	a5,a0,7
    8000bd16:	0ff5f693          	zext.b	a3,a1
    8000bd1a:	c785                	beqz	a5,8000bd42 <memchr+0x30>
    8000bd1c:	fff60793          	addi	a5,a2,-1
    8000bd20:	ce19                	beqz	a2,8000bd3e <memchr+0x2c>
    8000bd22:	567d                	li	a2,-1
    8000bd24:	a801                	j	8000bd34 <memchr+0x22>
    8000bd26:	0505                	addi	a0,a0,1
    8000bd28:	00757713          	andi	a4,a0,7
    8000bd2c:	cf01                	beqz	a4,8000bd44 <memchr+0x32>
    8000bd2e:	17fd                	addi	a5,a5,-1
    8000bd30:	00c78763          	beq	a5,a2,8000bd3e <memchr+0x2c>
    8000bd34:	00054703          	lbu	a4,0(a0)
    8000bd38:	fed717e3          	bne	a4,a3,8000bd26 <memchr+0x14>
    8000bd3c:	8082                	ret
    8000bd3e:	4501                	li	a0,0
    8000bd40:	8082                	ret
    8000bd42:	87b2                	mv	a5,a2
    8000bd44:	471d                	li	a4,7
    8000bd46:	04f77563          	bgeu	a4,a5,8000bd90 <memchr+0x7e>
    8000bd4a:	0ff5f593          	zext.b	a1,a1
    8000bd4e:	00859713          	slli	a4,a1,0x8
    8000bd52:	972e                	add	a4,a4,a1
    8000bd54:	01071593          	slli	a1,a4,0x10
    8000bd58:	95ba                	add	a1,a1,a4
    8000bd5a:	02059713          	slli	a4,a1,0x20
    8000bd5e:	95ba                	add	a1,a1,a4
    8000bd60:	00004897          	auipc	a7,0x4
    8000bd64:	3c08b883          	ld	a7,960(a7) # 80010120 <__global_locale+0x1e8>
    8000bd68:	00004817          	auipc	a6,0x4
    8000bd6c:	3c083803          	ld	a6,960(a6) # 80010128 <__global_locale+0x1f0>
    8000bd70:	431d                	li	t1,7
    8000bd72:	a029                	j	8000bd7c <memchr+0x6a>
    8000bd74:	17e1                	addi	a5,a5,-8
    8000bd76:	0521                	addi	a0,a0,8
    8000bd78:	00f37c63          	bgeu	t1,a5,8000bd90 <memchr+0x7e>
    8000bd7c:	6118                	ld	a4,0(a0)
    8000bd7e:	8f2d                	xor	a4,a4,a1
    8000bd80:	01170633          	add	a2,a4,a7
    8000bd84:	fff74713          	not	a4,a4
    8000bd88:	8f71                	and	a4,a4,a2
    8000bd8a:	01077733          	and	a4,a4,a6
    8000bd8e:	d37d                	beqz	a4,8000bd74 <memchr+0x62>
    8000bd90:	00f50733          	add	a4,a0,a5
    8000bd94:	e789                	bnez	a5,8000bd9e <memchr+0x8c>
    8000bd96:	b765                	j	8000bd3e <memchr+0x2c>
    8000bd98:	0505                	addi	a0,a0,1
    8000bd9a:	faa702e3          	beq	a4,a0,8000bd3e <memchr+0x2c>
    8000bd9e:	00054783          	lbu	a5,0(a0)
    8000bda2:	fed79be3          	bne	a5,a3,8000bd98 <memchr+0x86>
    8000bda6:	8082                	ret

Disassembly of section .text._Balloc:

000000008000bda8 <_Balloc>:
    8000bda8:	7d3c                	ld	a5,120(a0)
    8000bdaa:	1101                	addi	sp,sp,-32
    8000bdac:	e822                	sd	s0,16(sp)
    8000bdae:	e426                	sd	s1,8(sp)
    8000bdb0:	ec06                	sd	ra,24(sp)
    8000bdb2:	84aa                	mv	s1,a0
    8000bdb4:	842e                	mv	s0,a1
    8000bdb6:	cf99                	beqz	a5,8000bdd4 <_Balloc+0x2c>
    8000bdb8:	00341713          	slli	a4,s0,0x3
    8000bdbc:	97ba                	add	a5,a5,a4
    8000bdbe:	6388                	ld	a0,0(a5)
    8000bdc0:	c505                	beqz	a0,8000bde8 <_Balloc+0x40>
    8000bdc2:	6118                	ld	a4,0(a0)
    8000bdc4:	e398                	sd	a4,0(a5)
    8000bdc6:	00053823          	sd	zero,16(a0)
    8000bdca:	60e2                	ld	ra,24(sp)
    8000bdcc:	6442                	ld	s0,16(sp)
    8000bdce:	64a2                	ld	s1,8(sp)
    8000bdd0:	6105                	addi	sp,sp,32
    8000bdd2:	8082                	ret
    8000bdd4:	04100613          	li	a2,65
    8000bdd8:	45a1                	li	a1,8
    8000bdda:	48a010ef          	jal	ra,8000d264 <_calloc_r>
    8000bdde:	fca8                	sd	a0,120(s1)
    8000bde0:	87aa                	mv	a5,a0
    8000bde2:	f979                	bnez	a0,8000bdb8 <_Balloc+0x10>
    8000bde4:	4501                	li	a0,0
    8000bde6:	b7d5                	j	8000bdca <_Balloc+0x22>
    8000bde8:	4785                	li	a5,1
    8000bdea:	008797bb          	sllw	a5,a5,s0
    8000bdee:	0007861b          	sext.w	a2,a5
    8000bdf2:	061d                	addi	a2,a2,7
    8000bdf4:	1402                	slli	s0,s0,0x20
    8000bdf6:	1782                	slli	a5,a5,0x20
    8000bdf8:	9001                	srli	s0,s0,0x20
    8000bdfa:	060a                	slli	a2,a2,0x2
    8000bdfc:	4585                	li	a1,1
    8000bdfe:	8526                	mv	a0,s1
    8000be00:	8c5d                	or	s0,s0,a5
    8000be02:	462010ef          	jal	ra,8000d264 <_calloc_r>
    8000be06:	dd79                	beqz	a0,8000bde4 <_Balloc+0x3c>
    8000be08:	e500                	sd	s0,8(a0)
    8000be0a:	bf75                	j	8000bdc6 <_Balloc+0x1e>

Disassembly of section .text._Bfree:

000000008000be0c <_Bfree>:
    8000be0c:	c981                	beqz	a1,8000be1c <_Bfree+0x10>
    8000be0e:	4598                	lw	a4,8(a1)
    8000be10:	7d3c                	ld	a5,120(a0)
    8000be12:	070e                	slli	a4,a4,0x3
    8000be14:	97ba                	add	a5,a5,a4
    8000be16:	6398                	ld	a4,0(a5)
    8000be18:	e198                	sd	a4,0(a1)
    8000be1a:	e38c                	sd	a1,0(a5)
    8000be1c:	8082                	ret

Disassembly of section .text.__multadd:

000000008000be1e <__multadd>:
    8000be1e:	7179                	addi	sp,sp,-48
    8000be20:	f022                	sd	s0,32(sp)
    8000be22:	49c0                	lw	s0,20(a1)
    8000be24:	6341                	lui	t1,0x10
    8000be26:	e84a                	sd	s2,16(sp)
    8000be28:	e44e                	sd	s3,8(sp)
    8000be2a:	f406                	sd	ra,40(sp)
    8000be2c:	ec26                	sd	s1,24(sp)
    8000be2e:	e052                	sd	s4,0(sp)
    8000be30:	892e                	mv	s2,a1
    8000be32:	89aa                	mv	s3,a0
    8000be34:	01858813          	addi	a6,a1,24
    8000be38:	4881                	li	a7,0
    8000be3a:	137d                	addi	t1,t1,-1 # ffff <_tbss_end+0xffbb>
    8000be3c:	00082783          	lw	a5,0(a6)
    8000be40:	0811                	addi	a6,a6,4
    8000be42:	2885                	addiw	a7,a7,1
    8000be44:	0067f733          	and	a4,a5,t1
    8000be48:	02c7073b          	mulw	a4,a4,a2
    8000be4c:	0107d79b          	srliw	a5,a5,0x10
    8000be50:	02c787bb          	mulw	a5,a5,a2
    8000be54:	9f35                	addw	a4,a4,a3
    8000be56:	0107569b          	srliw	a3,a4,0x10
    8000be5a:	00e37733          	and	a4,t1,a4
    8000be5e:	9fb5                	addw	a5,a5,a3
    8000be60:	0107969b          	slliw	a3,a5,0x10
    8000be64:	9f35                	addw	a4,a4,a3
    8000be66:	fee82e23          	sw	a4,-4(a6)
    8000be6a:	0107d49b          	srliw	s1,a5,0x10
    8000be6e:	0107d69b          	srliw	a3,a5,0x10
    8000be72:	fc88c5e3          	blt	a7,s0,8000be3c <__multadd+0x1e>
    8000be76:	ce89                	beqz	a3,8000be90 <__multadd+0x72>
    8000be78:	00c92783          	lw	a5,12(s2)
    8000be7c:	02f45363          	bge	s0,a5,8000bea2 <__multadd+0x84>
    8000be80:	00440793          	addi	a5,s0,4
    8000be84:	078a                	slli	a5,a5,0x2
    8000be86:	97ca                	add	a5,a5,s2
    8000be88:	c784                	sw	s1,8(a5)
    8000be8a:	2405                	addiw	s0,s0,1
    8000be8c:	00892a23          	sw	s0,20(s2)
    8000be90:	70a2                	ld	ra,40(sp)
    8000be92:	7402                	ld	s0,32(sp)
    8000be94:	64e2                	ld	s1,24(sp)
    8000be96:	69a2                	ld	s3,8(sp)
    8000be98:	6a02                	ld	s4,0(sp)
    8000be9a:	854a                	mv	a0,s2
    8000be9c:	6942                	ld	s2,16(sp)
    8000be9e:	6145                	addi	sp,sp,48
    8000bea0:	8082                	ret
    8000bea2:	00892583          	lw	a1,8(s2)
    8000bea6:	854e                	mv	a0,s3
    8000bea8:	2585                	addiw	a1,a1,1
    8000beaa:	effff0ef          	jal	ra,8000bda8 <_Balloc>
    8000beae:	8a2a                	mv	s4,a0
    8000beb0:	cd1d                	beqz	a0,8000beee <__multadd+0xd0>
    8000beb2:	01492603          	lw	a2,20(s2)
    8000beb6:	01090593          	addi	a1,s2,16
    8000beba:	0541                	addi	a0,a0,16
    8000bebc:	0609                	addi	a2,a2,2
    8000bebe:	060a                	slli	a2,a2,0x2
    8000bec0:	a21f60ef          	jal	ra,800028e0 <memcpy>
    8000bec4:	00892703          	lw	a4,8(s2)
    8000bec8:	0789b783          	ld	a5,120(s3)
    8000becc:	070e                	slli	a4,a4,0x3
    8000bece:	97ba                	add	a5,a5,a4
    8000bed0:	6398                	ld	a4,0(a5)
    8000bed2:	00e93023          	sd	a4,0(s2)
    8000bed6:	0127b023          	sd	s2,0(a5)
    8000beda:	00440793          	addi	a5,s0,4
    8000bede:	8952                	mv	s2,s4
    8000bee0:	078a                	slli	a5,a5,0x2
    8000bee2:	97ca                	add	a5,a5,s2
    8000bee4:	c784                	sw	s1,8(a5)
    8000bee6:	2405                	addiw	s0,s0,1
    8000bee8:	00892a23          	sw	s0,20(s2)
    8000beec:	b755                	j	8000be90 <__multadd+0x72>
    8000beee:	00003697          	auipc	a3,0x3
    8000bef2:	da268693          	addi	a3,a3,-606 # 8000ec90 <ezero+0x30>
    8000bef6:	4601                	li	a2,0
    8000bef8:	0b500593          	li	a1,181
    8000befc:	00003517          	auipc	a0,0x3
    8000bf00:	dac50513          	addi	a0,a0,-596 # 8000eca8 <ezero+0x48>
    8000bf04:	c56f90ef          	jal	ra,8000535a <__assert_func>

Disassembly of section .text.__s2b:

000000008000bf08 <__s2b>:
    8000bf08:	7139                	addi	sp,sp,-64
    8000bf0a:	f822                	sd	s0,48(sp)
    8000bf0c:	f426                	sd	s1,40(sp)
    8000bf0e:	f04a                	sd	s2,32(sp)
    8000bf10:	ec4e                	sd	s3,24(sp)
    8000bf12:	e852                	sd	s4,16(sp)
    8000bf14:	84b6                	mv	s1,a3
    8000bf16:	842e                	mv	s0,a1
    8000bf18:	26a1                	addiw	a3,a3,8
    8000bf1a:	45a5                	li	a1,9
    8000bf1c:	fc06                	sd	ra,56(sp)
    8000bf1e:	e456                	sd	s5,8(sp)
    8000bf20:	e05a                	sd	s6,0(sp)
    8000bf22:	47a5                	li	a5,9
    8000bf24:	02b6c6bb          	divw	a3,a3,a1
    8000bf28:	892a                	mv	s2,a0
    8000bf2a:	8a32                	mv	s4,a2
    8000bf2c:	89ba                	mv	s3,a4
    8000bf2e:	0a97d163          	bge	a5,s1,8000bfd0 <__s2b+0xc8>
    8000bf32:	4785                	li	a5,1
    8000bf34:	4581                	li	a1,0
    8000bf36:	0017979b          	slliw	a5,a5,0x1
    8000bf3a:	2585                	addiw	a1,a1,1
    8000bf3c:	fed7cde3          	blt	a5,a3,8000bf36 <__s2b+0x2e>
    8000bf40:	854a                	mv	a0,s2
    8000bf42:	e67ff0ef          	jal	ra,8000bda8 <_Balloc>
    8000bf46:	85aa                	mv	a1,a0
    8000bf48:	c551                	beqz	a0,8000bfd4 <__s2b+0xcc>
    8000bf4a:	4785                	li	a5,1
    8000bf4c:	c95c                	sw	a5,20(a0)
    8000bf4e:	01352c23          	sw	s3,24(a0)
    8000bf52:	47a5                	li	a5,9
    8000bf54:	0747db63          	bge	a5,s4,8000bfca <__s2b+0xc2>
    8000bf58:	020a1793          	slli	a5,s4,0x20
    8000bf5c:	00940b13          	addi	s6,s0,9
    8000bf60:	9381                	srli	a5,a5,0x20
    8000bf62:	000a0a9b          	sext.w	s5,s4
    8000bf66:	943e                	add	s0,s0,a5
    8000bf68:	89da                	mv	s3,s6
    8000bf6a:	0009c683          	lbu	a3,0(s3)
    8000bf6e:	4629                	li	a2,10
    8000bf70:	854a                	mv	a0,s2
    8000bf72:	fd06869b          	addiw	a3,a3,-48
    8000bf76:	ea9ff0ef          	jal	ra,8000be1e <__multadd>
    8000bf7a:	0985                	addi	s3,s3,1
    8000bf7c:	85aa                	mv	a1,a0
    8000bf7e:	fe8996e3          	bne	s3,s0,8000bf6a <__s2b+0x62>
    8000bf82:	3ae1                	addiw	s5,s5,-8
    8000bf84:	1a82                	slli	s5,s5,0x20
    8000bf86:	020ada93          	srli	s5,s5,0x20
    8000bf8a:	015b0433          	add	s0,s6,s5
    8000bf8e:	029a5363          	bge	s4,s1,8000bfb4 <__s2b+0xac>
    8000bf92:	414484bb          	subw	s1,s1,s4
    8000bf96:	1482                	slli	s1,s1,0x20
    8000bf98:	9081                	srli	s1,s1,0x20
    8000bf9a:	94a2                	add	s1,s1,s0
    8000bf9c:	00044683          	lbu	a3,0(s0)
    8000bfa0:	4629                	li	a2,10
    8000bfa2:	854a                	mv	a0,s2
    8000bfa4:	fd06869b          	addiw	a3,a3,-48
    8000bfa8:	e77ff0ef          	jal	ra,8000be1e <__multadd>
    8000bfac:	0405                	addi	s0,s0,1
    8000bfae:	85aa                	mv	a1,a0
    8000bfb0:	fe9416e3          	bne	s0,s1,8000bf9c <__s2b+0x94>
    8000bfb4:	70e2                	ld	ra,56(sp)
    8000bfb6:	7442                	ld	s0,48(sp)
    8000bfb8:	74a2                	ld	s1,40(sp)
    8000bfba:	7902                	ld	s2,32(sp)
    8000bfbc:	69e2                	ld	s3,24(sp)
    8000bfbe:	6a42                	ld	s4,16(sp)
    8000bfc0:	6aa2                	ld	s5,8(sp)
    8000bfc2:	6b02                	ld	s6,0(sp)
    8000bfc4:	852e                	mv	a0,a1
    8000bfc6:	6121                	addi	sp,sp,64
    8000bfc8:	8082                	ret
    8000bfca:	0429                	addi	s0,s0,10
    8000bfcc:	4a25                	li	s4,9
    8000bfce:	b7c1                	j	8000bf8e <__s2b+0x86>
    8000bfd0:	4581                	li	a1,0
    8000bfd2:	b7bd                	j	8000bf40 <__s2b+0x38>
    8000bfd4:	00003697          	auipc	a3,0x3
    8000bfd8:	cbc68693          	addi	a3,a3,-836 # 8000ec90 <ezero+0x30>
    8000bfdc:	4601                	li	a2,0
    8000bfde:	0ce00593          	li	a1,206
    8000bfe2:	00003517          	auipc	a0,0x3
    8000bfe6:	cc650513          	addi	a0,a0,-826 # 8000eca8 <ezero+0x48>
    8000bfea:	b70f90ef          	jal	ra,8000535a <__assert_func>

Disassembly of section .text.__hi0bits:

000000008000bfee <__hi0bits>:
    8000bfee:	87aa                	mv	a5,a0
    8000bff0:	6741                	lui	a4,0x10
    8000bff2:	4501                	li	a0,0
    8000bff4:	00e7f563          	bgeu	a5,a4,8000bffe <__hi0bits+0x10>
    8000bff8:	0107979b          	slliw	a5,a5,0x10
    8000bffc:	4541                	li	a0,16
    8000bffe:	01000737          	lui	a4,0x1000
    8000c002:	00e7f563          	bgeu	a5,a4,8000c00c <__hi0bits+0x1e>
    8000c006:	0087979b          	slliw	a5,a5,0x8
    8000c00a:	2521                	addiw	a0,a0,8
    8000c00c:	10000737          	lui	a4,0x10000
    8000c010:	00e7f563          	bgeu	a5,a4,8000c01a <__hi0bits+0x2c>
    8000c014:	0047979b          	slliw	a5,a5,0x4
    8000c018:	2511                	addiw	a0,a0,4
    8000c01a:	40000737          	lui	a4,0x40000
    8000c01e:	00e7e663          	bltu	a5,a4,8000c02a <__hi0bits+0x3c>
    8000c022:	0207c063          	bltz	a5,8000c042 <__hi0bits+0x54>
    8000c026:	2505                	addiw	a0,a0,1
    8000c028:	8082                	ret
    8000c02a:	0027979b          	slliw	a5,a5,0x2
    8000c02e:	0007871b          	sext.w	a4,a5
    8000c032:	00074963          	bltz	a4,8000c044 <__hi0bits+0x56>
    8000c036:	40000737          	lui	a4,0x40000
    8000c03a:	8ff9                	and	a5,a5,a4
    8000c03c:	e791                	bnez	a5,8000c048 <__hi0bits+0x5a>
    8000c03e:	02000513          	li	a0,32
    8000c042:	8082                	ret
    8000c044:	2509                	addiw	a0,a0,2
    8000c046:	8082                	ret
    8000c048:	250d                	addiw	a0,a0,3
    8000c04a:	8082                	ret

Disassembly of section .text.__lo0bits:

000000008000c04c <__lo0bits>:
    8000c04c:	411c                	lw	a5,0(a0)
    8000c04e:	872a                	mv	a4,a0
    8000c050:	0077f693          	andi	a3,a5,7
    8000c054:	863e                	mv	a2,a5
    8000c056:	ce81                	beqz	a3,8000c06e <__lo0bits+0x22>
    8000c058:	0017f693          	andi	a3,a5,1
    8000c05c:	4501                	li	a0,0
    8000c05e:	ee9d                	bnez	a3,8000c09c <__lo0bits+0x50>
    8000c060:	8a09                	andi	a2,a2,2
    8000c062:	ce25                	beqz	a2,8000c0da <__lo0bits+0x8e>
    8000c064:	0017d79b          	srliw	a5,a5,0x1
    8000c068:	c31c                	sw	a5,0(a4)
    8000c06a:	4505                	li	a0,1
    8000c06c:	8082                	ret
    8000c06e:	03079693          	slli	a3,a5,0x30
    8000c072:	92c1                	srli	a3,a3,0x30
    8000c074:	4501                	li	a0,0
    8000c076:	cab9                	beqz	a3,8000c0cc <__lo0bits+0x80>
    8000c078:	0ff7f693          	zext.b	a3,a5
    8000c07c:	c2a9                	beqz	a3,8000c0be <__lo0bits+0x72>
    8000c07e:	00f7f693          	andi	a3,a5,15
    8000c082:	c69d                	beqz	a3,8000c0b0 <__lo0bits+0x64>
    8000c084:	0037f693          	andi	a3,a5,3
    8000c088:	ce89                	beqz	a3,8000c0a2 <__lo0bits+0x56>
    8000c08a:	0017f693          	andi	a3,a5,1
    8000c08e:	ea81                	bnez	a3,8000c09e <__lo0bits+0x52>
    8000c090:	0017d79b          	srliw	a5,a5,0x1
    8000c094:	2505                	addiw	a0,a0,1
    8000c096:	e781                	bnez	a5,8000c09e <__lo0bits+0x52>
    8000c098:	02000513          	li	a0,32
    8000c09c:	8082                	ret
    8000c09e:	c31c                	sw	a5,0(a4)
    8000c0a0:	8082                	ret
    8000c0a2:	0027d79b          	srliw	a5,a5,0x2
    8000c0a6:	0017f693          	andi	a3,a5,1
    8000c0aa:	2509                	addiw	a0,a0,2
    8000c0ac:	faed                	bnez	a3,8000c09e <__lo0bits+0x52>
    8000c0ae:	b7cd                	j	8000c090 <__lo0bits+0x44>
    8000c0b0:	0047d79b          	srliw	a5,a5,0x4
    8000c0b4:	0037f693          	andi	a3,a5,3
    8000c0b8:	2511                	addiw	a0,a0,4
    8000c0ba:	fae1                	bnez	a3,8000c08a <__lo0bits+0x3e>
    8000c0bc:	b7dd                	j	8000c0a2 <__lo0bits+0x56>
    8000c0be:	0087d79b          	srliw	a5,a5,0x8
    8000c0c2:	00f7f693          	andi	a3,a5,15
    8000c0c6:	2521                	addiw	a0,a0,8
    8000c0c8:	fed5                	bnez	a3,8000c084 <__lo0bits+0x38>
    8000c0ca:	b7dd                	j	8000c0b0 <__lo0bits+0x64>
    8000c0cc:	0107d79b          	srliw	a5,a5,0x10
    8000c0d0:	0ff7f693          	zext.b	a3,a5
    8000c0d4:	4541                	li	a0,16
    8000c0d6:	f6c5                	bnez	a3,8000c07e <__lo0bits+0x32>
    8000c0d8:	b7dd                	j	8000c0be <__lo0bits+0x72>
    8000c0da:	0027d79b          	srliw	a5,a5,0x2
    8000c0de:	c31c                	sw	a5,0(a4)
    8000c0e0:	4509                	li	a0,2
    8000c0e2:	8082                	ret

Disassembly of section .text.__i2b:

000000008000c0e4 <__i2b>:
    8000c0e4:	7d3c                	ld	a5,120(a0)
    8000c0e6:	1101                	addi	sp,sp,-32
    8000c0e8:	e822                	sd	s0,16(sp)
    8000c0ea:	e426                	sd	s1,8(sp)
    8000c0ec:	ec06                	sd	ra,24(sp)
    8000c0ee:	842a                	mv	s0,a0
    8000c0f0:	84ae                	mv	s1,a1
    8000c0f2:	cf91                	beqz	a5,8000c10e <__i2b+0x2a>
    8000c0f4:	6788                	ld	a0,8(a5)
    8000c0f6:	c129                	beqz	a0,8000c138 <__i2b+0x54>
    8000c0f8:	6118                	ld	a4,0(a0)
    8000c0fa:	e798                	sd	a4,8(a5)
    8000c0fc:	60e2                	ld	ra,24(sp)
    8000c0fe:	6442                	ld	s0,16(sp)
    8000c100:	4785                	li	a5,1
    8000c102:	1782                	slli	a5,a5,0x20
    8000c104:	cd04                	sw	s1,24(a0)
    8000c106:	e91c                	sd	a5,16(a0)
    8000c108:	64a2                	ld	s1,8(sp)
    8000c10a:	6105                	addi	sp,sp,32
    8000c10c:	8082                	ret
    8000c10e:	04100613          	li	a2,65
    8000c112:	45a1                	li	a1,8
    8000c114:	150010ef          	jal	ra,8000d264 <_calloc_r>
    8000c118:	fc28                	sd	a0,120(s0)
    8000c11a:	87aa                	mv	a5,a0
    8000c11c:	fd61                	bnez	a0,8000c0f4 <__i2b+0x10>
    8000c11e:	00003697          	auipc	a3,0x3
    8000c122:	b7268693          	addi	a3,a3,-1166 # 8000ec90 <ezero+0x30>
    8000c126:	4601                	li	a2,0
    8000c128:	14000593          	li	a1,320
    8000c12c:	00003517          	auipc	a0,0x3
    8000c130:	b7c50513          	addi	a0,a0,-1156 # 8000eca8 <ezero+0x48>
    8000c134:	a26f90ef          	jal	ra,8000535a <__assert_func>
    8000c138:	02400613          	li	a2,36
    8000c13c:	4585                	li	a1,1
    8000c13e:	8522                	mv	a0,s0
    8000c140:	124010ef          	jal	ra,8000d264 <_calloc_r>
    8000c144:	dd69                	beqz	a0,8000c11e <__i2b+0x3a>
    8000c146:	4785                	li	a5,1
    8000c148:	1786                	slli	a5,a5,0x21
    8000c14a:	0785                	addi	a5,a5,1
    8000c14c:	e51c                	sd	a5,8(a0)
    8000c14e:	b77d                	j	8000c0fc <__i2b+0x18>

Disassembly of section .text.__multiply:

000000008000c150 <__multiply>:
    8000c150:	7179                	addi	sp,sp,-48
    8000c152:	e84a                	sd	s2,16(sp)
    8000c154:	e44e                	sd	s3,8(sp)
    8000c156:	01462903          	lw	s2,20(a2)
    8000c15a:	0145a983          	lw	s3,20(a1)
    8000c15e:	ec26                	sd	s1,24(sp)
    8000c160:	e052                	sd	s4,0(sp)
    8000c162:	f406                	sd	ra,40(sp)
    8000c164:	f022                	sd	s0,32(sp)
    8000c166:	8a2e                	mv	s4,a1
    8000c168:	84b2                	mv	s1,a2
    8000c16a:	0129c763          	blt	s3,s2,8000c178 <__multiply+0x28>
    8000c16e:	87ca                	mv	a5,s2
    8000c170:	84ae                	mv	s1,a1
    8000c172:	894e                	mv	s2,s3
    8000c174:	8a32                	mv	s4,a2
    8000c176:	89be                	mv	s3,a5
    8000c178:	44dc                	lw	a5,12(s1)
    8000c17a:	0139043b          	addw	s0,s2,s3
    8000c17e:	448c                	lw	a1,8(s1)
    8000c180:	0087d363          	bge	a5,s0,8000c186 <__multiply+0x36>
    8000c184:	2585                	addiw	a1,a1,1
    8000c186:	c23ff0ef          	jal	ra,8000bda8 <_Balloc>
    8000c18a:	14050c63          	beqz	a0,8000c2e2 <__multiply+0x192>
    8000c18e:	01850313          	addi	t1,a0,24
    8000c192:	00241893          	slli	a7,s0,0x2
    8000c196:	989a                	add	a7,a7,t1
    8000c198:	879a                	mv	a5,t1
    8000c19a:	01137763          	bgeu	t1,a7,8000c1a8 <__multiply+0x58>
    8000c19e:	0007a023          	sw	zero,0(a5)
    8000c1a2:	0791                	addi	a5,a5,4
    8000c1a4:	ff17ede3          	bltu	a5,a7,8000c19e <__multiply+0x4e>
    8000c1a8:	018a0813          	addi	a6,s4,24
    8000c1ac:	00299e13          	slli	t3,s3,0x2
    8000c1b0:	01848e93          	addi	t4,s1,24
    8000c1b4:	00291593          	slli	a1,s2,0x2
    8000c1b8:	9e42                	add	t3,t3,a6
    8000c1ba:	95f6                	add	a1,a1,t4
    8000c1bc:	0fc87a63          	bgeu	a6,t3,8000c2b0 <__multiply+0x160>
    8000c1c0:	01948793          	addi	a5,s1,25
    8000c1c4:	4f11                	li	t5,4
    8000c1c6:	10f5f763          	bgeu	a1,a5,8000c2d4 <__multiply+0x184>
    8000c1ca:	66c1                	lui	a3,0x10
    8000c1cc:	16fd                	addi	a3,a3,-1 # ffff <_tbss_end+0xffbb>
    8000c1ce:	a809                	j	8000c1e0 <__multiply+0x90>
    8000c1d0:	010fdf9b          	srliw	t6,t6,0x10
    8000c1d4:	060f9d63          	bnez	t6,8000c24e <__multiply+0xfe>
    8000c1d8:	0811                	addi	a6,a6,4
    8000c1da:	0311                	addi	t1,t1,4
    8000c1dc:	0dc87a63          	bgeu	a6,t3,8000c2b0 <__multiply+0x160>
    8000c1e0:	00082f83          	lw	t6,0(a6)
    8000c1e4:	00dff3b3          	and	t2,t6,a3
    8000c1e8:	fe0384e3          	beqz	t2,8000c1d0 <__multiply+0x80>
    8000c1ec:	829a                	mv	t0,t1
    8000c1ee:	8ff6                	mv	t6,t4
    8000c1f0:	4481                	li	s1,0
    8000c1f2:	000fa783          	lw	a5,0(t6)
    8000c1f6:	0002a603          	lw	a2,0(t0) # 1c000 <_tbss_end+0x1bfbc>
    8000c1fa:	0291                	addi	t0,t0,4
    8000c1fc:	00d7f733          	and	a4,a5,a3
    8000c200:	0277073b          	mulw	a4,a4,t2
    8000c204:	0107d79b          	srliw	a5,a5,0x10
    8000c208:	00d67933          	and	s2,a2,a3
    8000c20c:	0106561b          	srliw	a2,a2,0x10
    8000c210:	0f91                	addi	t6,t6,4
    8000c212:	027787bb          	mulw	a5,a5,t2
    8000c216:	0127073b          	addw	a4,a4,s2
    8000c21a:	9f25                	addw	a4,a4,s1
    8000c21c:	0107549b          	srliw	s1,a4,0x10
    8000c220:	8f75                	and	a4,a4,a3
    8000c222:	9fb1                	addw	a5,a5,a2
    8000c224:	9fa5                	addw	a5,a5,s1
    8000c226:	0107961b          	slliw	a2,a5,0x10
    8000c22a:	8f51                	or	a4,a4,a2
    8000c22c:	fee2ae23          	sw	a4,-4(t0)
    8000c230:	0107d49b          	srliw	s1,a5,0x10
    8000c234:	0107d71b          	srliw	a4,a5,0x10
    8000c238:	fabfede3          	bltu	t6,a1,8000c1f2 <__multiply+0xa2>
    8000c23c:	01e307b3          	add	a5,t1,t5
    8000c240:	c398                	sw	a4,0(a5)
    8000c242:	00082f83          	lw	t6,0(a6)
    8000c246:	010fdf9b          	srliw	t6,t6,0x10
    8000c24a:	f80f87e3          	beqz	t6,8000c1d8 <__multiply+0x88>
    8000c24e:	00032703          	lw	a4,0(t1)
    8000c252:	829a                	mv	t0,t1
    8000c254:	8676                	mv	a2,t4
    8000c256:	83ba                	mv	t2,a4
    8000c258:	4481                	li	s1,0
    8000c25a:	421c                	lw	a5,0(a2)
    8000c25c:	0103d99b          	srliw	s3,t2,0x10
    8000c260:	8f75                	and	a4,a4,a3
    8000c262:	8ff5                	and	a5,a5,a3
    8000c264:	03f787bb          	mulw	a5,a5,t6
    8000c268:	0042a383          	lw	t2,4(t0)
    8000c26c:	0291                	addi	t0,t0,4
    8000c26e:	0611                	addi	a2,a2,4
    8000c270:	00d3f933          	and	s2,t2,a3
    8000c274:	9fa5                	addw	a5,a5,s1
    8000c276:	013787bb          	addw	a5,a5,s3
    8000c27a:	0107949b          	slliw	s1,a5,0x10
    8000c27e:	8f45                	or	a4,a4,s1
    8000c280:	fee2ae23          	sw	a4,-4(t0)
    8000c284:	ffe65703          	lhu	a4,-2(a2)
    8000c288:	0107d79b          	srliw	a5,a5,0x10
    8000c28c:	03f7073b          	mulw	a4,a4,t6
    8000c290:	0127073b          	addw	a4,a4,s2
    8000c294:	9fb9                	addw	a5,a5,a4
    8000c296:	0007871b          	sext.w	a4,a5
    8000c29a:	0107d49b          	srliw	s1,a5,0x10
    8000c29e:	fab66ee3          	bltu	a2,a1,8000c25a <__multiply+0x10a>
    8000c2a2:	01e30733          	add	a4,t1,t5
    8000c2a6:	c31c                	sw	a5,0(a4)
    8000c2a8:	0811                	addi	a6,a6,4
    8000c2aa:	0311                	addi	t1,t1,4
    8000c2ac:	f3c86ae3          	bltu	a6,t3,8000c1e0 <__multiply+0x90>
    8000c2b0:	00804563          	bgtz	s0,8000c2ba <__multiply+0x16a>
    8000c2b4:	a039                	j	8000c2c2 <__multiply+0x172>
    8000c2b6:	347d                	addiw	s0,s0,-1
    8000c2b8:	c409                	beqz	s0,8000c2c2 <__multiply+0x172>
    8000c2ba:	ffc8a783          	lw	a5,-4(a7)
    8000c2be:	18f1                	addi	a7,a7,-4
    8000c2c0:	dbfd                	beqz	a5,8000c2b6 <__multiply+0x166>
    8000c2c2:	70a2                	ld	ra,40(sp)
    8000c2c4:	c940                	sw	s0,20(a0)
    8000c2c6:	7402                	ld	s0,32(sp)
    8000c2c8:	64e2                	ld	s1,24(sp)
    8000c2ca:	6942                	ld	s2,16(sp)
    8000c2cc:	69a2                	ld	s3,8(sp)
    8000c2ce:	6a02                	ld	s4,0(sp)
    8000c2d0:	6145                	addi	sp,sp,48
    8000c2d2:	8082                	ret
    8000c2d4:	409587b3          	sub	a5,a1,s1
    8000c2d8:	179d                	addi	a5,a5,-25
    8000c2da:	9bf1                	andi	a5,a5,-4
    8000c2dc:	00478f13          	addi	t5,a5,4
    8000c2e0:	b5ed                	j	8000c1ca <__multiply+0x7a>
    8000c2e2:	00003697          	auipc	a3,0x3
    8000c2e6:	9ae68693          	addi	a3,a3,-1618 # 8000ec90 <ezero+0x30>
    8000c2ea:	4601                	li	a2,0
    8000c2ec:	15d00593          	li	a1,349
    8000c2f0:	00003517          	auipc	a0,0x3
    8000c2f4:	9b850513          	addi	a0,a0,-1608 # 8000eca8 <ezero+0x48>
    8000c2f8:	862f90ef          	jal	ra,8000535a <__assert_func>

Disassembly of section .text.__pow5mult:

000000008000c2fc <__pow5mult>:
    8000c2fc:	7179                	addi	sp,sp,-48
    8000c2fe:	f022                	sd	s0,32(sp)
    8000c300:	e84a                	sd	s2,16(sp)
    8000c302:	e44e                	sd	s3,8(sp)
    8000c304:	f406                	sd	ra,40(sp)
    8000c306:	ec26                	sd	s1,24(sp)
    8000c308:	00367793          	andi	a5,a2,3
    8000c30c:	8432                	mv	s0,a2
    8000c30e:	89aa                	mv	s3,a0
    8000c310:	892e                	mv	s2,a1
    8000c312:	eba5                	bnez	a5,8000c382 <__pow5mult+0x86>
    8000c314:	8409                	srai	s0,s0,0x2
    8000c316:	c421                	beqz	s0,8000c35e <__pow5mult+0x62>
    8000c318:	0709b483          	ld	s1,112(s3)
    8000c31c:	c0c1                	beqz	s1,8000c39c <__pow5mult+0xa0>
    8000c31e:	00147793          	andi	a5,s0,1
    8000c322:	eb89                	bnez	a5,8000c334 <__pow5mult+0x38>
    8000c324:	8405                	srai	s0,s0,0x1
    8000c326:	cc05                	beqz	s0,8000c35e <__pow5mult+0x62>
    8000c328:	6088                	ld	a0,0(s1)
    8000c32a:	c131                	beqz	a0,8000c36e <__pow5mult+0x72>
    8000c32c:	84aa                	mv	s1,a0
    8000c32e:	00147793          	andi	a5,s0,1
    8000c332:	dbed                	beqz	a5,8000c324 <__pow5mult+0x28>
    8000c334:	8626                	mv	a2,s1
    8000c336:	85ca                	mv	a1,s2
    8000c338:	854e                	mv	a0,s3
    8000c33a:	e17ff0ef          	jal	ra,8000c150 <__multiply>
    8000c33e:	00090d63          	beqz	s2,8000c358 <__pow5mult+0x5c>
    8000c342:	00892703          	lw	a4,8(s2)
    8000c346:	0789b783          	ld	a5,120(s3)
    8000c34a:	070e                	slli	a4,a4,0x3
    8000c34c:	97ba                	add	a5,a5,a4
    8000c34e:	6398                	ld	a4,0(a5)
    8000c350:	00e93023          	sd	a4,0(s2)
    8000c354:	0127b023          	sd	s2,0(a5)
    8000c358:	8405                	srai	s0,s0,0x1
    8000c35a:	892a                	mv	s2,a0
    8000c35c:	f471                	bnez	s0,8000c328 <__pow5mult+0x2c>
    8000c35e:	70a2                	ld	ra,40(sp)
    8000c360:	7402                	ld	s0,32(sp)
    8000c362:	64e2                	ld	s1,24(sp)
    8000c364:	69a2                	ld	s3,8(sp)
    8000c366:	854a                	mv	a0,s2
    8000c368:	6942                	ld	s2,16(sp)
    8000c36a:	6145                	addi	sp,sp,48
    8000c36c:	8082                	ret
    8000c36e:	8626                	mv	a2,s1
    8000c370:	85a6                	mv	a1,s1
    8000c372:	854e                	mv	a0,s3
    8000c374:	dddff0ef          	jal	ra,8000c150 <__multiply>
    8000c378:	e088                	sd	a0,0(s1)
    8000c37a:	00053023          	sd	zero,0(a0)
    8000c37e:	84aa                	mv	s1,a0
    8000c380:	b77d                	j	8000c32e <__pow5mult+0x32>
    8000c382:	37fd                	addiw	a5,a5,-1
    8000c384:	00003717          	auipc	a4,0x3
    8000c388:	9b470713          	addi	a4,a4,-1612 # 8000ed38 <p05.0>
    8000c38c:	078a                	slli	a5,a5,0x2
    8000c38e:	97ba                	add	a5,a5,a4
    8000c390:	4390                	lw	a2,0(a5)
    8000c392:	4681                	li	a3,0
    8000c394:	a8bff0ef          	jal	ra,8000be1e <__multadd>
    8000c398:	892a                	mv	s2,a0
    8000c39a:	bfad                	j	8000c314 <__pow5mult+0x18>
    8000c39c:	4585                	li	a1,1
    8000c39e:	854e                	mv	a0,s3
    8000c3a0:	a09ff0ef          	jal	ra,8000bda8 <_Balloc>
    8000c3a4:	84aa                	mv	s1,a0
    8000c3a6:	c919                	beqz	a0,8000c3bc <__pow5mult+0xc0>
    8000c3a8:	27100793          	li	a5,625
    8000c3ac:	cd1c                	sw	a5,24(a0)
    8000c3ae:	4785                	li	a5,1
    8000c3b0:	c95c                	sw	a5,20(a0)
    8000c3b2:	06a9b823          	sd	a0,112(s3)
    8000c3b6:	00053023          	sd	zero,0(a0)
    8000c3ba:	b795                	j	8000c31e <__pow5mult+0x22>
    8000c3bc:	00003697          	auipc	a3,0x3
    8000c3c0:	8d468693          	addi	a3,a3,-1836 # 8000ec90 <ezero+0x30>
    8000c3c4:	4601                	li	a2,0
    8000c3c6:	14000593          	li	a1,320
    8000c3ca:	00003517          	auipc	a0,0x3
    8000c3ce:	8de50513          	addi	a0,a0,-1826 # 8000eca8 <ezero+0x48>
    8000c3d2:	f89f80ef          	jal	ra,8000535a <__assert_func>

Disassembly of section .text.__lshift:

000000008000c3d6 <__lshift>:
    8000c3d6:	7139                	addi	sp,sp,-64
    8000c3d8:	f822                	sd	s0,48(sp)
    8000c3da:	49c0                	lw	s0,20(a1)
    8000c3dc:	45dc                	lw	a5,12(a1)
    8000c3de:	e456                	sd	s5,8(sp)
    8000c3e0:	40565a9b          	sraiw	s5,a2,0x5
    8000c3e4:	008a843b          	addw	s0,s5,s0
    8000c3e8:	f426                	sd	s1,40(sp)
    8000c3ea:	f04a                	sd	s2,32(sp)
    8000c3ec:	ec4e                	sd	s3,24(sp)
    8000c3ee:	e852                	sd	s4,16(sp)
    8000c3f0:	e05a                	sd	s6,0(sp)
    8000c3f2:	fc06                	sd	ra,56(sp)
    8000c3f4:	0014091b          	addiw	s2,s0,1
    8000c3f8:	84ae                	mv	s1,a1
    8000c3fa:	8a32                	mv	s4,a2
    8000c3fc:	458c                	lw	a1,8(a1)
    8000c3fe:	89aa                	mv	s3,a0
    8000c400:	40565b13          	srai	s6,a2,0x5
    8000c404:	0127d763          	bge	a5,s2,8000c412 <__lshift+0x3c>
    8000c408:	0017979b          	slliw	a5,a5,0x1
    8000c40c:	2585                	addiw	a1,a1,1
    8000c40e:	ff27cde3          	blt	a5,s2,8000c408 <__lshift+0x32>
    8000c412:	854e                	mv	a0,s3
    8000c414:	995ff0ef          	jal	ra,8000bda8 <_Balloc>
    8000c418:	c571                	beqz	a0,8000c4e4 <__lshift+0x10e>
    8000c41a:	01850713          	addi	a4,a0,24
    8000c41e:	03605163          	blez	s6,8000c440 <__lshift+0x6a>
    8000c422:	006a869b          	addiw	a3,s5,6
    8000c426:	068a                	slli	a3,a3,0x2
    8000c428:	96aa                	add	a3,a3,a0
    8000c42a:	87ba                	mv	a5,a4
    8000c42c:	0791                	addi	a5,a5,4
    8000c42e:	fe07ae23          	sw	zero,-4(a5)
    8000c432:	fef69de3          	bne	a3,a5,8000c42c <__lshift+0x56>
    8000c436:	020a9793          	slli	a5,s5,0x20
    8000c43a:	01e7da93          	srli	s5,a5,0x1e
    8000c43e:	9756                	add	a4,a4,s5
    8000c440:	0144a883          	lw	a7,20(s1)
    8000c444:	01848793          	addi	a5,s1,24
    8000c448:	01fa7613          	andi	a2,s4,31
    8000c44c:	088a                	slli	a7,a7,0x2
    8000c44e:	98be                	add	a7,a7,a5
    8000c450:	ca3d                	beqz	a2,8000c4c6 <__lshift+0xf0>
    8000c452:	02000593          	li	a1,32
    8000c456:	9d91                	subw	a1,a1,a2
    8000c458:	833a                	mv	t1,a4
    8000c45a:	4681                	li	a3,0
    8000c45c:	0007a803          	lw	a6,0(a5)
    8000c460:	0311                	addi	t1,t1,4
    8000c462:	0791                	addi	a5,a5,4
    8000c464:	00c8183b          	sllw	a6,a6,a2
    8000c468:	0106e6b3          	or	a3,a3,a6
    8000c46c:	fed32e23          	sw	a3,-4(t1)
    8000c470:	ffc7a803          	lw	a6,-4(a5)
    8000c474:	00b856bb          	srlw	a3,a6,a1
    8000c478:	8836                	mv	a6,a3
    8000c47a:	ff17e1e3          	bltu	a5,a7,8000c45c <__lshift+0x86>
    8000c47e:	01948793          	addi	a5,s1,25
    8000c482:	4611                	li	a2,4
    8000c484:	00f8e863          	bltu	a7,a5,8000c494 <__lshift+0xbe>
    8000c488:	409887b3          	sub	a5,a7,s1
    8000c48c:	179d                	addi	a5,a5,-25
    8000c48e:	9bf1                	andi	a5,a5,-4
    8000c490:	00478613          	addi	a2,a5,4
    8000c494:	9732                	add	a4,a4,a2
    8000c496:	01072023          	sw	a6,0(a4)
    8000c49a:	e291                	bnez	a3,8000c49e <__lshift+0xc8>
    8000c49c:	8922                	mv	s2,s0
    8000c49e:	4498                	lw	a4,8(s1)
    8000c4a0:	0789b783          	ld	a5,120(s3)
    8000c4a4:	70e2                	ld	ra,56(sp)
    8000c4a6:	070e                	slli	a4,a4,0x3
    8000c4a8:	97ba                	add	a5,a5,a4
    8000c4aa:	6398                	ld	a4,0(a5)
    8000c4ac:	01252a23          	sw	s2,20(a0)
    8000c4b0:	7442                	ld	s0,48(sp)
    8000c4b2:	e098                	sd	a4,0(s1)
    8000c4b4:	e384                	sd	s1,0(a5)
    8000c4b6:	7902                	ld	s2,32(sp)
    8000c4b8:	74a2                	ld	s1,40(sp)
    8000c4ba:	69e2                	ld	s3,24(sp)
    8000c4bc:	6a42                	ld	s4,16(sp)
    8000c4be:	6aa2                	ld	s5,8(sp)
    8000c4c0:	6b02                	ld	s6,0(sp)
    8000c4c2:	6121                	addi	sp,sp,64
    8000c4c4:	8082                	ret
    8000c4c6:	4394                	lw	a3,0(a5)
    8000c4c8:	0791                	addi	a5,a5,4
    8000c4ca:	0711                	addi	a4,a4,4
    8000c4cc:	fed72e23          	sw	a3,-4(a4)
    8000c4d0:	fd17f6e3          	bgeu	a5,a7,8000c49c <__lshift+0xc6>
    8000c4d4:	4394                	lw	a3,0(a5)
    8000c4d6:	0791                	addi	a5,a5,4
    8000c4d8:	0711                	addi	a4,a4,4
    8000c4da:	fed72e23          	sw	a3,-4(a4)
    8000c4de:	ff17e4e3          	bltu	a5,a7,8000c4c6 <__lshift+0xf0>
    8000c4e2:	bf6d                	j	8000c49c <__lshift+0xc6>
    8000c4e4:	00002697          	auipc	a3,0x2
    8000c4e8:	7ac68693          	addi	a3,a3,1964 # 8000ec90 <ezero+0x30>
    8000c4ec:	4601                	li	a2,0
    8000c4ee:	1d900593          	li	a1,473
    8000c4f2:	00002517          	auipc	a0,0x2
    8000c4f6:	7b650513          	addi	a0,a0,1974 # 8000eca8 <ezero+0x48>
    8000c4fa:	e61f80ef          	jal	ra,8000535a <__assert_func>

Disassembly of section .text.__mcmp:

000000008000c4fe <__mcmp>:
    8000c4fe:	49dc                	lw	a5,20(a1)
    8000c500:	882a                	mv	a6,a0
    8000c502:	4948                	lw	a0,20(a0)
    8000c504:	9d1d                	subw	a0,a0,a5
    8000c506:	e51d                	bnez	a0,8000c534 <__mcmp+0x36>
    8000c508:	078a                	slli	a5,a5,0x2
    8000c50a:	0861                	addi	a6,a6,24
    8000c50c:	05e1                	addi	a1,a1,24
    8000c50e:	00f80733          	add	a4,a6,a5
    8000c512:	97ae                	add	a5,a5,a1
    8000c514:	a019                	j	8000c51a <__mcmp+0x1c>
    8000c516:	00e87f63          	bgeu	a6,a4,8000c534 <__mcmp+0x36>
    8000c51a:	ffc72603          	lw	a2,-4(a4)
    8000c51e:	ffc7a683          	lw	a3,-4(a5)
    8000c522:	1771                	addi	a4,a4,-4
    8000c524:	17f1                	addi	a5,a5,-4
    8000c526:	fed608e3          	beq	a2,a3,8000c516 <__mcmp+0x18>
    8000c52a:	4505                	li	a0,1
    8000c52c:	00d67463          	bgeu	a2,a3,8000c534 <__mcmp+0x36>
    8000c530:	557d                	li	a0,-1
    8000c532:	8082                	ret
    8000c534:	8082                	ret

Disassembly of section .text.__mdiff:

000000008000c536 <__mdiff>:
    8000c536:	1101                	addi	sp,sp,-32
    8000c538:	4a5c                	lw	a5,20(a2)
    8000c53a:	e04a                	sd	s2,0(sp)
    8000c53c:	0145a903          	lw	s2,20(a1)
    8000c540:	e822                	sd	s0,16(sp)
    8000c542:	e426                	sd	s1,8(sp)
    8000c544:	ec06                	sd	ra,24(sp)
    8000c546:	40f9093b          	subw	s2,s2,a5
    8000c54a:	84ae                	mv	s1,a1
    8000c54c:	8432                	mv	s0,a2
    8000c54e:	02091c63          	bnez	s2,8000c586 <__mdiff+0x50>
    8000c552:	00279693          	slli	a3,a5,0x2
    8000c556:	05e1                	addi	a1,a1,24
    8000c558:	01860713          	addi	a4,a2,24
    8000c55c:	00d587b3          	add	a5,a1,a3
    8000c560:	9736                	add	a4,a4,a3
    8000c562:	a019                	j	8000c568 <__mdiff+0x32>
    8000c564:	12f5f663          	bgeu	a1,a5,8000c690 <__mdiff+0x15a>
    8000c568:	ffc7a603          	lw	a2,-4(a5)
    8000c56c:	ffc72683          	lw	a3,-4(a4)
    8000c570:	17f1                	addi	a5,a5,-4
    8000c572:	1771                	addi	a4,a4,-4
    8000c574:	fed608e3          	beq	a2,a3,8000c564 <__mdiff+0x2e>
    8000c578:	00d67a63          	bgeu	a2,a3,8000c58c <__mdiff+0x56>
    8000c57c:	87a6                	mv	a5,s1
    8000c57e:	4905                	li	s2,1
    8000c580:	84a2                	mv	s1,s0
    8000c582:	843e                	mv	s0,a5
    8000c584:	a021                	j	8000c58c <__mdiff+0x56>
    8000c586:	fe094be3          	bltz	s2,8000c57c <__mdiff+0x46>
    8000c58a:	4901                	li	s2,0
    8000c58c:	448c                	lw	a1,8(s1)
    8000c58e:	81bff0ef          	jal	ra,8000bda8 <_Balloc>
    8000c592:	14050363          	beqz	a0,8000c6d8 <__mdiff+0x1a2>
    8000c596:	0144a303          	lw	t1,20(s1)
    8000c59a:	01442f03          	lw	t5,20(s0)
    8000c59e:	01848293          	addi	t0,s1,24
    8000c5a2:	00231e13          	slli	t3,t1,0x2
    8000c5a6:	01840813          	addi	a6,s0,24
    8000c5aa:	0f0a                	slli	t5,t5,0x2
    8000c5ac:	01850f93          	addi	t6,a0,24
    8000c5b0:	68c1                	lui	a7,0x10
    8000c5b2:	01252823          	sw	s2,16(a0)
    8000c5b6:	9e16                	add	t3,t3,t0
    8000c5b8:	9f42                	add	t5,t5,a6
    8000c5ba:	867e                	mv	a2,t6
    8000c5bc:	8e96                	mv	t4,t0
    8000c5be:	4581                	li	a1,0
    8000c5c0:	18fd                	addi	a7,a7,-1 # ffff <_tbss_end+0xffbb>
    8000c5c2:	000ea703          	lw	a4,0(t4)
    8000c5c6:	00082683          	lw	a3,0(a6)
    8000c5ca:	0611                	addi	a2,a2,4
    8000c5cc:	011777b3          	and	a5,a4,a7
    8000c5d0:	0116f3b3          	and	t2,a3,a7
    8000c5d4:	407787bb          	subw	a5,a5,t2
    8000c5d8:	9fad                	addw	a5,a5,a1
    8000c5da:	0106d69b          	srliw	a3,a3,0x10
    8000c5de:	0107571b          	srliw	a4,a4,0x10
    8000c5e2:	9f15                	subw	a4,a4,a3
    8000c5e4:	4107d69b          	sraiw	a3,a5,0x10
    8000c5e8:	9f35                	addw	a4,a4,a3
    8000c5ea:	00f8f7b3          	and	a5,a7,a5
    8000c5ee:	0107169b          	slliw	a3,a4,0x10
    8000c5f2:	8fd5                	or	a5,a5,a3
    8000c5f4:	2781                	sext.w	a5,a5
    8000c5f6:	0811                	addi	a6,a6,4
    8000c5f8:	fef62e23          	sw	a5,-4(a2)
    8000c5fc:	0e91                	addi	t4,t4,4
    8000c5fe:	4107559b          	sraiw	a1,a4,0x10
    8000c602:	fde860e3          	bltu	a6,t5,8000c5c2 <__mdiff+0x8c>
    8000c606:	408f0733          	sub	a4,t5,s0
    8000c60a:	171d                	addi	a4,a4,-25
    8000c60c:	0465                	addi	s0,s0,25
    8000c60e:	00275e93          	srli	t4,a4,0x2
    8000c612:	4711                	li	a4,4
    8000c614:	008f6563          	bltu	t5,s0,8000c61e <__mdiff+0xe8>
    8000c618:	001e8713          	addi	a4,t4,1
    8000c61c:	070a                	slli	a4,a4,0x2
    8000c61e:	92ba                	add	t0,t0,a4
    8000c620:	00ef8833          	add	a6,t6,a4
    8000c624:	68c1                	lui	a7,0x10
    8000c626:	8642                	mv	a2,a6
    8000c628:	8696                	mv	a3,t0
    8000c62a:	18fd                	addi	a7,a7,-1 # ffff <_tbss_end+0xffbb>
    8000c62c:	09c2f063          	bgeu	t0,t3,8000c6ac <__mdiff+0x176>
    8000c630:	429c                	lw	a5,0(a3)
    8000c632:	00058e9b          	sext.w	t4,a1
    8000c636:	0611                	addi	a2,a2,4
    8000c638:	0117f733          	and	a4,a5,a7
    8000c63c:	9f2d                	addw	a4,a4,a1
    8000c63e:	4107571b          	sraiw	a4,a4,0x10
    8000c642:	0107d59b          	srliw	a1,a5,0x10
    8000c646:	9f2d                	addw	a4,a4,a1
    8000c648:	01d787bb          	addw	a5,a5,t4
    8000c64c:	0107159b          	slliw	a1,a4,0x10
    8000c650:	0117f7b3          	and	a5,a5,a7
    8000c654:	8fcd                	or	a5,a5,a1
    8000c656:	2781                	sext.w	a5,a5
    8000c658:	0691                	addi	a3,a3,4
    8000c65a:	fef62e23          	sw	a5,-4(a2)
    8000c65e:	4107559b          	sraiw	a1,a4,0x10
    8000c662:	fdc6e7e3          	bltu	a3,t3,8000c630 <__mdiff+0xfa>
    8000c666:	1e7d                	addi	t3,t3,-1
    8000c668:	405e0e33          	sub	t3,t3,t0
    8000c66c:	ffce7e13          	andi	t3,t3,-4
    8000c670:	01c80733          	add	a4,a6,t3
    8000c674:	e791                	bnez	a5,8000c680 <__mdiff+0x14a>
    8000c676:	ffc72783          	lw	a5,-4(a4)
    8000c67a:	337d                	addiw	t1,t1,-1
    8000c67c:	1771                	addi	a4,a4,-4
    8000c67e:	dfe5                	beqz	a5,8000c676 <__mdiff+0x140>
    8000c680:	60e2                	ld	ra,24(sp)
    8000c682:	6442                	ld	s0,16(sp)
    8000c684:	00652a23          	sw	t1,20(a0)
    8000c688:	64a2                	ld	s1,8(sp)
    8000c68a:	6902                	ld	s2,0(sp)
    8000c68c:	6105                	addi	sp,sp,32
    8000c68e:	8082                	ret
    8000c690:	4581                	li	a1,0
    8000c692:	f16ff0ef          	jal	ra,8000bda8 <_Balloc>
    8000c696:	c505                	beqz	a0,8000c6be <__mdiff+0x188>
    8000c698:	60e2                	ld	ra,24(sp)
    8000c69a:	6442                	ld	s0,16(sp)
    8000c69c:	4785                	li	a5,1
    8000c69e:	c95c                	sw	a5,20(a0)
    8000c6a0:	00052c23          	sw	zero,24(a0)
    8000c6a4:	64a2                	ld	s1,8(sp)
    8000c6a6:	6902                	ld	s2,0(sp)
    8000c6a8:	6105                	addi	sp,sp,32
    8000c6aa:	8082                	ret
    8000c6ac:	4701                	li	a4,0
    8000c6ae:	008f7463          	bgeu	t5,s0,8000c6b6 <__mdiff+0x180>
    8000c6b2:	977e                	add	a4,a4,t6
    8000c6b4:	b7c1                	j	8000c674 <__mdiff+0x13e>
    8000c6b6:	002e9713          	slli	a4,t4,0x2
    8000c6ba:	977e                	add	a4,a4,t6
    8000c6bc:	bf65                	j	8000c674 <__mdiff+0x13e>
    8000c6be:	00002697          	auipc	a3,0x2
    8000c6c2:	5d268693          	addi	a3,a3,1490 # 8000ec90 <ezero+0x30>
    8000c6c6:	4601                	li	a2,0
    8000c6c8:	23200593          	li	a1,562
    8000c6cc:	00002517          	auipc	a0,0x2
    8000c6d0:	5dc50513          	addi	a0,a0,1500 # 8000eca8 <ezero+0x48>
    8000c6d4:	c87f80ef          	jal	ra,8000535a <__assert_func>
    8000c6d8:	00002697          	auipc	a3,0x2
    8000c6dc:	5b868693          	addi	a3,a3,1464 # 8000ec90 <ezero+0x30>
    8000c6e0:	4601                	li	a2,0
    8000c6e2:	24000593          	li	a1,576
    8000c6e6:	00002517          	auipc	a0,0x2
    8000c6ea:	5c250513          	addi	a0,a0,1474 # 8000eca8 <ezero+0x48>
    8000c6ee:	c6df80ef          	jal	ra,8000535a <__assert_func>

Disassembly of section .text.__ulp:

000000008000c6f2 <__ulp>:
    8000c6f2:	e2050753          	fmv.x.d	a4,fa0
    8000c6f6:	7ff007b7          	lui	a5,0x7ff00
    8000c6fa:	9301                	srli	a4,a4,0x20
    8000c6fc:	8f7d                	and	a4,a4,a5
    8000c6fe:	fcc007b7          	lui	a5,0xfcc00
    8000c702:	00e786bb          	addw	a3,a5,a4
    8000c706:	4701                	li	a4,0
    8000c708:	00d05963          	blez	a3,8000c71a <__ulp+0x28>
    8000c70c:	1702                	slli	a4,a4,0x20
    8000c70e:	1682                	slli	a3,a3,0x20
    8000c710:	9301                	srli	a4,a4,0x20
    8000c712:	8f55                	or	a4,a4,a3
    8000c714:	f2070553          	fmv.d.x	fa0,a4
    8000c718:	8082                	ret
    8000c71a:	40d007bb          	negw	a5,a3
    8000c71e:	4147d71b          	sraiw	a4,a5,0x14
    8000c722:	46cd                	li	a3,19
    8000c724:	00e6ce63          	blt	a3,a4,8000c740 <__ulp+0x4e>
    8000c728:	000806b7          	lui	a3,0x80
    8000c72c:	40e6d6bb          	sraw	a3,a3,a4
    8000c730:	4701                	li	a4,0
    8000c732:	1702                	slli	a4,a4,0x20
    8000c734:	1682                	slli	a3,a3,0x20
    8000c736:	9301                	srli	a4,a4,0x20
    8000c738:	8f55                	or	a4,a4,a3
    8000c73a:	f2070553          	fmv.d.x	fa0,a4
    8000c73e:	8082                	ret
    8000c740:	fec7079b          	addiw	a5,a4,-20
    8000c744:	46f9                	li	a3,30
    8000c746:	4705                	li	a4,1
    8000c748:	00f6c663          	blt	a3,a5,8000c754 <__ulp+0x62>
    8000c74c:	80000737          	lui	a4,0x80000
    8000c750:	00f7573b          	srlw	a4,a4,a5
    8000c754:	4681                	li	a3,0
    8000c756:	1702                	slli	a4,a4,0x20
    8000c758:	1682                	slli	a3,a3,0x20
    8000c75a:	9301                	srli	a4,a4,0x20
    8000c75c:	8f55                	or	a4,a4,a3
    8000c75e:	f2070553          	fmv.d.x	fa0,a4
    8000c762:	8082                	ret

Disassembly of section .text.__b2d:

000000008000c764 <__b2d>:
    8000c764:	7179                	addi	sp,sp,-48
    8000c766:	ec26                	sd	s1,24(sp)
    8000c768:	4944                	lw	s1,20(a0)
    8000c76a:	f022                	sd	s0,32(sp)
    8000c76c:	01850413          	addi	s0,a0,24
    8000c770:	048a                	slli	s1,s1,0x2
    8000c772:	94a2                	add	s1,s1,s0
    8000c774:	e84a                	sd	s2,16(sp)
    8000c776:	ffc4a903          	lw	s2,-4(s1)
    8000c77a:	e44e                	sd	s3,8(sp)
    8000c77c:	e052                	sd	s4,0(sp)
    8000c77e:	854a                	mv	a0,s2
    8000c780:	89ae                	mv	s3,a1
    8000c782:	f406                	sd	ra,40(sp)
    8000c784:	86bff0ef          	jal	ra,8000bfee <__hi0bits>
    8000c788:	02000693          	li	a3,32
    8000c78c:	40a687bb          	subw	a5,a3,a0
    8000c790:	00f9a023          	sw	a5,0(s3)
    8000c794:	47a9                	li	a5,10
    8000c796:	ffc48a13          	addi	s4,s1,-4
    8000c79a:	08a7d563          	bge	a5,a0,8000c824 <__b2d+0xc0>
    8000c79e:	ff55079b          	addiw	a5,a0,-11
    8000c7a2:	05447163          	bgeu	s0,s4,8000c7e4 <__b2d+0x80>
    8000c7a6:	ff84a703          	lw	a4,-8(s1)
    8000c7aa:	cba9                	beqz	a5,8000c7fc <__b2d+0x98>
    8000c7ac:	9e9d                	subw	a3,a3,a5
    8000c7ae:	00d7563b          	srlw	a2,a4,a3
    8000c7b2:	00f9193b          	sllw	s2,s2,a5
    8000c7b6:	00c96933          	or	s2,s2,a2
    8000c7ba:	3ff00637          	lui	a2,0x3ff00
    8000c7be:	00c96933          	or	s2,s2,a2
    8000c7c2:	00f715bb          	sllw	a1,a4,a5
    8000c7c6:	ff848613          	addi	a2,s1,-8
    8000c7ca:	02091793          	slli	a5,s2,0x20
    8000c7ce:	0005871b          	sext.w	a4,a1
    8000c7d2:	02c47a63          	bgeu	s0,a2,8000c806 <__b2d+0xa2>
    8000c7d6:	ff44a703          	lw	a4,-12(s1)
    8000c7da:	00d7573b          	srlw	a4,a4,a3
    8000c7de:	8f4d                	or	a4,a4,a1
    8000c7e0:	2701                	sext.w	a4,a4
    8000c7e2:	a015                	j	8000c806 <__b2d+0xa2>
    8000c7e4:	472d                	li	a4,11
    8000c7e6:	00e50a63          	beq	a0,a4,8000c7fa <__b2d+0x96>
    8000c7ea:	3ff00737          	lui	a4,0x3ff00
    8000c7ee:	00f917bb          	sllw	a5,s2,a5
    8000c7f2:	8fd9                	or	a5,a5,a4
    8000c7f4:	1782                	slli	a5,a5,0x20
    8000c7f6:	4701                	li	a4,0
    8000c7f8:	a039                	j	8000c806 <__b2d+0xa2>
    8000c7fa:	4701                	li	a4,0
    8000c7fc:	3ff007b7          	lui	a5,0x3ff00
    8000c800:	00f967b3          	or	a5,s2,a5
    8000c804:	1782                	slli	a5,a5,0x20
    8000c806:	70a2                	ld	ra,40(sp)
    8000c808:	7402                	ld	s0,32(sp)
    8000c80a:	9381                	srli	a5,a5,0x20
    8000c80c:	1702                	slli	a4,a4,0x20
    8000c80e:	9301                	srli	a4,a4,0x20
    8000c810:	1782                	slli	a5,a5,0x20
    8000c812:	8fd9                	or	a5,a5,a4
    8000c814:	64e2                	ld	s1,24(sp)
    8000c816:	6942                	ld	s2,16(sp)
    8000c818:	69a2                	ld	s3,8(sp)
    8000c81a:	6a02                	ld	s4,0(sp)
    8000c81c:	f2078553          	fmv.d.x	fa0,a5
    8000c820:	6145                	addi	sp,sp,48
    8000c822:	8082                	ret
    8000c824:	46ad                	li	a3,11
    8000c826:	9e89                	subw	a3,a3,a0
    8000c828:	3ff00737          	lui	a4,0x3ff00
    8000c82c:	00d957bb          	srlw	a5,s2,a3
    8000c830:	8fd9                	or	a5,a5,a4
    8000c832:	1782                	slli	a5,a5,0x20
    8000c834:	4701                	li	a4,0
    8000c836:	01447663          	bgeu	s0,s4,8000c842 <__b2d+0xde>
    8000c83a:	ff84a703          	lw	a4,-8(s1)
    8000c83e:	00d7573b          	srlw	a4,a4,a3
    8000c842:	2555                	addiw	a0,a0,21
    8000c844:	00a9153b          	sllw	a0,s2,a0
    8000c848:	8f49                	or	a4,a4,a0
    8000c84a:	2701                	sext.w	a4,a4
    8000c84c:	bf6d                	j	8000c806 <__b2d+0xa2>

Disassembly of section .text.__d2b:

000000008000c84e <__d2b>:
    8000c84e:	7139                	addi	sp,sp,-64
    8000c850:	e852                	sd	s4,16(sp)
    8000c852:	8a2e                	mv	s4,a1
    8000c854:	4585                	li	a1,1
    8000c856:	f822                	sd	s0,48(sp)
    8000c858:	f04a                	sd	s2,32(sp)
    8000c85a:	fc06                	sd	ra,56(sp)
    8000c85c:	f426                	sd	s1,40(sp)
    8000c85e:	ec4e                	sd	s3,24(sp)
    8000c860:	e2050453          	fmv.x.d	s0,fa0
    8000c864:	8932                	mv	s2,a2
    8000c866:	d42ff0ef          	jal	ra,8000bda8 <_Balloc>
    8000c86a:	c955                	beqz	a0,8000c91e <__d2b+0xd0>
    8000c86c:	42045793          	srai	a5,s0,0x20
    8000c870:	0147d99b          	srliw	s3,a5,0x14
    8000c874:	7ff9f993          	andi	s3,s3,2047
    8000c878:	17b2                	slli	a5,a5,0x2c
    8000c87a:	84aa                	mv	s1,a0
    8000c87c:	93b1                	srli	a5,a5,0x2c
    8000c87e:	00098563          	beqz	s3,8000c888 <__d2b+0x3a>
    8000c882:	00100737          	lui	a4,0x100
    8000c886:	8fd9                	or	a5,a5,a4
    8000c888:	c63e                	sw	a5,12(sp)
    8000c88a:	2401                	sext.w	s0,s0
    8000c88c:	e029                	bnez	s0,8000c8ce <__d2b+0x80>
    8000c88e:	0068                	addi	a0,sp,12
    8000c890:	fbcff0ef          	jal	ra,8000c04c <__lo0bits>
    8000c894:	47b2                	lw	a5,12(sp)
    8000c896:	4405                	li	s0,1
    8000c898:	c8c0                	sw	s0,20(s1)
    8000c89a:	cc9c                	sw	a5,24(s1)
    8000c89c:	0205051b          	addiw	a0,a0,32
    8000c8a0:	06098063          	beqz	s3,8000c900 <__d2b+0xb2>
    8000c8a4:	bcd9899b          	addiw	s3,s3,-1075
    8000c8a8:	00a989bb          	addw	s3,s3,a0
    8000c8ac:	03500413          	li	s0,53
    8000c8b0:	013a2023          	sw	s3,0(s4)
    8000c8b4:	40a4053b          	subw	a0,s0,a0
    8000c8b8:	70e2                	ld	ra,56(sp)
    8000c8ba:	7442                	ld	s0,48(sp)
    8000c8bc:	00a92023          	sw	a0,0(s2)
    8000c8c0:	69e2                	ld	s3,24(sp)
    8000c8c2:	7902                	ld	s2,32(sp)
    8000c8c4:	6a42                	ld	s4,16(sp)
    8000c8c6:	8526                	mv	a0,s1
    8000c8c8:	74a2                	ld	s1,40(sp)
    8000c8ca:	6121                	addi	sp,sp,64
    8000c8cc:	8082                	ret
    8000c8ce:	0028                	addi	a0,sp,8
    8000c8d0:	c422                	sw	s0,8(sp)
    8000c8d2:	f7aff0ef          	jal	ra,8000c04c <__lo0bits>
    8000c8d6:	47b2                	lw	a5,12(sp)
    8000c8d8:	4722                	lw	a4,8(sp)
    8000c8da:	c919                	beqz	a0,8000c8f0 <__d2b+0xa2>
    8000c8dc:	02000693          	li	a3,32
    8000c8e0:	9e89                	subw	a3,a3,a0
    8000c8e2:	00d796bb          	sllw	a3,a5,a3
    8000c8e6:	8f55                	or	a4,a4,a3
    8000c8e8:	00a7d7bb          	srlw	a5,a5,a0
    8000c8ec:	2701                	sext.w	a4,a4
    8000c8ee:	c63e                	sw	a5,12(sp)
    8000c8f0:	00f03433          	snez	s0,a5
    8000c8f4:	0405                	addi	s0,s0,1
    8000c8f6:	cc98                	sw	a4,24(s1)
    8000c8f8:	ccdc                	sw	a5,28(s1)
    8000c8fa:	c8c0                	sw	s0,20(s1)
    8000c8fc:	fa0994e3          	bnez	s3,8000c8a4 <__d2b+0x56>
    8000c900:	bce5051b          	addiw	a0,a0,-1074
    8000c904:	00241793          	slli	a5,s0,0x2
    8000c908:	00aa2023          	sw	a0,0(s4)
    8000c90c:	97a6                	add	a5,a5,s1
    8000c90e:	4bc8                	lw	a0,20(a5)
    8000c910:	0054141b          	slliw	s0,s0,0x5
    8000c914:	edaff0ef          	jal	ra,8000bfee <__hi0bits>
    8000c918:	40a4053b          	subw	a0,s0,a0
    8000c91c:	bf71                	j	8000c8b8 <__d2b+0x6a>
    8000c91e:	00002697          	auipc	a3,0x2
    8000c922:	37268693          	addi	a3,a3,882 # 8000ec90 <ezero+0x30>
    8000c926:	4601                	li	a2,0
    8000c928:	30a00593          	li	a1,778
    8000c92c:	00002517          	auipc	a0,0x2
    8000c930:	37c50513          	addi	a0,a0,892 # 8000eca8 <ezero+0x48>
    8000c934:	a27f80ef          	jal	ra,8000535a <__assert_func>

Disassembly of section .text.__ratio:

000000008000c938 <__ratio>:
    8000c938:	7179                	addi	sp,sp,-48
    8000c93a:	ec26                	sd	s1,24(sp)
    8000c93c:	84ae                	mv	s1,a1
    8000c93e:	002c                	addi	a1,sp,8
    8000c940:	f406                	sd	ra,40(sp)
    8000c942:	f022                	sd	s0,32(sp)
    8000c944:	e84a                	sd	s2,16(sp)
    8000c946:	892a                	mv	s2,a0
    8000c948:	e1dff0ef          	jal	ra,8000c764 <__b2d>
    8000c94c:	006c                	addi	a1,sp,12
    8000c94e:	8526                	mv	a0,s1
    8000c950:	e2050453          	fmv.x.d	s0,fa0
    8000c954:	e11ff0ef          	jal	ra,8000c764 <__b2d>
    8000c958:	01492783          	lw	a5,20(s2)
    8000c95c:	48d0                	lw	a2,20(s1)
    8000c95e:	46b2                	lw	a3,12(sp)
    8000c960:	4722                	lw	a4,8(sp)
    8000c962:	9f91                	subw	a5,a5,a2
    8000c964:	0057979b          	slliw	a5,a5,0x5
    8000c968:	9f15                	subw	a4,a4,a3
    8000c96a:	00e786bb          	addw	a3,a5,a4
    8000c96e:	87b6                	mv	a5,a3
    8000c970:	e2050753          	fmv.x.d	a4,fa0
    8000c974:	02d05963          	blez	a3,8000c9a6 <__ratio+0x6e>
    8000c978:	02045693          	srli	a3,s0,0x20
    8000c97c:	0147979b          	slliw	a5,a5,0x14
    8000c980:	9fb5                	addw	a5,a5,a3
    8000c982:	56fd                	li	a3,-1
    8000c984:	9281                	srli	a3,a3,0x20
    8000c986:	1782                	slli	a5,a5,0x20
    8000c988:	8ee1                	and	a3,a3,s0
    8000c98a:	00f6e433          	or	s0,a3,a5
    8000c98e:	f20407d3          	fmv.d.x	fa5,s0
    8000c992:	70a2                	ld	ra,40(sp)
    8000c994:	7402                	ld	s0,32(sp)
    8000c996:	f2070753          	fmv.d.x	fa4,a4
    8000c99a:	64e2                	ld	s1,24(sp)
    8000c99c:	6942                	ld	s2,16(sp)
    8000c99e:	1ae7f553          	fdiv.d	fa0,fa5,fa4
    8000c9a2:	6145                	addi	sp,sp,48
    8000c9a4:	8082                	ret
    8000c9a6:	02075693          	srli	a3,a4,0x20
    8000c9aa:	0147979b          	slliw	a5,a5,0x14
    8000c9ae:	40f687bb          	subw	a5,a3,a5
    8000c9b2:	56fd                	li	a3,-1
    8000c9b4:	9281                	srli	a3,a3,0x20
    8000c9b6:	1782                	slli	a5,a5,0x20
    8000c9b8:	8f75                	and	a4,a4,a3
    8000c9ba:	8f5d                	or	a4,a4,a5
    8000c9bc:	bfc9                	j	8000c98e <__ratio+0x56>

Disassembly of section .text._mprec_log10:

000000008000c9be <_mprec_log10>:
    8000c9be:	47dd                	li	a5,23
    8000c9c0:	00a7df63          	bge	a5,a0,8000c9de <_mprec_log10+0x20>
    8000c9c4:	00003797          	auipc	a5,0x3
    8000c9c8:	76c7b507          	fld	fa0,1900(a5) # 80010130 <__global_locale+0x1f8>
    8000c9cc:	00003797          	auipc	a5,0x3
    8000c9d0:	76c7b787          	fld	fa5,1900(a5) # 80010138 <__global_locale+0x200>
    8000c9d4:	357d                	addiw	a0,a0,-1
    8000c9d6:	12f57553          	fmul.d	fa0,fa0,fa5
    8000c9da:	fd6d                	bnez	a0,8000c9d4 <_mprec_log10+0x16>
    8000c9dc:	8082                	ret
    8000c9de:	050e                	slli	a0,a0,0x3
    8000c9e0:	00002797          	auipc	a5,0x2
    8000c9e4:	3b878793          	addi	a5,a5,952 # 8000ed98 <__mprec_tens>
    8000c9e8:	97aa                	add	a5,a5,a0
    8000c9ea:	2388                	fld	fa0,0(a5)
    8000c9ec:	8082                	ret

Disassembly of section .text.__copybits:

000000008000c9ee <__copybits>:
    8000c9ee:	4a54                	lw	a3,20(a2)
    8000c9f0:	35fd                	addiw	a1,a1,-1
    8000c9f2:	4055d59b          	sraiw	a1,a1,0x5
    8000c9f6:	2585                	addiw	a1,a1,1
    8000c9f8:	01860793          	addi	a5,a2,24 # 3ff00018 <__malloc_len+0x3cf00018>
    8000c9fc:	068a                	slli	a3,a3,0x2
    8000c9fe:	058a                	slli	a1,a1,0x2
    8000ca00:	96be                	add	a3,a3,a5
    8000ca02:	95aa                	add	a1,a1,a0
    8000ca04:	02d7f163          	bgeu	a5,a3,8000ca26 <__copybits+0x38>
    8000ca08:	872a                	mv	a4,a0
    8000ca0a:	0007a803          	lw	a6,0(a5)
    8000ca0e:	0791                	addi	a5,a5,4
    8000ca10:	0711                	addi	a4,a4,4 # 100004 <_tbss_end+0xfffc0>
    8000ca12:	ff072e23          	sw	a6,-4(a4)
    8000ca16:	fed7eae3          	bltu	a5,a3,8000ca0a <__copybits+0x1c>
    8000ca1a:	40c687b3          	sub	a5,a3,a2
    8000ca1e:	179d                	addi	a5,a5,-25
    8000ca20:	9bf1                	andi	a5,a5,-4
    8000ca22:	0791                	addi	a5,a5,4
    8000ca24:	953e                	add	a0,a0,a5
    8000ca26:	00b57763          	bgeu	a0,a1,8000ca34 <__copybits+0x46>
    8000ca2a:	0511                	addi	a0,a0,4
    8000ca2c:	fe052e23          	sw	zero,-4(a0)
    8000ca30:	feb56de3          	bltu	a0,a1,8000ca2a <__copybits+0x3c>
    8000ca34:	8082                	ret

Disassembly of section .text.__any_on:

000000008000ca36 <__any_on>:
    8000ca36:	4958                	lw	a4,20(a0)
    8000ca38:	4055d613          	srai	a2,a1,0x5
    8000ca3c:	01850693          	addi	a3,a0,24
    8000ca40:	00c75d63          	bge	a4,a2,8000ca5a <__any_on+0x24>
    8000ca44:	070a                	slli	a4,a4,0x2
    8000ca46:	00e687b3          	add	a5,a3,a4
    8000ca4a:	02f6f863          	bgeu	a3,a5,8000ca7a <__any_on+0x44>
    8000ca4e:	ffc7a703          	lw	a4,-4(a5)
    8000ca52:	17f1                	addi	a5,a5,-4
    8000ca54:	db7d                	beqz	a4,8000ca4a <__any_on+0x14>
    8000ca56:	4505                	li	a0,1
    8000ca58:	8082                	ret
    8000ca5a:	00261793          	slli	a5,a2,0x2
    8000ca5e:	97b6                	add	a5,a5,a3
    8000ca60:	fee655e3          	bge	a2,a4,8000ca4a <__any_on+0x14>
    8000ca64:	89fd                	andi	a1,a1,31
    8000ca66:	d1f5                	beqz	a1,8000ca4a <__any_on+0x14>
    8000ca68:	4390                	lw	a2,0(a5)
    8000ca6a:	4505                	li	a0,1
    8000ca6c:	00b6573b          	srlw	a4,a2,a1
    8000ca70:	00b7173b          	sllw	a4,a4,a1
    8000ca74:	fcc70be3          	beq	a4,a2,8000ca4a <__any_on+0x14>
    8000ca78:	8082                	ret
    8000ca7a:	4501                	li	a0,0
    8000ca7c:	8082                	ret

Disassembly of section .text._realloc_r:

000000008000ca7e <_realloc_r>:
    8000ca7e:	715d                	addi	sp,sp,-80
    8000ca80:	f84a                	sd	s2,48(sp)
    8000ca82:	e486                	sd	ra,72(sp)
    8000ca84:	e0a2                	sd	s0,64(sp)
    8000ca86:	fc26                	sd	s1,56(sp)
    8000ca88:	f44e                	sd	s3,40(sp)
    8000ca8a:	f052                	sd	s4,32(sp)
    8000ca8c:	ec56                	sd	s5,24(sp)
    8000ca8e:	e85a                	sd	s6,16(sp)
    8000ca90:	e45e                	sd	s7,8(sp)
    8000ca92:	e062                	sd	s8,0(sp)
    8000ca94:	8932                	mv	s2,a2
    8000ca96:	14058963          	beqz	a1,8000cbe8 <_realloc_r+0x16a>
    8000ca9a:	842e                	mv	s0,a1
    8000ca9c:	89aa                	mv	s3,a0
    8000ca9e:	b1af90ef          	jal	ra,80005db8 <__malloc_lock>
    8000caa2:	ff843783          	ld	a5,-8(s0)
    8000caa6:	01790493          	addi	s1,s2,23
    8000caaa:	02e00713          	li	a4,46
    8000caae:	ff040a93          	addi	s5,s0,-16
    8000cab2:	ffc7fa13          	andi	s4,a5,-4
    8000cab6:	0a977e63          	bgeu	a4,s1,8000cb72 <_realloc_r+0xf4>
    8000caba:	80000737          	lui	a4,0x80000
    8000cabe:	98c1                	andi	s1,s1,-16
    8000cac0:	fff74713          	not	a4,a4
    8000cac4:	0a976b63          	bltu	a4,s1,8000cb7a <_realloc_r+0xfc>
    8000cac8:	0b24e963          	bltu	s1,s2,8000cb7a <_realloc_r+0xfc>
    8000cacc:	0c9a5163          	bge	s4,s1,8000cb8e <_realloc_r+0x110>
    8000cad0:	00003c17          	auipc	s8,0x3
    8000cad4:	c58c0c13          	addi	s8,s8,-936 # 8000f728 <__malloc_av_>
    8000cad8:	010c3603          	ld	a2,16(s8)
    8000cadc:	014a86b3          	add	a3,s5,s4
    8000cae0:	6698                	ld	a4,8(a3)
    8000cae2:	14d60263          	beq	a2,a3,8000cc26 <_realloc_r+0x1a8>
    8000cae6:	ffe77613          	andi	a2,a4,-2
    8000caea:	9636                	add	a2,a2,a3
    8000caec:	6610                	ld	a2,8(a2)
    8000caee:	8a05                	andi	a2,a2,1
    8000caf0:	e275                	bnez	a2,8000cbd4 <_realloc_r+0x156>
    8000caf2:	9b71                	andi	a4,a4,-4
    8000caf4:	00ea0633          	add	a2,s4,a4
    8000caf8:	08965663          	bge	a2,s1,8000cb84 <_realloc_r+0x106>
    8000cafc:	8b85                	andi	a5,a5,1
    8000cafe:	e38d                	bnez	a5,8000cb20 <_realloc_r+0xa2>
    8000cb00:	ff043b83          	ld	s7,-16(s0)
    8000cb04:	417a8bb3          	sub	s7,s5,s7
    8000cb08:	008bb783          	ld	a5,8(s7)
    8000cb0c:	9bf1                	andi	a5,a5,-4
    8000cb0e:	973e                	add	a4,a4,a5
    8000cb10:	01470b33          	add	s6,a4,s4
    8000cb14:	249b5163          	bge	s6,s1,8000cd56 <_realloc_r+0x2d8>
    8000cb18:	00fa0b33          	add	s6,s4,a5
    8000cb1c:	1c9b5663          	bge	s6,s1,8000cce8 <_realloc_r+0x26a>
    8000cb20:	85ca                	mv	a1,s2
    8000cb22:	854e                	mv	a0,s3
    8000cb24:	bcff80ef          	jal	ra,800056f2 <_malloc_r>
    8000cb28:	892a                	mv	s2,a0
    8000cb2a:	2e050563          	beqz	a0,8000ce14 <_realloc_r+0x396>
    8000cb2e:	ff843783          	ld	a5,-8(s0)
    8000cb32:	ff050713          	addi	a4,a0,-16
    8000cb36:	9bf9                	andi	a5,a5,-2
    8000cb38:	97d6                	add	a5,a5,s5
    8000cb3a:	1ae78263          	beq	a5,a4,8000ccde <_realloc_r+0x260>
    8000cb3e:	ff8a0613          	addi	a2,s4,-8
    8000cb42:	04800793          	li	a5,72
    8000cb46:	20c7e463          	bltu	a5,a2,8000cd4e <_realloc_r+0x2d0>
    8000cb4a:	02700713          	li	a4,39
    8000cb4e:	16c76b63          	bltu	a4,a2,8000ccc4 <_realloc_r+0x246>
    8000cb52:	87aa                	mv	a5,a0
    8000cb54:	8722                	mv	a4,s0
    8000cb56:	6314                	ld	a3,0(a4)
    8000cb58:	e394                	sd	a3,0(a5)
    8000cb5a:	6714                	ld	a3,8(a4)
    8000cb5c:	e794                	sd	a3,8(a5)
    8000cb5e:	6b18                	ld	a4,16(a4)
    8000cb60:	eb98                	sd	a4,16(a5)
    8000cb62:	854e                	mv	a0,s3
    8000cb64:	85a2                	mv	a1,s0
    8000cb66:	ef8fc0ef          	jal	ra,8000925e <_free_r>
    8000cb6a:	854e                	mv	a0,s3
    8000cb6c:	a4ef90ef          	jal	ra,80005dba <__malloc_unlock>
    8000cb70:	a0a9                	j	8000cbba <_realloc_r+0x13c>
    8000cb72:	02000493          	li	s1,32
    8000cb76:	f524fbe3          	bgeu	s1,s2,8000cacc <_realloc_r+0x4e>
    8000cb7a:	47b1                	li	a5,12
    8000cb7c:	00f9a023          	sw	a5,0(s3)
    8000cb80:	4901                	li	s2,0
    8000cb82:	a825                	j	8000cbba <_realloc_r+0x13c>
    8000cb84:	6e9c                	ld	a5,24(a3)
    8000cb86:	6a98                	ld	a4,16(a3)
    8000cb88:	8a32                	mv	s4,a2
    8000cb8a:	ef1c                	sd	a5,24(a4)
    8000cb8c:	eb98                	sd	a4,16(a5)
    8000cb8e:	008ab783          	ld	a5,8(s5)
    8000cb92:	409a06b3          	sub	a3,s4,s1
    8000cb96:	467d                	li	a2,31
    8000cb98:	8b85                	andi	a5,a5,1
    8000cb9a:	014a8733          	add	a4,s5,s4
    8000cb9e:	06d66363          	bltu	a2,a3,8000cc04 <_realloc_r+0x186>
    8000cba2:	0147e7b3          	or	a5,a5,s4
    8000cba6:	00fab423          	sd	a5,8(s5)
    8000cbaa:	671c                	ld	a5,8(a4)
    8000cbac:	0017e793          	ori	a5,a5,1
    8000cbb0:	e71c                	sd	a5,8(a4)
    8000cbb2:	854e                	mv	a0,s3
    8000cbb4:	a06f90ef          	jal	ra,80005dba <__malloc_unlock>
    8000cbb8:	8922                	mv	s2,s0
    8000cbba:	60a6                	ld	ra,72(sp)
    8000cbbc:	6406                	ld	s0,64(sp)
    8000cbbe:	74e2                	ld	s1,56(sp)
    8000cbc0:	79a2                	ld	s3,40(sp)
    8000cbc2:	7a02                	ld	s4,32(sp)
    8000cbc4:	6ae2                	ld	s5,24(sp)
    8000cbc6:	6b42                	ld	s6,16(sp)
    8000cbc8:	6ba2                	ld	s7,8(sp)
    8000cbca:	6c02                	ld	s8,0(sp)
    8000cbcc:	854a                	mv	a0,s2
    8000cbce:	7942                	ld	s2,48(sp)
    8000cbd0:	6161                	addi	sp,sp,80
    8000cbd2:	8082                	ret
    8000cbd4:	8b85                	andi	a5,a5,1
    8000cbd6:	f7a9                	bnez	a5,8000cb20 <_realloc_r+0xa2>
    8000cbd8:	ff043b83          	ld	s7,-16(s0)
    8000cbdc:	417a8bb3          	sub	s7,s5,s7
    8000cbe0:	008bb783          	ld	a5,8(s7)
    8000cbe4:	9bf1                	andi	a5,a5,-4
    8000cbe6:	bf0d                	j	8000cb18 <_realloc_r+0x9a>
    8000cbe8:	6406                	ld	s0,64(sp)
    8000cbea:	60a6                	ld	ra,72(sp)
    8000cbec:	74e2                	ld	s1,56(sp)
    8000cbee:	7942                	ld	s2,48(sp)
    8000cbf0:	79a2                	ld	s3,40(sp)
    8000cbf2:	7a02                	ld	s4,32(sp)
    8000cbf4:	6ae2                	ld	s5,24(sp)
    8000cbf6:	6b42                	ld	s6,16(sp)
    8000cbf8:	6ba2                	ld	s7,8(sp)
    8000cbfa:	6c02                	ld	s8,0(sp)
    8000cbfc:	85b2                	mv	a1,a2
    8000cbfe:	6161                	addi	sp,sp,80
    8000cc00:	af3f806f          	j	800056f2 <_malloc_r>
    8000cc04:	8fc5                	or	a5,a5,s1
    8000cc06:	00fab423          	sd	a5,8(s5)
    8000cc0a:	009a85b3          	add	a1,s5,s1
    8000cc0e:	0016e693          	ori	a3,a3,1
    8000cc12:	e594                	sd	a3,8(a1)
    8000cc14:	671c                	ld	a5,8(a4)
    8000cc16:	05c1                	addi	a1,a1,16
    8000cc18:	854e                	mv	a0,s3
    8000cc1a:	0017e793          	ori	a5,a5,1
    8000cc1e:	e71c                	sd	a5,8(a4)
    8000cc20:	e3efc0ef          	jal	ra,8000925e <_free_r>
    8000cc24:	b779                	j	8000cbb2 <_realloc_r+0x134>
    8000cc26:	9b71                	andi	a4,a4,-4
    8000cc28:	014706b3          	add	a3,a4,s4
    8000cc2c:	02048613          	addi	a2,s1,32
    8000cc30:	1ac6da63          	bge	a3,a2,8000cde4 <_realloc_r+0x366>
    8000cc34:	8b85                	andi	a5,a5,1
    8000cc36:	ee0795e3          	bnez	a5,8000cb20 <_realloc_r+0xa2>
    8000cc3a:	ff043b83          	ld	s7,-16(s0)
    8000cc3e:	417a8bb3          	sub	s7,s5,s7
    8000cc42:	008bb783          	ld	a5,8(s7)
    8000cc46:	9bf1                	andi	a5,a5,-4
    8000cc48:	973e                	add	a4,a4,a5
    8000cc4a:	01470b33          	add	s6,a4,s4
    8000cc4e:	eccb45e3          	blt	s6,a2,8000cb18 <_realloc_r+0x9a>
    8000cc52:	018bb783          	ld	a5,24(s7)
    8000cc56:	010bb703          	ld	a4,16(s7)
    8000cc5a:	ff8a0613          	addi	a2,s4,-8
    8000cc5e:	04800693          	li	a3,72
    8000cc62:	ef1c                	sd	a5,24(a4)
    8000cc64:	eb98                	sd	a4,16(a5)
    8000cc66:	010b8913          	addi	s2,s7,16
    8000cc6a:	1cc6e363          	bltu	a3,a2,8000ce30 <_realloc_r+0x3b2>
    8000cc6e:	02700713          	li	a4,39
    8000cc72:	87ca                	mv	a5,s2
    8000cc74:	00c77f63          	bgeu	a4,a2,8000cc92 <_realloc_r+0x214>
    8000cc78:	6018                	ld	a4,0(s0)
    8000cc7a:	03700793          	li	a5,55
    8000cc7e:	00ebb823          	sd	a4,16(s7)
    8000cc82:	6418                	ld	a4,8(s0)
    8000cc84:	00ebbc23          	sd	a4,24(s7)
    8000cc88:	1ac7e963          	bltu	a5,a2,8000ce3a <_realloc_r+0x3bc>
    8000cc8c:	0441                	addi	s0,s0,16
    8000cc8e:	020b8793          	addi	a5,s7,32
    8000cc92:	6018                	ld	a4,0(s0)
    8000cc94:	e398                	sd	a4,0(a5)
    8000cc96:	6418                	ld	a4,8(s0)
    8000cc98:	e798                	sd	a4,8(a5)
    8000cc9a:	6818                	ld	a4,16(s0)
    8000cc9c:	eb98                	sd	a4,16(a5)
    8000cc9e:	009b8733          	add	a4,s7,s1
    8000cca2:	409b07b3          	sub	a5,s6,s1
    8000cca6:	00ec3823          	sd	a4,16(s8)
    8000ccaa:	0017e793          	ori	a5,a5,1
    8000ccae:	e71c                	sd	a5,8(a4)
    8000ccb0:	008bb783          	ld	a5,8(s7)
    8000ccb4:	854e                	mv	a0,s3
    8000ccb6:	8b85                	andi	a5,a5,1
    8000ccb8:	8fc5                	or	a5,a5,s1
    8000ccba:	00fbb423          	sd	a5,8(s7)
    8000ccbe:	8fcf90ef          	jal	ra,80005dba <__malloc_unlock>
    8000ccc2:	bde5                	j	8000cbba <_realloc_r+0x13c>
    8000ccc4:	6014                	ld	a3,0(s0)
    8000ccc6:	03700713          	li	a4,55
    8000ccca:	e114                	sd	a3,0(a0)
    8000cccc:	6414                	ld	a3,8(s0)
    8000ccce:	e514                	sd	a3,8(a0)
    8000ccd0:	0ec76f63          	bltu	a4,a2,8000cdce <_realloc_r+0x350>
    8000ccd4:	01040713          	addi	a4,s0,16
    8000ccd8:	01050793          	addi	a5,a0,16
    8000ccdc:	bdad                	j	8000cb56 <_realloc_r+0xd8>
    8000ccde:	ff853783          	ld	a5,-8(a0)
    8000cce2:	9bf1                	andi	a5,a5,-4
    8000cce4:	9a3e                	add	s4,s4,a5
    8000cce6:	b565                	j	8000cb8e <_realloc_r+0x110>
    8000cce8:	018bb783          	ld	a5,24(s7)
    8000ccec:	010bb703          	ld	a4,16(s7)
    8000ccf0:	ff8a0613          	addi	a2,s4,-8
    8000ccf4:	04800693          	li	a3,72
    8000ccf8:	ef1c                	sd	a5,24(a4)
    8000ccfa:	eb98                	sd	a4,16(a5)
    8000ccfc:	010b8913          	addi	s2,s7,16
    8000cd00:	0cc6e263          	bltu	a3,a2,8000cdc4 <_realloc_r+0x346>
    8000cd04:	02700713          	li	a4,39
    8000cd08:	87ca                	mv	a5,s2
    8000cd0a:	02c77863          	bgeu	a4,a2,8000cd3a <_realloc_r+0x2bc>
    8000cd0e:	6018                	ld	a4,0(s0)
    8000cd10:	03700793          	li	a5,55
    8000cd14:	00ebb823          	sd	a4,16(s7)
    8000cd18:	6418                	ld	a4,8(s0)
    8000cd1a:	00ebbc23          	sd	a4,24(s7)
    8000cd1e:	0ec7f763          	bgeu	a5,a2,8000ce0c <_realloc_r+0x38e>
    8000cd22:	681c                	ld	a5,16(s0)
    8000cd24:	02fbb023          	sd	a5,32(s7)
    8000cd28:	6c1c                	ld	a5,24(s0)
    8000cd2a:	02fbb423          	sd	a5,40(s7)
    8000cd2e:	06d60f63          	beq	a2,a3,8000cdac <_realloc_r+0x32e>
    8000cd32:	02040413          	addi	s0,s0,32
    8000cd36:	030b8793          	addi	a5,s7,48
    8000cd3a:	6018                	ld	a4,0(s0)
    8000cd3c:	e398                	sd	a4,0(a5)
    8000cd3e:	6418                	ld	a4,8(s0)
    8000cd40:	e798                	sd	a4,8(a5)
    8000cd42:	6818                	ld	a4,16(s0)
    8000cd44:	eb98                	sd	a4,16(a5)
    8000cd46:	844a                	mv	s0,s2
    8000cd48:	8a5a                	mv	s4,s6
    8000cd4a:	8ade                	mv	s5,s7
    8000cd4c:	b589                	j	8000cb8e <_realloc_r+0x110>
    8000cd4e:	85a2                	mv	a1,s0
    8000cd50:	f91f80ef          	jal	ra,80005ce0 <memmove>
    8000cd54:	b539                	j	8000cb62 <_realloc_r+0xe4>
    8000cd56:	6e9c                	ld	a5,24(a3)
    8000cd58:	6a98                	ld	a4,16(a3)
    8000cd5a:	ff8a0613          	addi	a2,s4,-8
    8000cd5e:	04800693          	li	a3,72
    8000cd62:	ef1c                	sd	a5,24(a4)
    8000cd64:	eb98                	sd	a4,16(a5)
    8000cd66:	010bb703          	ld	a4,16(s7)
    8000cd6a:	018bb783          	ld	a5,24(s7)
    8000cd6e:	010b8913          	addi	s2,s7,16
    8000cd72:	ef1c                	sd	a5,24(a4)
    8000cd74:	eb98                	sd	a4,16(a5)
    8000cd76:	04c6e763          	bltu	a3,a2,8000cdc4 <_realloc_r+0x346>
    8000cd7a:	02700713          	li	a4,39
    8000cd7e:	87ca                	mv	a5,s2
    8000cd80:	fac77de3          	bgeu	a4,a2,8000cd3a <_realloc_r+0x2bc>
    8000cd84:	6018                	ld	a4,0(s0)
    8000cd86:	03700793          	li	a5,55
    8000cd8a:	00ebb823          	sd	a4,16(s7)
    8000cd8e:	6418                	ld	a4,8(s0)
    8000cd90:	00ebbc23          	sd	a4,24(s7)
    8000cd94:	06c7fc63          	bgeu	a5,a2,8000ce0c <_realloc_r+0x38e>
    8000cd98:	6818                	ld	a4,16(s0)
    8000cd9a:	04800793          	li	a5,72
    8000cd9e:	02ebb023          	sd	a4,32(s7)
    8000cda2:	6c18                	ld	a4,24(s0)
    8000cda4:	02ebb423          	sd	a4,40(s7)
    8000cda8:	f8f615e3          	bne	a2,a5,8000cd32 <_realloc_r+0x2b4>
    8000cdac:	7018                	ld	a4,32(s0)
    8000cdae:	040b8793          	addi	a5,s7,64
    8000cdb2:	03040413          	addi	s0,s0,48
    8000cdb6:	02ebb823          	sd	a4,48(s7)
    8000cdba:	ff843703          	ld	a4,-8(s0)
    8000cdbe:	02ebbc23          	sd	a4,56(s7)
    8000cdc2:	bfa5                	j	8000cd3a <_realloc_r+0x2bc>
    8000cdc4:	85a2                	mv	a1,s0
    8000cdc6:	854a                	mv	a0,s2
    8000cdc8:	f19f80ef          	jal	ra,80005ce0 <memmove>
    8000cdcc:	bfad                	j	8000cd46 <_realloc_r+0x2c8>
    8000cdce:	6818                	ld	a4,16(s0)
    8000cdd0:	e918                	sd	a4,16(a0)
    8000cdd2:	6c18                	ld	a4,24(s0)
    8000cdd4:	ed18                	sd	a4,24(a0)
    8000cdd6:	04f60463          	beq	a2,a5,8000ce1e <_realloc_r+0x3a0>
    8000cdda:	02040713          	addi	a4,s0,32
    8000cdde:	02050793          	addi	a5,a0,32
    8000cde2:	bb95                	j	8000cb56 <_realloc_r+0xd8>
    8000cde4:	9aa6                	add	s5,s5,s1
    8000cde6:	409687b3          	sub	a5,a3,s1
    8000cdea:	015c3823          	sd	s5,16(s8)
    8000cdee:	0017e793          	ori	a5,a5,1
    8000cdf2:	00fab423          	sd	a5,8(s5)
    8000cdf6:	ff843783          	ld	a5,-8(s0)
    8000cdfa:	854e                	mv	a0,s3
    8000cdfc:	8922                	mv	s2,s0
    8000cdfe:	8b85                	andi	a5,a5,1
    8000ce00:	8fc5                	or	a5,a5,s1
    8000ce02:	fef43c23          	sd	a5,-8(s0)
    8000ce06:	fb5f80ef          	jal	ra,80005dba <__malloc_unlock>
    8000ce0a:	bb45                	j	8000cbba <_realloc_r+0x13c>
    8000ce0c:	0441                	addi	s0,s0,16
    8000ce0e:	020b8793          	addi	a5,s7,32
    8000ce12:	b725                	j	8000cd3a <_realloc_r+0x2bc>
    8000ce14:	854e                	mv	a0,s3
    8000ce16:	fa5f80ef          	jal	ra,80005dba <__malloc_unlock>
    8000ce1a:	4901                	li	s2,0
    8000ce1c:	bb79                	j	8000cbba <_realloc_r+0x13c>
    8000ce1e:	7014                	ld	a3,32(s0)
    8000ce20:	03040713          	addi	a4,s0,48
    8000ce24:	03050793          	addi	a5,a0,48
    8000ce28:	f114                	sd	a3,32(a0)
    8000ce2a:	7414                	ld	a3,40(s0)
    8000ce2c:	f514                	sd	a3,40(a0)
    8000ce2e:	b325                	j	8000cb56 <_realloc_r+0xd8>
    8000ce30:	85a2                	mv	a1,s0
    8000ce32:	854a                	mv	a0,s2
    8000ce34:	eadf80ef          	jal	ra,80005ce0 <memmove>
    8000ce38:	b59d                	j	8000cc9e <_realloc_r+0x220>
    8000ce3a:	681c                	ld	a5,16(s0)
    8000ce3c:	02fbb023          	sd	a5,32(s7)
    8000ce40:	6c1c                	ld	a5,24(s0)
    8000ce42:	02fbb423          	sd	a5,40(s7)
    8000ce46:	00d60763          	beq	a2,a3,8000ce54 <_realloc_r+0x3d6>
    8000ce4a:	02040413          	addi	s0,s0,32
    8000ce4e:	030b8793          	addi	a5,s7,48
    8000ce52:	b581                	j	8000cc92 <_realloc_r+0x214>
    8000ce54:	7018                	ld	a4,32(s0)
    8000ce56:	040b8793          	addi	a5,s7,64
    8000ce5a:	03040413          	addi	s0,s0,48
    8000ce5e:	02ebb823          	sd	a4,48(s7)
    8000ce62:	ff843703          	ld	a4,-8(s0)
    8000ce66:	02ebbc23          	sd	a4,56(s7)
    8000ce6a:	b525                	j	8000cc92 <_realloc_r+0x214>

Disassembly of section .text.cleanup_glue:

000000008000ce6c <cleanup_glue>:
    8000ce6c:	7179                	addi	sp,sp,-48
    8000ce6e:	e84a                	sd	s2,16(sp)
    8000ce70:	0005b903          	ld	s2,0(a1)
    8000ce74:	f022                	sd	s0,32(sp)
    8000ce76:	ec26                	sd	s1,24(sp)
    8000ce78:	f406                	sd	ra,40(sp)
    8000ce7a:	e44e                	sd	s3,8(sp)
    8000ce7c:	e052                	sd	s4,0(sp)
    8000ce7e:	842e                	mv	s0,a1
    8000ce80:	84aa                	mv	s1,a0
    8000ce82:	02090b63          	beqz	s2,8000ceb8 <cleanup_glue+0x4c>
    8000ce86:	00093983          	ld	s3,0(s2)
    8000ce8a:	02098363          	beqz	s3,8000ceb0 <cleanup_glue+0x44>
    8000ce8e:	0009ba03          	ld	s4,0(s3)
    8000ce92:	000a0b63          	beqz	s4,8000cea8 <cleanup_glue+0x3c>
    8000ce96:	000a3583          	ld	a1,0(s4)
    8000ce9a:	c199                	beqz	a1,8000cea0 <cleanup_glue+0x34>
    8000ce9c:	fd1ff0ef          	jal	ra,8000ce6c <cleanup_glue>
    8000cea0:	85d2                	mv	a1,s4
    8000cea2:	8526                	mv	a0,s1
    8000cea4:	bbafc0ef          	jal	ra,8000925e <_free_r>
    8000cea8:	85ce                	mv	a1,s3
    8000ceaa:	8526                	mv	a0,s1
    8000ceac:	bb2fc0ef          	jal	ra,8000925e <_free_r>
    8000ceb0:	85ca                	mv	a1,s2
    8000ceb2:	8526                	mv	a0,s1
    8000ceb4:	baafc0ef          	jal	ra,8000925e <_free_r>
    8000ceb8:	85a2                	mv	a1,s0
    8000ceba:	7402                	ld	s0,32(sp)
    8000cebc:	70a2                	ld	ra,40(sp)
    8000cebe:	6942                	ld	s2,16(sp)
    8000cec0:	69a2                	ld	s3,8(sp)
    8000cec2:	6a02                	ld	s4,0(sp)
    8000cec4:	8526                	mv	a0,s1
    8000cec6:	64e2                	ld	s1,24(sp)
    8000cec8:	6145                	addi	sp,sp,48
    8000ceca:	b94fc06f          	j	8000925e <_free_r>

Disassembly of section .text._reclaim_reent:

000000008000cece <_reclaim_reent>:
    8000cece:	8a01b783          	ld	a5,-1888(gp) # 80010180 <_impure_ptr>
    8000ced2:	0aa78563          	beq	a5,a0,8000cf7c <_reclaim_reent+0xae>
    8000ced6:	7d2c                	ld	a1,120(a0)
    8000ced8:	7179                	addi	sp,sp,-48
    8000ceda:	ec26                	sd	s1,24(sp)
    8000cedc:	f406                	sd	ra,40(sp)
    8000cede:	f022                	sd	s0,32(sp)
    8000cee0:	e84a                	sd	s2,16(sp)
    8000cee2:	e44e                	sd	s3,8(sp)
    8000cee4:	84aa                	mv	s1,a0
    8000cee6:	c58d                	beqz	a1,8000cf10 <_reclaim_reent+0x42>
    8000cee8:	4901                	li	s2,0
    8000ceea:	20000993          	li	s3,512
    8000ceee:	012587b3          	add	a5,a1,s2
    8000cef2:	6380                	ld	s0,0(a5)
    8000cef4:	c801                	beqz	s0,8000cf04 <_reclaim_reent+0x36>
    8000cef6:	85a2                	mv	a1,s0
    8000cef8:	6000                	ld	s0,0(s0)
    8000cefa:	8526                	mv	a0,s1
    8000cefc:	b62fc0ef          	jal	ra,8000925e <_free_r>
    8000cf00:	f87d                	bnez	s0,8000cef6 <_reclaim_reent+0x28>
    8000cf02:	7cac                	ld	a1,120(s1)
    8000cf04:	0921                	addi	s2,s2,8
    8000cf06:	ff3914e3          	bne	s2,s3,8000ceee <_reclaim_reent+0x20>
    8000cf0a:	8526                	mv	a0,s1
    8000cf0c:	b52fc0ef          	jal	ra,8000925e <_free_r>
    8000cf10:	70ac                	ld	a1,96(s1)
    8000cf12:	c581                	beqz	a1,8000cf1a <_reclaim_reent+0x4c>
    8000cf14:	8526                	mv	a0,s1
    8000cf16:	b48fc0ef          	jal	ra,8000925e <_free_r>
    8000cf1a:	1f84b403          	ld	s0,504(s1)
    8000cf1e:	cc01                	beqz	s0,8000cf36 <_reclaim_reent+0x68>
    8000cf20:	20048913          	addi	s2,s1,512
    8000cf24:	01240963          	beq	s0,s2,8000cf36 <_reclaim_reent+0x68>
    8000cf28:	85a2                	mv	a1,s0
    8000cf2a:	6000                	ld	s0,0(s0)
    8000cf2c:	8526                	mv	a0,s1
    8000cf2e:	b30fc0ef          	jal	ra,8000925e <_free_r>
    8000cf32:	fe891be3          	bne	s2,s0,8000cf28 <_reclaim_reent+0x5a>
    8000cf36:	64cc                	ld	a1,136(s1)
    8000cf38:	c581                	beqz	a1,8000cf40 <_reclaim_reent+0x72>
    8000cf3a:	8526                	mv	a0,s1
    8000cf3c:	b22fc0ef          	jal	ra,8000925e <_free_r>
    8000cf40:	48bc                	lw	a5,80(s1)
    8000cf42:	c795                	beqz	a5,8000cf6e <_reclaim_reent+0xa0>
    8000cf44:	6cbc                	ld	a5,88(s1)
    8000cf46:	8526                	mv	a0,s1
    8000cf48:	9782                	jalr	a5
    8000cf4a:	5204b403          	ld	s0,1312(s1)
    8000cf4e:	c005                	beqz	s0,8000cf6e <_reclaim_reent+0xa0>
    8000cf50:	600c                	ld	a1,0(s0)
    8000cf52:	c581                	beqz	a1,8000cf5a <_reclaim_reent+0x8c>
    8000cf54:	8526                	mv	a0,s1
    8000cf56:	f17ff0ef          	jal	ra,8000ce6c <cleanup_glue>
    8000cf5a:	85a2                	mv	a1,s0
    8000cf5c:	7402                	ld	s0,32(sp)
    8000cf5e:	70a2                	ld	ra,40(sp)
    8000cf60:	6942                	ld	s2,16(sp)
    8000cf62:	69a2                	ld	s3,8(sp)
    8000cf64:	8526                	mv	a0,s1
    8000cf66:	64e2                	ld	s1,24(sp)
    8000cf68:	6145                	addi	sp,sp,48
    8000cf6a:	af4fc06f          	j	8000925e <_free_r>
    8000cf6e:	70a2                	ld	ra,40(sp)
    8000cf70:	7402                	ld	s0,32(sp)
    8000cf72:	64e2                	ld	s1,24(sp)
    8000cf74:	6942                	ld	s2,16(sp)
    8000cf76:	69a2                	ld	s3,8(sp)
    8000cf78:	6145                	addi	sp,sp,48
    8000cf7a:	8082                	ret
    8000cf7c:	8082                	ret

Disassembly of section .text.frexp:

000000008000cf7e <frexp>:
    8000cf7e:	e20507d3          	fmv.x.d	a5,fa0
    8000cf82:	80000637          	lui	a2,0x80000
    8000cf86:	fff64613          	not	a2,a2
    8000cf8a:	4207d693          	srai	a3,a5,0x20
    8000cf8e:	00c6f733          	and	a4,a3,a2
    8000cf92:	00052023          	sw	zero,0(a0)
    8000cf96:	7ff005b7          	lui	a1,0x7ff00
    8000cf9a:	02b77f63          	bgeu	a4,a1,8000cfd8 <frexp+0x5a>
    8000cf9e:	00f765b3          	or	a1,a4,a5
    8000cfa2:	2581                	sext.w	a1,a1
    8000cfa4:	c995                	beqz	a1,8000cfd8 <frexp+0x5a>
    8000cfa6:	7ff005b7          	lui	a1,0x7ff00
    8000cfaa:	8df5                	and	a1,a1,a3
    8000cfac:	c98d                	beqz	a1,8000cfde <frexp+0x60>
    8000cfae:	2681                	sext.w	a3,a3
    8000cfb0:	2701                	sext.w	a4,a4
    8000cfb2:	4581                	li	a1,0
    8000cfb4:	80100637          	lui	a2,0x80100
    8000cfb8:	167d                	addi	a2,a2,-1 # ffffffff800fffff <_end+0xfffffffefd0eedbf>
    8000cfba:	8ef1                	and	a3,a3,a2
    8000cfbc:	3fe00637          	lui	a2,0x3fe00
    8000cfc0:	8ed1                	or	a3,a3,a2
    8000cfc2:	4147571b          	sraiw	a4,a4,0x14
    8000cfc6:	567d                	li	a2,-1
    8000cfc8:	c027071b          	addiw	a4,a4,-1022 # 7ffffc02 <__malloc_len+0x7cfffc02>
    8000cfcc:	9201                	srli	a2,a2,0x20
    8000cfce:	9f2d                	addw	a4,a4,a1
    8000cfd0:	1682                	slli	a3,a3,0x20
    8000cfd2:	8ff1                	and	a5,a5,a2
    8000cfd4:	c118                	sw	a4,0(a0)
    8000cfd6:	8fd5                	or	a5,a5,a3
    8000cfd8:	f2078553          	fmv.d.x	fa0,a5
    8000cfdc:	8082                	ret
    8000cfde:	00003717          	auipc	a4,0x3
    8000cfe2:	16273787          	fld	fa5,354(a4) # 80010140 <__global_locale+0x208>
    8000cfe6:	12f577d3          	fmul.d	fa5,fa0,fa5
    8000cfea:	fca00593          	li	a1,-54
    8000cfee:	e20787d3          	fmv.x.d	a5,fa5
    8000cff2:	4207d713          	srai	a4,a5,0x20
    8000cff6:	86ba                	mv	a3,a4
    8000cff8:	8f71                	and	a4,a4,a2
    8000cffa:	bf6d                	j	8000cfb4 <frexp+0x36>

Disassembly of section .text.__sread:

000000008000cffc <__sread>:
    8000cffc:	1141                	addi	sp,sp,-16
    8000cffe:	e022                	sd	s0,0(sp)
    8000d000:	842e                	mv	s0,a1
    8000d002:	01259583          	lh	a1,18(a1) # 7ff00012 <__malloc_len+0x7cf00012>
    8000d006:	e406                	sd	ra,8(sp)
    8000d008:	48e000ef          	jal	ra,8000d496 <_read_r>
    8000d00c:	00054963          	bltz	a0,8000d01e <__sread+0x22>
    8000d010:	685c                	ld	a5,144(s0)
    8000d012:	60a2                	ld	ra,8(sp)
    8000d014:	97aa                	add	a5,a5,a0
    8000d016:	e85c                	sd	a5,144(s0)
    8000d018:	6402                	ld	s0,0(sp)
    8000d01a:	0141                	addi	sp,sp,16
    8000d01c:	8082                	ret
    8000d01e:	01045783          	lhu	a5,16(s0)
    8000d022:	777d                	lui	a4,0xfffff
    8000d024:	177d                	addi	a4,a4,-1 # ffffffffffffefff <_end+0xffffffff7cfeddbf>
    8000d026:	8ff9                	and	a5,a5,a4
    8000d028:	60a2                	ld	ra,8(sp)
    8000d02a:	00f41823          	sh	a5,16(s0)
    8000d02e:	6402                	ld	s0,0(sp)
    8000d030:	0141                	addi	sp,sp,16
    8000d032:	8082                	ret

Disassembly of section .text.__seofread:

000000008000d034 <__seofread>:
    8000d034:	4501                	li	a0,0
    8000d036:	8082                	ret

Disassembly of section .text.__swrite:

000000008000d038 <__swrite>:
    8000d038:	01059783          	lh	a5,16(a1)
    8000d03c:	7179                	addi	sp,sp,-48
    8000d03e:	f022                	sd	s0,32(sp)
    8000d040:	ec26                	sd	s1,24(sp)
    8000d042:	e84a                	sd	s2,16(sp)
    8000d044:	e44e                	sd	s3,8(sp)
    8000d046:	f406                	sd	ra,40(sp)
    8000d048:	1007f713          	andi	a4,a5,256
    8000d04c:	842e                	mv	s0,a1
    8000d04e:	84aa                	mv	s1,a0
    8000d050:	8932                	mv	s2,a2
    8000d052:	89b6                	mv	s3,a3
    8000d054:	e31d                	bnez	a4,8000d07a <__swrite+0x42>
    8000d056:	777d                	lui	a4,0xfffff
    8000d058:	177d                	addi	a4,a4,-1 # ffffffffffffefff <_end+0xffffffff7cfeddbf>
    8000d05a:	8ff9                	and	a5,a5,a4
    8000d05c:	01241583          	lh	a1,18(s0)
    8000d060:	00f41823          	sh	a5,16(s0)
    8000d064:	7402                	ld	s0,32(sp)
    8000d066:	70a2                	ld	ra,40(sp)
    8000d068:	86ce                	mv	a3,s3
    8000d06a:	864a                	mv	a2,s2
    8000d06c:	69a2                	ld	s3,8(sp)
    8000d06e:	6942                	ld	s2,16(sp)
    8000d070:	8526                	mv	a0,s1
    8000d072:	64e2                	ld	s1,24(sp)
    8000d074:	6145                	addi	sp,sp,48
    8000d076:	1b80006f          	j	8000d22e <_write_r>
    8000d07a:	01259583          	lh	a1,18(a1)
    8000d07e:	4689                	li	a3,2
    8000d080:	4601                	li	a2,0
    8000d082:	3de000ef          	jal	ra,8000d460 <_lseek_r>
    8000d086:	01041783          	lh	a5,16(s0)
    8000d08a:	b7f1                	j	8000d056 <__swrite+0x1e>

Disassembly of section .text.__sseek:

000000008000d08c <__sseek>:
    8000d08c:	1141                	addi	sp,sp,-16
    8000d08e:	e022                	sd	s0,0(sp)
    8000d090:	842e                	mv	s0,a1
    8000d092:	01259583          	lh	a1,18(a1)
    8000d096:	e406                	sd	ra,8(sp)
    8000d098:	3c8000ef          	jal	ra,8000d460 <_lseek_r>
    8000d09c:	57fd                	li	a5,-1
    8000d09e:	02f50163          	beq	a0,a5,8000d0c0 <__sseek+0x34>
    8000d0a2:	01045783          	lhu	a5,16(s0)
    8000d0a6:	6705                	lui	a4,0x1
    8000d0a8:	60a2                	ld	ra,8(sp)
    8000d0aa:	8fd9                	or	a5,a5,a4
    8000d0ac:	0107979b          	slliw	a5,a5,0x10
    8000d0b0:	4107d79b          	sraiw	a5,a5,0x10
    8000d0b4:	e848                	sd	a0,144(s0)
    8000d0b6:	00f41823          	sh	a5,16(s0)
    8000d0ba:	6402                	ld	s0,0(sp)
    8000d0bc:	0141                	addi	sp,sp,16
    8000d0be:	8082                	ret
    8000d0c0:	01045783          	lhu	a5,16(s0)
    8000d0c4:	777d                	lui	a4,0xfffff
    8000d0c6:	177d                	addi	a4,a4,-1 # ffffffffffffefff <_end+0xffffffff7cfeddbf>
    8000d0c8:	8ff9                	and	a5,a5,a4
    8000d0ca:	0107979b          	slliw	a5,a5,0x10
    8000d0ce:	4107d79b          	sraiw	a5,a5,0x10
    8000d0d2:	60a2                	ld	ra,8(sp)
    8000d0d4:	00f41823          	sh	a5,16(s0)
    8000d0d8:	6402                	ld	s0,0(sp)
    8000d0da:	0141                	addi	sp,sp,16
    8000d0dc:	8082                	ret

Disassembly of section .text.__sclose:

000000008000d0de <__sclose>:
    8000d0de:	01259583          	lh	a1,18(a1)
    8000d0e2:	22e0006f          	j	8000d310 <_close_r>

Disassembly of section .text.strncpy:

000000008000d0e6 <strncpy>:
    8000d0e6:	00b567b3          	or	a5,a0,a1
    8000d0ea:	8b9d                	andi	a5,a5,7
    8000d0ec:	872a                	mv	a4,a0
    8000d0ee:	ebb9                	bnez	a5,8000d144 <strncpy+0x5e>
    8000d0f0:	479d                	li	a5,7
    8000d0f2:	04c7f963          	bgeu	a5,a2,8000d144 <strncpy+0x5e>
    8000d0f6:	00003317          	auipc	t1,0x3
    8000d0fa:	02a33303          	ld	t1,42(t1) # 80010120 <__global_locale+0x1e8>
    8000d0fe:	00003897          	auipc	a7,0x3
    8000d102:	02a8b883          	ld	a7,42(a7) # 80010128 <__global_locale+0x1f0>
    8000d106:	4e1d                	li	t3,7
    8000d108:	a039                	j	8000d116 <strncpy+0x30>
    8000d10a:	e314                	sd	a3,0(a4)
    8000d10c:	1661                	addi	a2,a2,-8 # 3fdffff8 <__malloc_len+0x3cdffff8>
    8000d10e:	0721                	addi	a4,a4,8
    8000d110:	05a1                	addi	a1,a1,8
    8000d112:	02ce7963          	bgeu	t3,a2,8000d144 <strncpy+0x5e>
    8000d116:	6194                	ld	a3,0(a1)
    8000d118:	006687b3          	add	a5,a3,t1
    8000d11c:	fff6c813          	not	a6,a3
    8000d120:	0107f7b3          	and	a5,a5,a6
    8000d124:	0117f7b3          	and	a5,a5,a7
    8000d128:	d3ed                	beqz	a5,8000d10a <strncpy+0x24>
    8000d12a:	0585                	addi	a1,a1,1
    8000d12c:	00170793          	addi	a5,a4,1
    8000d130:	ce11                	beqz	a2,8000d14c <strncpy+0x66>
    8000d132:	fff5c683          	lbu	a3,-1(a1)
    8000d136:	fff60813          	addi	a6,a2,-1
    8000d13a:	fed78fa3          	sb	a3,-1(a5)
    8000d13e:	ca81                	beqz	a3,8000d14e <strncpy+0x68>
    8000d140:	873e                	mv	a4,a5
    8000d142:	8642                	mv	a2,a6
    8000d144:	0585                	addi	a1,a1,1
    8000d146:	00170793          	addi	a5,a4,1
    8000d14a:	f665                	bnez	a2,8000d132 <strncpy+0x4c>
    8000d14c:	8082                	ret
    8000d14e:	9732                	add	a4,a4,a2
    8000d150:	00080863          	beqz	a6,8000d160 <strncpy+0x7a>
    8000d154:	0785                	addi	a5,a5,1
    8000d156:	fe078fa3          	sb	zero,-1(a5)
    8000d15a:	fee79de3          	bne	a5,a4,8000d154 <strncpy+0x6e>
    8000d15e:	8082                	ret
    8000d160:	8082                	ret

Disassembly of section .text._wcrtomb_r:

000000008000d162 <_wcrtomb_r>:
    8000d162:	7179                	addi	sp,sp,-48
    8000d164:	f022                	sd	s0,32(sp)
    8000d166:	ec26                	sd	s1,24(sp)
    8000d168:	f406                	sd	ra,40(sp)
    8000d16a:	842a                	mv	s0,a0
    8000d16c:	84b6                	mv	s1,a3
    8000d16e:	00003797          	auipc	a5,0x3
    8000d172:	eaa7b783          	ld	a5,-342(a5) # 80010018 <__global_locale+0xe0>
    8000d176:	c991                	beqz	a1,8000d18a <_wcrtomb_r+0x28>
    8000d178:	9782                	jalr	a5
    8000d17a:	57fd                	li	a5,-1
    8000d17c:	00f50d63          	beq	a0,a5,8000d196 <_wcrtomb_r+0x34>
    8000d180:	70a2                	ld	ra,40(sp)
    8000d182:	7402                	ld	s0,32(sp)
    8000d184:	64e2                	ld	s1,24(sp)
    8000d186:	6145                	addi	sp,sp,48
    8000d188:	8082                	ret
    8000d18a:	4601                	li	a2,0
    8000d18c:	858a                	mv	a1,sp
    8000d18e:	9782                	jalr	a5
    8000d190:	57fd                	li	a5,-1
    8000d192:	fef517e3          	bne	a0,a5,8000d180 <_wcrtomb_r+0x1e>
    8000d196:	0004a023          	sw	zero,0(s1)
    8000d19a:	08a00793          	li	a5,138
    8000d19e:	70a2                	ld	ra,40(sp)
    8000d1a0:	c01c                	sw	a5,0(s0)
    8000d1a2:	7402                	ld	s0,32(sp)
    8000d1a4:	64e2                	ld	s1,24(sp)
    8000d1a6:	6145                	addi	sp,sp,48
    8000d1a8:	8082                	ret

Disassembly of section .text.wcrtomb:

000000008000d1aa <wcrtomb>:
    8000d1aa:	7179                	addi	sp,sp,-48
    8000d1ac:	f022                	sd	s0,32(sp)
    8000d1ae:	ec26                	sd	s1,24(sp)
    8000d1b0:	f406                	sd	ra,40(sp)
    8000d1b2:	8432                	mv	s0,a2
    8000d1b4:	8a01b483          	ld	s1,-1888(gp) # 80010180 <_impure_ptr>
    8000d1b8:	00003797          	auipc	a5,0x3
    8000d1bc:	e607b783          	ld	a5,-416(a5) # 80010018 <__global_locale+0xe0>
    8000d1c0:	cd11                	beqz	a0,8000d1dc <wcrtomb+0x32>
    8000d1c2:	862e                	mv	a2,a1
    8000d1c4:	86a2                	mv	a3,s0
    8000d1c6:	85aa                	mv	a1,a0
    8000d1c8:	8526                	mv	a0,s1
    8000d1ca:	9782                	jalr	a5
    8000d1cc:	57fd                	li	a5,-1
    8000d1ce:	00f50f63          	beq	a0,a5,8000d1ec <wcrtomb+0x42>
    8000d1d2:	70a2                	ld	ra,40(sp)
    8000d1d4:	7402                	ld	s0,32(sp)
    8000d1d6:	64e2                	ld	s1,24(sp)
    8000d1d8:	6145                	addi	sp,sp,48
    8000d1da:	8082                	ret
    8000d1dc:	86b2                	mv	a3,a2
    8000d1de:	858a                	mv	a1,sp
    8000d1e0:	4601                	li	a2,0
    8000d1e2:	8526                	mv	a0,s1
    8000d1e4:	9782                	jalr	a5
    8000d1e6:	57fd                	li	a5,-1
    8000d1e8:	fef515e3          	bne	a0,a5,8000d1d2 <wcrtomb+0x28>
    8000d1ec:	00042023          	sw	zero,0(s0)
    8000d1f0:	70a2                	ld	ra,40(sp)
    8000d1f2:	7402                	ld	s0,32(sp)
    8000d1f4:	08a00793          	li	a5,138
    8000d1f8:	c09c                	sw	a5,0(s1)
    8000d1fa:	64e2                	ld	s1,24(sp)
    8000d1fc:	6145                	addi	sp,sp,48
    8000d1fe:	8082                	ret

Disassembly of section .text._wctomb_r:

000000008000d200 <_wctomb_r>:
    8000d200:	00003797          	auipc	a5,0x3
    8000d204:	e187b783          	ld	a5,-488(a5) # 80010018 <__global_locale+0xe0>
    8000d208:	8782                	jr	a5

Disassembly of section .text.__ascii_wctomb:

000000008000d20a <__ascii_wctomb>:
    8000d20a:	0006079b          	sext.w	a5,a2
    8000d20e:	cd91                	beqz	a1,8000d22a <__ascii_wctomb+0x20>
    8000d210:	0ff00713          	li	a4,255
    8000d214:	00f76663          	bltu	a4,a5,8000d220 <__ascii_wctomb+0x16>
    8000d218:	00c58023          	sb	a2,0(a1)
    8000d21c:	4505                	li	a0,1
    8000d21e:	8082                	ret
    8000d220:	08a00793          	li	a5,138
    8000d224:	c11c                	sw	a5,0(a0)
    8000d226:	557d                	li	a0,-1
    8000d228:	8082                	ret
    8000d22a:	4501                	li	a0,0
    8000d22c:	8082                	ret

Disassembly of section .text._write_r:

000000008000d22e <_write_r>:
    8000d22e:	1141                	addi	sp,sp,-16
    8000d230:	872e                	mv	a4,a1
    8000d232:	e022                	sd	s0,0(sp)
    8000d234:	85b2                	mv	a1,a2
    8000d236:	842a                	mv	s0,a0
    8000d238:	8636                	mv	a2,a3
    8000d23a:	853a                	mv	a0,a4
    8000d23c:	8e01a423          	sw	zero,-1816(gp) # 800101c8 <errno>
    8000d240:	e406                	sd	ra,8(sp)
    8000d242:	3f0000ef          	jal	ra,8000d632 <_write>
    8000d246:	57fd                	li	a5,-1
    8000d248:	00f50663          	beq	a0,a5,8000d254 <_write_r+0x26>
    8000d24c:	60a2                	ld	ra,8(sp)
    8000d24e:	6402                	ld	s0,0(sp)
    8000d250:	0141                	addi	sp,sp,16
    8000d252:	8082                	ret
    8000d254:	8e81a783          	lw	a5,-1816(gp) # 800101c8 <errno>
    8000d258:	dbf5                	beqz	a5,8000d24c <_write_r+0x1e>
    8000d25a:	60a2                	ld	ra,8(sp)
    8000d25c:	c01c                	sw	a5,0(s0)
    8000d25e:	6402                	ld	s0,0(sp)
    8000d260:	0141                	addi	sp,sp,16
    8000d262:	8082                	ret

Disassembly of section .text._calloc_r:

000000008000d264 <_calloc_r>:
    8000d264:	02c5b7b3          	mulhu	a5,a1,a2
    8000d268:	1141                	addi	sp,sp,-16
    8000d26a:	e406                	sd	ra,8(sp)
    8000d26c:	e022                	sd	s0,0(sp)
    8000d26e:	02c585b3          	mul	a1,a1,a2
    8000d272:	efb5                	bnez	a5,8000d2ee <_calloc_r+0x8a>
    8000d274:	c7ef80ef          	jal	ra,800056f2 <_malloc_r>
    8000d278:	842a                	mv	s0,a0
    8000d27a:	cd35                	beqz	a0,8000d2f6 <_calloc_r+0x92>
    8000d27c:	ff853603          	ld	a2,-8(a0)
    8000d280:	04800713          	li	a4,72
    8000d284:	9a71                	andi	a2,a2,-4
    8000d286:	1661                	addi	a2,a2,-8
    8000d288:	04c76263          	bltu	a4,a2,8000d2cc <_calloc_r+0x68>
    8000d28c:	02700693          	li	a3,39
    8000d290:	87aa                	mv	a5,a0
    8000d292:	02c6f263          	bgeu	a3,a2,8000d2b6 <_calloc_r+0x52>
    8000d296:	00053023          	sd	zero,0(a0)
    8000d29a:	00053423          	sd	zero,8(a0)
    8000d29e:	03700793          	li	a5,55
    8000d2a2:	02c7fd63          	bgeu	a5,a2,8000d2dc <_calloc_r+0x78>
    8000d2a6:	00053823          	sd	zero,16(a0)
    8000d2aa:	00053c23          	sd	zero,24(a0)
    8000d2ae:	02050793          	addi	a5,a0,32
    8000d2b2:	04e60863          	beq	a2,a4,8000d302 <_calloc_r+0x9e>
    8000d2b6:	0007b023          	sd	zero,0(a5)
    8000d2ba:	0007b423          	sd	zero,8(a5)
    8000d2be:	0007b823          	sd	zero,16(a5)
    8000d2c2:	60a2                	ld	ra,8(sp)
    8000d2c4:	8522                	mv	a0,s0
    8000d2c6:	6402                	ld	s0,0(sp)
    8000d2c8:	0141                	addi	sp,sp,16
    8000d2ca:	8082                	ret
    8000d2cc:	4581                	li	a1,0
    8000d2ce:	e52f50ef          	jal	ra,80002920 <memset>
    8000d2d2:	60a2                	ld	ra,8(sp)
    8000d2d4:	8522                	mv	a0,s0
    8000d2d6:	6402                	ld	s0,0(sp)
    8000d2d8:	0141                	addi	sp,sp,16
    8000d2da:	8082                	ret
    8000d2dc:	01050793          	addi	a5,a0,16
    8000d2e0:	0007b023          	sd	zero,0(a5)
    8000d2e4:	0007b423          	sd	zero,8(a5)
    8000d2e8:	0007b823          	sd	zero,16(a5)
    8000d2ec:	bfd9                	j	8000d2c2 <_calloc_r+0x5e>
    8000d2ee:	052000ef          	jal	ra,8000d340 <__errno>
    8000d2f2:	47b1                	li	a5,12
    8000d2f4:	c11c                	sw	a5,0(a0)
    8000d2f6:	4401                	li	s0,0
    8000d2f8:	60a2                	ld	ra,8(sp)
    8000d2fa:	8522                	mv	a0,s0
    8000d2fc:	6402                	ld	s0,0(sp)
    8000d2fe:	0141                	addi	sp,sp,16
    8000d300:	8082                	ret
    8000d302:	02053023          	sd	zero,32(a0)
    8000d306:	03050793          	addi	a5,a0,48
    8000d30a:	02053423          	sd	zero,40(a0)
    8000d30e:	b765                	j	8000d2b6 <_calloc_r+0x52>

Disassembly of section .text._close_r:

000000008000d310 <_close_r>:
    8000d310:	1141                	addi	sp,sp,-16
    8000d312:	e022                	sd	s0,0(sp)
    8000d314:	842a                	mv	s0,a0
    8000d316:	852e                	mv	a0,a1
    8000d318:	8e01a423          	sw	zero,-1816(gp) # 800101c8 <errno>
    8000d31c:	e406                	sd	ra,8(sp)
    8000d31e:	1ae000ef          	jal	ra,8000d4cc <_close>
    8000d322:	57fd                	li	a5,-1
    8000d324:	00f50663          	beq	a0,a5,8000d330 <_close_r+0x20>
    8000d328:	60a2                	ld	ra,8(sp)
    8000d32a:	6402                	ld	s0,0(sp)
    8000d32c:	0141                	addi	sp,sp,16
    8000d32e:	8082                	ret
    8000d330:	8e81a783          	lw	a5,-1816(gp) # 800101c8 <errno>
    8000d334:	dbf5                	beqz	a5,8000d328 <_close_r+0x18>
    8000d336:	60a2                	ld	ra,8(sp)
    8000d338:	c01c                	sw	a5,0(s0)
    8000d33a:	6402                	ld	s0,0(sp)
    8000d33c:	0141                	addi	sp,sp,16
    8000d33e:	8082                	ret

Disassembly of section .text.__errno:

000000008000d340 <__errno>:
    8000d340:	8a01b503          	ld	a0,-1888(gp) # 80010180 <_impure_ptr>
    8000d344:	8082                	ret

Disassembly of section .text._fclose_r:

000000008000d346 <_fclose_r>:
    8000d346:	1101                	addi	sp,sp,-32
    8000d348:	ec06                	sd	ra,24(sp)
    8000d34a:	e822                	sd	s0,16(sp)
    8000d34c:	e426                	sd	s1,8(sp)
    8000d34e:	e04a                	sd	s2,0(sp)
    8000d350:	c989                	beqz	a1,8000d362 <_fclose_r+0x1c>
    8000d352:	842e                	mv	s0,a1
    8000d354:	84aa                	mv	s1,a0
    8000d356:	c119                	beqz	a0,8000d35c <_fclose_r+0x16>
    8000d358:	493c                	lw	a5,80(a0)
    8000d35a:	cfa5                	beqz	a5,8000d3d2 <_fclose_r+0x8c>
    8000d35c:	01041783          	lh	a5,16(s0)
    8000d360:	eb89                	bnez	a5,8000d372 <_fclose_r+0x2c>
    8000d362:	60e2                	ld	ra,24(sp)
    8000d364:	6442                	ld	s0,16(sp)
    8000d366:	4901                	li	s2,0
    8000d368:	64a2                	ld	s1,8(sp)
    8000d36a:	854a                	mv	a0,s2
    8000d36c:	6902                	ld	s2,0(sp)
    8000d36e:	6105                	addi	sp,sp,32
    8000d370:	8082                	ret
    8000d372:	85a2                	mv	a1,s0
    8000d374:	8526                	mv	a0,s1
    8000d376:	86dfb0ef          	jal	ra,80008be2 <__sflush_r>
    8000d37a:	683c                	ld	a5,80(s0)
    8000d37c:	892a                	mv	s2,a0
    8000d37e:	c791                	beqz	a5,8000d38a <_fclose_r+0x44>
    8000d380:	780c                	ld	a1,48(s0)
    8000d382:	8526                	mv	a0,s1
    8000d384:	9782                	jalr	a5
    8000d386:	04054c63          	bltz	a0,8000d3de <_fclose_r+0x98>
    8000d38a:	01045783          	lhu	a5,16(s0)
    8000d38e:	0807f793          	andi	a5,a5,128
    8000d392:	efa1                	bnez	a5,8000d3ea <_fclose_r+0xa4>
    8000d394:	6c2c                	ld	a1,88(s0)
    8000d396:	c991                	beqz	a1,8000d3aa <_fclose_r+0x64>
    8000d398:	07440793          	addi	a5,s0,116
    8000d39c:	00f58563          	beq	a1,a5,8000d3a6 <_fclose_r+0x60>
    8000d3a0:	8526                	mv	a0,s1
    8000d3a2:	ebdfb0ef          	jal	ra,8000925e <_free_r>
    8000d3a6:	04043c23          	sd	zero,88(s0)
    8000d3aa:	7c2c                	ld	a1,120(s0)
    8000d3ac:	c591                	beqz	a1,8000d3b8 <_fclose_r+0x72>
    8000d3ae:	8526                	mv	a0,s1
    8000d3b0:	eaffb0ef          	jal	ra,8000925e <_free_r>
    8000d3b4:	06043c23          	sd	zero,120(s0)
    8000d3b8:	c9dfb0ef          	jal	ra,80009054 <__sfp_lock_acquire>
    8000d3bc:	00041823          	sh	zero,16(s0)
    8000d3c0:	c97fb0ef          	jal	ra,80009056 <__sfp_lock_release>
    8000d3c4:	60e2                	ld	ra,24(sp)
    8000d3c6:	6442                	ld	s0,16(sp)
    8000d3c8:	64a2                	ld	s1,8(sp)
    8000d3ca:	854a                	mv	a0,s2
    8000d3cc:	6902                	ld	s2,0(sp)
    8000d3ce:	6105                	addi	sp,sp,32
    8000d3d0:	8082                	ret
    8000d3d2:	c7bfb0ef          	jal	ra,8000904c <__sinit>
    8000d3d6:	01041783          	lh	a5,16(s0)
    8000d3da:	d7c1                	beqz	a5,8000d362 <_fclose_r+0x1c>
    8000d3dc:	bf59                	j	8000d372 <_fclose_r+0x2c>
    8000d3de:	01045783          	lhu	a5,16(s0)
    8000d3e2:	597d                	li	s2,-1
    8000d3e4:	0807f793          	andi	a5,a5,128
    8000d3e8:	d7d5                	beqz	a5,8000d394 <_fclose_r+0x4e>
    8000d3ea:	6c0c                	ld	a1,24(s0)
    8000d3ec:	8526                	mv	a0,s1
    8000d3ee:	e71fb0ef          	jal	ra,8000925e <_free_r>
    8000d3f2:	b74d                	j	8000d394 <_fclose_r+0x4e>

Disassembly of section .text.fclose:

000000008000d3f4 <fclose>:
    8000d3f4:	85aa                	mv	a1,a0
    8000d3f6:	8a01b503          	ld	a0,-1888(gp) # 80010180 <_impure_ptr>
    8000d3fa:	b7b1                	j	8000d346 <_fclose_r>

Disassembly of section .text._fstat_r:

000000008000d3fc <_fstat_r>:
    8000d3fc:	1141                	addi	sp,sp,-16
    8000d3fe:	872e                	mv	a4,a1
    8000d400:	e022                	sd	s0,0(sp)
    8000d402:	85b2                	mv	a1,a2
    8000d404:	842a                	mv	s0,a0
    8000d406:	853a                	mv	a0,a4
    8000d408:	8e01a423          	sw	zero,-1816(gp) # 800101c8 <errno>
    8000d40c:	e406                	sd	ra,8(sp)
    8000d40e:	0ea000ef          	jal	ra,8000d4f8 <_fstat>
    8000d412:	57fd                	li	a5,-1
    8000d414:	00f50663          	beq	a0,a5,8000d420 <_fstat_r+0x24>
    8000d418:	60a2                	ld	ra,8(sp)
    8000d41a:	6402                	ld	s0,0(sp)
    8000d41c:	0141                	addi	sp,sp,16
    8000d41e:	8082                	ret
    8000d420:	8e81a783          	lw	a5,-1816(gp) # 800101c8 <errno>
    8000d424:	dbf5                	beqz	a5,8000d418 <_fstat_r+0x1c>
    8000d426:	60a2                	ld	ra,8(sp)
    8000d428:	c01c                	sw	a5,0(s0)
    8000d42a:	6402                	ld	s0,0(sp)
    8000d42c:	0141                	addi	sp,sp,16
    8000d42e:	8082                	ret

Disassembly of section .text._isatty_r:

000000008000d430 <_isatty_r>:
    8000d430:	1141                	addi	sp,sp,-16
    8000d432:	e022                	sd	s0,0(sp)
    8000d434:	842a                	mv	s0,a0
    8000d436:	852e                	mv	a0,a1
    8000d438:	8e01a423          	sw	zero,-1816(gp) # 800101c8 <errno>
    8000d43c:	e406                	sd	ra,8(sp)
    8000d43e:	126000ef          	jal	ra,8000d564 <_isatty>
    8000d442:	57fd                	li	a5,-1
    8000d444:	00f50663          	beq	a0,a5,8000d450 <_isatty_r+0x20>
    8000d448:	60a2                	ld	ra,8(sp)
    8000d44a:	6402                	ld	s0,0(sp)
    8000d44c:	0141                	addi	sp,sp,16
    8000d44e:	8082                	ret
    8000d450:	8e81a783          	lw	a5,-1816(gp) # 800101c8 <errno>
    8000d454:	dbf5                	beqz	a5,8000d448 <_isatty_r+0x18>
    8000d456:	60a2                	ld	ra,8(sp)
    8000d458:	c01c                	sw	a5,0(s0)
    8000d45a:	6402                	ld	s0,0(sp)
    8000d45c:	0141                	addi	sp,sp,16
    8000d45e:	8082                	ret

Disassembly of section .text._lseek_r:

000000008000d460 <_lseek_r>:
    8000d460:	1141                	addi	sp,sp,-16
    8000d462:	872e                	mv	a4,a1
    8000d464:	e022                	sd	s0,0(sp)
    8000d466:	85b2                	mv	a1,a2
    8000d468:	842a                	mv	s0,a0
    8000d46a:	8636                	mv	a2,a3
    8000d46c:	853a                	mv	a0,a4
    8000d46e:	8e01a423          	sw	zero,-1816(gp) # 800101c8 <errno>
    8000d472:	e406                	sd	ra,8(sp)
    8000d474:	116000ef          	jal	ra,8000d58a <_lseek>
    8000d478:	57fd                	li	a5,-1
    8000d47a:	00f50663          	beq	a0,a5,8000d486 <_lseek_r+0x26>
    8000d47e:	60a2                	ld	ra,8(sp)
    8000d480:	6402                	ld	s0,0(sp)
    8000d482:	0141                	addi	sp,sp,16
    8000d484:	8082                	ret
    8000d486:	8e81a783          	lw	a5,-1816(gp) # 800101c8 <errno>
    8000d48a:	dbf5                	beqz	a5,8000d47e <_lseek_r+0x1e>
    8000d48c:	60a2                	ld	ra,8(sp)
    8000d48e:	c01c                	sw	a5,0(s0)
    8000d490:	6402                	ld	s0,0(sp)
    8000d492:	0141                	addi	sp,sp,16
    8000d494:	8082                	ret

Disassembly of section .text._read_r:

000000008000d496 <_read_r>:
    8000d496:	1141                	addi	sp,sp,-16
    8000d498:	872e                	mv	a4,a1
    8000d49a:	e022                	sd	s0,0(sp)
    8000d49c:	85b2                	mv	a1,a2
    8000d49e:	842a                	mv	s0,a0
    8000d4a0:	8636                	mv	a2,a3
    8000d4a2:	853a                	mv	a0,a4
    8000d4a4:	8e01a423          	sw	zero,-1816(gp) # 800101c8 <errno>
    8000d4a8:	e406                	sd	ra,8(sp)
    8000d4aa:	10c000ef          	jal	ra,8000d5b6 <_read>
    8000d4ae:	57fd                	li	a5,-1
    8000d4b0:	00f50663          	beq	a0,a5,8000d4bc <_read_r+0x26>
    8000d4b4:	60a2                	ld	ra,8(sp)
    8000d4b6:	6402                	ld	s0,0(sp)
    8000d4b8:	0141                	addi	sp,sp,16
    8000d4ba:	8082                	ret
    8000d4bc:	8e81a783          	lw	a5,-1816(gp) # 800101c8 <errno>
    8000d4c0:	dbf5                	beqz	a5,8000d4b4 <_read_r+0x1e>
    8000d4c2:	60a2                	ld	ra,8(sp)
    8000d4c4:	c01c                	sw	a5,0(s0)
    8000d4c6:	6402                	ld	s0,0(sp)
    8000d4c8:	0141                	addi	sp,sp,16
    8000d4ca:	8082                	ret

Disassembly of section .text._close:

000000008000d4cc <_close>:
    8000d4cc:	1141                	addi	sp,sp,-16
    8000d4ce:	e406                	sd	ra,8(sp)
    8000d4d0:	e022                	sd	s0,0(sp)
    8000d4d2:	03900893          	li	a7,57
    8000d4d6:	00000073          	ecall
    8000d4da:	842a                	mv	s0,a0
    8000d4dc:	00054763          	bltz	a0,8000d4ea <_close+0x1e>
    8000d4e0:	2501                	sext.w	a0,a0
    8000d4e2:	60a2                	ld	ra,8(sp)
    8000d4e4:	6402                	ld	s0,0(sp)
    8000d4e6:	0141                	addi	sp,sp,16
    8000d4e8:	8082                	ret
    8000d4ea:	e57ff0ef          	jal	ra,8000d340 <__errno>
    8000d4ee:	4080043b          	negw	s0,s0
    8000d4f2:	c100                	sw	s0,0(a0)
    8000d4f4:	557d                	li	a0,-1
    8000d4f6:	b7f5                	j	8000d4e2 <_close+0x16>

Disassembly of section .text._fstat:

000000008000d4f8 <_fstat>:
    8000d4f8:	7135                	addi	sp,sp,-160
    8000d4fa:	e526                	sd	s1,136(sp)
    8000d4fc:	ed06                	sd	ra,152(sp)
    8000d4fe:	84ae                	mv	s1,a1
    8000d500:	e922                	sd	s0,144(sp)
    8000d502:	05000893          	li	a7,80
    8000d506:	858a                	mv	a1,sp
    8000d508:	00000073          	ecall
    8000d50c:	842a                	mv	s0,a0
    8000d50e:	00054e63          	bltz	a0,8000d52a <_fstat+0x32>
    8000d512:	0005041b          	sext.w	s0,a0
    8000d516:	8526                	mv	a0,s1
    8000d518:	858a                	mv	a1,sp
    8000d51a:	144000ef          	jal	ra,8000d65e <_conv_stat>
    8000d51e:	60ea                	ld	ra,152(sp)
    8000d520:	8522                	mv	a0,s0
    8000d522:	644a                	ld	s0,144(sp)
    8000d524:	64aa                	ld	s1,136(sp)
    8000d526:	610d                	addi	sp,sp,160
    8000d528:	8082                	ret
    8000d52a:	4080043b          	negw	s0,s0
    8000d52e:	e13ff0ef          	jal	ra,8000d340 <__errno>
    8000d532:	c100                	sw	s0,0(a0)
    8000d534:	547d                	li	s0,-1
    8000d536:	b7c5                	j	8000d516 <_fstat+0x1e>

Disassembly of section .text._gettimeofday:

000000008000d538 <_gettimeofday>:
    8000d538:	1141                	addi	sp,sp,-16
    8000d53a:	e406                	sd	ra,8(sp)
    8000d53c:	e022                	sd	s0,0(sp)
    8000d53e:	0a900893          	li	a7,169
    8000d542:	00000073          	ecall
    8000d546:	842a                	mv	s0,a0
    8000d548:	00054763          	bltz	a0,8000d556 <_gettimeofday+0x1e>
    8000d54c:	2501                	sext.w	a0,a0
    8000d54e:	60a2                	ld	ra,8(sp)
    8000d550:	6402                	ld	s0,0(sp)
    8000d552:	0141                	addi	sp,sp,16
    8000d554:	8082                	ret
    8000d556:	debff0ef          	jal	ra,8000d340 <__errno>
    8000d55a:	4080043b          	negw	s0,s0
    8000d55e:	c100                	sw	s0,0(a0)
    8000d560:	557d                	li	a0,-1
    8000d562:	b7f5                	j	8000d54e <_gettimeofday+0x16>

Disassembly of section .text._isatty:

000000008000d564 <_isatty>:
    8000d564:	7119                	addi	sp,sp,-128
    8000d566:	002c                	addi	a1,sp,8
    8000d568:	fc86                	sd	ra,120(sp)
    8000d56a:	f8fff0ef          	jal	ra,8000d4f8 <_fstat>
    8000d56e:	57fd                	li	a5,-1
    8000d570:	00f50963          	beq	a0,a5,8000d582 <_isatty+0x1e>
    8000d574:	4532                	lw	a0,12(sp)
    8000d576:	70e6                	ld	ra,120(sp)
    8000d578:	40d5551b          	sraiw	a0,a0,0xd
    8000d57c:	8905                	andi	a0,a0,1
    8000d57e:	6109                	addi	sp,sp,128
    8000d580:	8082                	ret
    8000d582:	70e6                	ld	ra,120(sp)
    8000d584:	4501                	li	a0,0
    8000d586:	6109                	addi	sp,sp,128
    8000d588:	8082                	ret

Disassembly of section .text._lseek:

000000008000d58a <_lseek>:
    8000d58a:	1141                	addi	sp,sp,-16
    8000d58c:	e406                	sd	ra,8(sp)
    8000d58e:	e022                	sd	s0,0(sp)
    8000d590:	03e00893          	li	a7,62
    8000d594:	00000073          	ecall
    8000d598:	842a                	mv	s0,a0
    8000d59a:	00054763          	bltz	a0,8000d5a8 <_lseek+0x1e>
    8000d59e:	60a2                	ld	ra,8(sp)
    8000d5a0:	8522                	mv	a0,s0
    8000d5a2:	6402                	ld	s0,0(sp)
    8000d5a4:	0141                	addi	sp,sp,16
    8000d5a6:	8082                	ret
    8000d5a8:	4080043b          	negw	s0,s0
    8000d5ac:	d95ff0ef          	jal	ra,8000d340 <__errno>
    8000d5b0:	c100                	sw	s0,0(a0)
    8000d5b2:	547d                	li	s0,-1
    8000d5b4:	b7ed                	j	8000d59e <_lseek+0x14>

Disassembly of section .text._read:

000000008000d5b6 <_read>:
    8000d5b6:	1141                	addi	sp,sp,-16
    8000d5b8:	e406                	sd	ra,8(sp)
    8000d5ba:	e022                	sd	s0,0(sp)
    8000d5bc:	03f00893          	li	a7,63
    8000d5c0:	00000073          	ecall
    8000d5c4:	842a                	mv	s0,a0
    8000d5c6:	00054763          	bltz	a0,8000d5d4 <_read+0x1e>
    8000d5ca:	60a2                	ld	ra,8(sp)
    8000d5cc:	8522                	mv	a0,s0
    8000d5ce:	6402                	ld	s0,0(sp)
    8000d5d0:	0141                	addi	sp,sp,16
    8000d5d2:	8082                	ret
    8000d5d4:	4080043b          	negw	s0,s0
    8000d5d8:	d69ff0ef          	jal	ra,8000d340 <__errno>
    8000d5dc:	c100                	sw	s0,0(a0)
    8000d5de:	547d                	li	s0,-1
    8000d5e0:	b7ed                	j	8000d5ca <_read+0x14>

Disassembly of section .text._sbrk:

000000008000d5e2 <_sbrk>:
    8000d5e2:	8f018693          	addi	a3,gp,-1808 # 800101d0 <heap_end.0>
    8000d5e6:	6298                	ld	a4,0(a3)
    8000d5e8:	1141                	addi	sp,sp,-16
    8000d5ea:	e406                	sd	ra,8(sp)
    8000d5ec:	87aa                	mv	a5,a0
    8000d5ee:	eb19                	bnez	a4,8000d604 <_sbrk+0x22>
    8000d5f0:	0d600893          	li	a7,214
    8000d5f4:	4501                	li	a0,0
    8000d5f6:	00000073          	ecall
    8000d5fa:	567d                	li	a2,-1
    8000d5fc:	872a                	mv	a4,a0
    8000d5fe:	02c50263          	beq	a0,a2,8000d622 <_sbrk+0x40>
    8000d602:	e288                	sd	a0,0(a3)
    8000d604:	0d600893          	li	a7,214
    8000d608:	00e78533          	add	a0,a5,a4
    8000d60c:	00000073          	ecall
    8000d610:	6298                	ld	a4,0(a3)
    8000d612:	97ba                	add	a5,a5,a4
    8000d614:	00f51763          	bne	a0,a5,8000d622 <_sbrk+0x40>
    8000d618:	60a2                	ld	ra,8(sp)
    8000d61a:	e288                	sd	a0,0(a3)
    8000d61c:	853a                	mv	a0,a4
    8000d61e:	0141                	addi	sp,sp,16
    8000d620:	8082                	ret
    8000d622:	d1fff0ef          	jal	ra,8000d340 <__errno>
    8000d626:	60a2                	ld	ra,8(sp)
    8000d628:	47b1                	li	a5,12
    8000d62a:	c11c                	sw	a5,0(a0)
    8000d62c:	557d                	li	a0,-1
    8000d62e:	0141                	addi	sp,sp,16
    8000d630:	8082                	ret

Disassembly of section .text._write:

000000008000d632 <_write>:
    8000d632:	1141                	addi	sp,sp,-16
    8000d634:	e406                	sd	ra,8(sp)
    8000d636:	e022                	sd	s0,0(sp)
    8000d638:	04000893          	li	a7,64
    8000d63c:	00000073          	ecall
    8000d640:	842a                	mv	s0,a0
    8000d642:	00054763          	bltz	a0,8000d650 <_write+0x1e>
    8000d646:	60a2                	ld	ra,8(sp)
    8000d648:	8522                	mv	a0,s0
    8000d64a:	6402                	ld	s0,0(sp)
    8000d64c:	0141                	addi	sp,sp,16
    8000d64e:	8082                	ret
    8000d650:	4080043b          	negw	s0,s0
    8000d654:	cedff0ef          	jal	ra,8000d340 <__errno>
    8000d658:	c100                	sw	s0,0(a0)
    8000d65a:	547d                	li	s0,-1
    8000d65c:	b7ed                	j	8000d646 <_write+0x14>

Disassembly of section .text._conv_stat:

000000008000d65e <_conv_stat>:
    8000d65e:	0185d703          	lhu	a4,24(a1)
    8000d662:	0145d783          	lhu	a5,20(a1)
    8000d666:	4dd0                	lw	a2,28(a1)
    8000d668:	7194                	ld	a3,32(a1)
    8000d66a:	0005b303          	ld	t1,0(a1)
    8000d66e:	0085b883          	ld	a7,8(a1)
    8000d672:	0105a803          	lw	a6,16(a1)
    8000d676:	0107171b          	slliw	a4,a4,0x10
    8000d67a:	8fd9                	or	a5,a5,a4
    8000d67c:	00c51623          	sh	a2,12(a0)
    8000d680:	00d51723          	sh	a3,14(a0)
    8000d684:	00651023          	sh	t1,0(a0)
    8000d688:	01151123          	sh	a7,2(a0)
    8000d68c:	01052223          	sw	a6,4(a0)
    8000d690:	c51c                	sw	a5,8(a0)
    8000d692:	7998                	ld	a4,48(a1)
    8000d694:	65bc                	ld	a5,72(a1)
    8000d696:	61b0                	ld	a2,64(a1)
    8000d698:	5d94                	lw	a3,56(a1)
    8000d69a:	e918                	sd	a4,16(a0)
    8000d69c:	ed1c                	sd	a5,24(a0)
    8000d69e:	6db8                	ld	a4,88(a1)
    8000d6a0:	75bc                	ld	a5,104(a1)
    8000d6a2:	e930                	sd	a2,80(a0)
    8000d6a4:	e534                	sd	a3,72(a0)
    8000d6a6:	f518                	sd	a4,40(a0)
    8000d6a8:	fd1c                	sd	a5,56(a0)
    8000d6aa:	8082                	ret
